; Listing generated by Microsoft (R) Optimizing Compiler Version 19.15.26726.0 

include listing.inc

INCLUDELIB OLDNAMES

PUBLIC	??_C@_1CA@ONGMEOAB@?$AAa?$AAt?$AAl?$AAT?$AAr?$AAa?$AAc?$AAe?$AAG?$AAe?$AAn?$AAe?$AAr?$AAa?$AAl@ ; `string'
PUBLIC	??_C@_1BI@MAFGHOEE@?$AAa?$AAt?$AAl?$AAT?$AAr?$AAa?$AAc?$AAe?$AAC?$AAO?$AAM@ ; `string'
PUBLIC	??_C@_1BG@FPLJJEMF@?$AAa?$AAt?$AAl?$AAT?$AAr?$AAa?$AAc?$AAe?$AAQ?$AAI@ ; `string'
PUBLIC	??_C@_1CE@NIAEAIDK@?$AAa?$AAt?$AAl?$AAT?$AAr?$AAa?$AAc?$AAe?$AAR?$AAe?$AAg?$AAi?$AAs?$AAt?$AAr@ ; `string'
PUBLIC	??_C@_1CC@BNHGJFNK@?$AAa?$AAt?$AAl?$AAT?$AAr?$AAa?$AAc?$AAe?$AAR?$AAe?$AAf?$AAc?$AAo?$AAu?$AAn@ ; `string'
PUBLIC	??_C@_1CE@NAJDPMNB@?$AAa?$AAt?$AAl?$AAT?$AAr?$AAa?$AAc?$AAe?$AAW?$AAi?$AAn?$AAd?$AAo?$AAw?$AAi@ ; `string'
PUBLIC	??_C@_1CC@IMNJGBED@?$AAa?$AAt?$AAl?$AAT?$AAr?$AAa?$AAc?$AAe?$AAC?$AAo?$AAn?$AAt?$AAr?$AAo?$AAl@ ; `string'
PUBLIC	??_C@_1CA@OMOMONMN@?$AAa?$AAt?$AAl?$AAT?$AAr?$AAa?$AAc?$AAe?$AAH?$AAo?$AAs?$AAt?$AAi?$AAn?$AAg@ ; `string'
PUBLIC	??_C@_1CC@JNJJDOOH@?$AAa?$AAt?$AAl?$AAT?$AAr?$AAa?$AAc?$AAe?$AAD?$AAB?$AAC?$AAl?$AAi?$AAe?$AAn@ ; `string'
PUBLIC	??_C@_1CG@MNMMIOOI@?$AAa?$AAt?$AAl?$AAT?$AAr?$AAa?$AAc?$AAe?$AAD?$AAB?$AAP?$AAr?$AAo?$AAv?$AAi@ ; `string'
PUBLIC	??_C@_1BO@EFPHNHHN@?$AAa?$AAt?$AAl?$AAT?$AAr?$AAa?$AAc?$AAe?$AAS?$AAn?$AAa?$AAp?$AAi?$AAn@ ; `string'
PUBLIC	??_C@_1CA@DMHPIODO@?$AAa?$AAt?$AAl?$AAT?$AAr?$AAa?$AAc?$AAe?$AAN?$AAo?$AAt?$AAI?$AAm?$AAp?$AAl@ ; `string'
PUBLIC	??_C@_1CG@KFEEMCDH@?$AAa?$AAt?$AAl?$AAT?$AAr?$AAa?$AAc?$AAe?$AAA?$AAl?$AAl?$AAo?$AAc?$AAa?$AAt@ ; `string'
PUBLIC	??_C@_1CE@IMMADNAP@?$AAa?$AAt?$AAl?$AAT?$AAr?$AAa?$AAc?$AAe?$AAE?$AAx?$AAc?$AAe?$AAp?$AAt?$AAi@ ; `string'
PUBLIC	??_C@_1BK@NCJHOFCL@?$AAa?$AAt?$AAl?$AAT?$AAr?$AAa?$AAc?$AAe?$AAT?$AAi?$AAm?$AAe@ ; `string'
PUBLIC	??_C@_1BM@GIKLHLFD@?$AAa?$AAt?$AAl?$AAT?$AAr?$AAa?$AAc?$AAe?$AAC?$AAa?$AAc?$AAh?$AAe@ ; `string'
PUBLIC	??_C@_1CA@PBPHANCD@?$AAa?$AAt?$AAl?$AAT?$AAr?$AAa?$AAc?$AAe?$AAS?$AAt?$AAe?$AAn?$AAc?$AAi?$AAl@ ; `string'
PUBLIC	??_C@_1BO@GMLILNDJ@?$AAa?$AAt?$AAl?$AAT?$AAr?$AAa?$AAc?$AAe?$AAS?$AAt?$AAr?$AAi?$AAn?$AAg@ ; `string'
PUBLIC	??_C@_1BI@OKDLCIEM@?$AAa?$AAt?$AAl?$AAT?$AAr?$AAa?$AAc?$AAe?$AAM?$AAa?$AAp@ ; `string'
PUBLIC	??_C@_1BK@DMHCKHHD@?$AAa?$AAt?$AAl?$AAT?$AAr?$AAa?$AAc?$AAe?$AAU?$AAt?$AAi?$AAl@ ; `string'
PUBLIC	??_C@_1CC@DMMBNCFG@?$AAa?$AAt?$AAl?$AAT?$AAr?$AAa?$AAc?$AAe?$AAS?$AAe?$AAc?$AAu?$AAr?$AAi?$AAt@ ; `string'
PUBLIC	??_C@_1BK@OPAPOCAL@?$AAa?$AAt?$AAl?$AAT?$AAr?$AAa?$AAc?$AAe?$AAS?$AAy?$AAn?$AAc@ ; `string'
PUBLIC	??_C@_1BM@FHAEDBFK@?$AAa?$AAt?$AAl?$AAT?$AAr?$AAa?$AAc?$AAe?$AAI?$AAS?$AAA?$AAP?$AAI@ ; `string'
PUBLIC	??_C@_13HADIAKP@?$AAS@				; `string'
PUBLIC	??_C@_13LHMFKAAD@?$AAM@				; `string'
PUBLIC	??_C@_13MKMNOPIJ@?$AAD@				; `string'
PUBLIC	??_C@_13OPKGLAFF@?$AAB@				; `string'
PUBLIC	??_C@_17LLMMEOJD@?$AAV?$AAa?$AAl@		; `string'
PUBLIC	??_C@_1BI@JFAIJMHL@?$AAF?$AAo?$AAr?$AAc?$AAe?$AAR?$AAe?$AAm?$AAo?$AAv?$AAe@ ; `string'
PUBLIC	??_C@_1BC@GCKHIPE@?$AAN?$AAo?$AAR?$AAe?$AAm?$AAo?$AAv?$AAe@ ; `string'
PUBLIC	??_C@_1O@JDLOHAN@?$AAD?$AAe?$AAl?$AAe?$AAt?$AAe@ ; `string'
PUBLIC	??_C@_1CE@OLELPDNA@?$AAR?$AAu?$AAn?$AAn?$AAi?$AAn?$AAg?$AA?5?$AAB?$AAe?$AAn?$AAc?$AAh?$AAm?$AAa@ ; `string'
PUBLIC	??_C@_1O@ELLBDENI@?$AAS?$AAT?$AAA?$AAT?$AAI?$AAC@ ; `string'
PUBLIC	??_C@_15KNBIKKIN@?$AA?$CF?$AAd@			; `string'
PUBLIC	??_C@_19DICJPJO@?$AAT?$AAE?$AAS?$AAT@		; `string'
PUBLIC	??_R2?$_LaunchPad@V?$unique_ptr@V?$tuple@P8Benchmark@@EAAHHH@ZPEAV1@HH@std@@U?$default_delete@V?$tuple@P8Benchmark@@EAAHHH@ZPEAV1@HH@std@@@2@@std@@@std@@8 ; std::_LaunchPad<std::unique_ptr<std::tuple<int (__cdecl Benchmark::*)(int,int),Benchmark *,int,int>,std::default_delete<std::tuple<int (__cdecl Benchmark::*)(int,int),Benchmark *,int,int> > > >::`RTTI Base Class Array'
PUBLIC	??_R2?$_LaunchPad@V?$unique_ptr@V?$tuple@P8Benchmark@@EAAHXZPEAV1@@std@@U?$default_delete@V?$tuple@P8Benchmark@@EAAHXZPEAV1@@std@@@2@@std@@@std@@8 ; std::_LaunchPad<std::unique_ptr<std::tuple<int (__cdecl Benchmark::*)(void),Benchmark *>,std::default_delete<std::tuple<int (__cdecl Benchmark::*)(void),Benchmark *> > > >::`RTTI Base Class Array'
PUBLIC	??_R2_Pad@std@@8				; std::_Pad::`RTTI Base Class Array'
PUBLIC	??_R2CAtlStringMgr@ATL@@8			; ATL::CAtlStringMgr::`RTTI Base Class Array'
PUBLIC	??_R2IAtlStringMgr@ATL@@8			; ATL::IAtlStringMgr::`RTTI Base Class Array'
PUBLIC	??_R2CWin32Heap@ATL@@8				; ATL::CWin32Heap::`RTTI Base Class Array'
PUBLIC	??_R2IAtlMemMgr@ATL@@8				; ATL::IAtlMemMgr::`RTTI Base Class Array'
PUBLIC	??_R1A@?0A@EA@?$_LaunchPad@V?$unique_ptr@V?$tuple@P8Benchmark@@EAAHHH@ZPEAV1@HH@std@@U?$default_delete@V?$tuple@P8Benchmark@@EAAHHH@ZPEAV1@HH@std@@@2@@std@@@std@@8 ; std::_LaunchPad<std::unique_ptr<std::tuple<int (__cdecl Benchmark::*)(int,int),Benchmark *,int,int>,std::default_delete<std::tuple<int (__cdecl Benchmark::*)(int,int),Benchmark *,int,int> > > >::`RTTI Base Class Descriptor at (0,-1,0,64)'
PUBLIC	??_R1A@?0A@EA@?$_LaunchPad@V?$unique_ptr@V?$tuple@P8Benchmark@@EAAHXZPEAV1@@std@@U?$default_delete@V?$tuple@P8Benchmark@@EAAHXZPEAV1@@std@@@2@@std@@@std@@8 ; std::_LaunchPad<std::unique_ptr<std::tuple<int (__cdecl Benchmark::*)(void),Benchmark *>,std::default_delete<std::tuple<int (__cdecl Benchmark::*)(void),Benchmark *> > > >::`RTTI Base Class Descriptor at (0,-1,0,64)'
PUBLIC	??_R1A@?0A@EA@_Pad@std@@8			; std::_Pad::`RTTI Base Class Descriptor at (0,-1,0,64)'
PUBLIC	??_R1A@?0A@EA@CAtlStringMgr@ATL@@8		; ATL::CAtlStringMgr::`RTTI Base Class Descriptor at (0,-1,0,64)'
PUBLIC	??_R1A@?0A@EA@IAtlStringMgr@ATL@@8		; ATL::IAtlStringMgr::`RTTI Base Class Descriptor at (0,-1,0,64)'
PUBLIC	??_R1A@?0A@EA@CWin32Heap@ATL@@8			; ATL::CWin32Heap::`RTTI Base Class Descriptor at (0,-1,0,64)'
PUBLIC	??_R1A@?0A@EA@IAtlMemMgr@ATL@@8			; ATL::IAtlMemMgr::`RTTI Base Class Descriptor at (0,-1,0,64)'
PUBLIC	??_R3?$_LaunchPad@V?$unique_ptr@V?$tuple@P8Benchmark@@EAAHHH@ZPEAV1@HH@std@@U?$default_delete@V?$tuple@P8Benchmark@@EAAHHH@ZPEAV1@HH@std@@@2@@std@@@std@@8 ; std::_LaunchPad<std::unique_ptr<std::tuple<int (__cdecl Benchmark::*)(int,int),Benchmark *,int,int>,std::default_delete<std::tuple<int (__cdecl Benchmark::*)(int,int),Benchmark *,int,int> > > >::`RTTI Class Hierarchy Descriptor'
PUBLIC	??_R0?AV?$_LaunchPad@V?$unique_ptr@V?$tuple@P8Benchmark@@EAAHHH@ZPEAV1@HH@std@@U?$default_delete@V?$tuple@P8Benchmark@@EAAHHH@ZPEAV1@HH@std@@@2@@std@@@std@@@8 ; std::_LaunchPad<std::unique_ptr<std::tuple<int (__cdecl Benchmark::*)(int,int),Benchmark *,int,int>,std::default_delete<std::tuple<int (__cdecl Benchmark::*)(int,int),Benchmark *,int,int> > > > `RTTI Type Descriptor'
PUBLIC	??_R3?$_LaunchPad@V?$unique_ptr@V?$tuple@P8Benchmark@@EAAHXZPEAV1@@std@@U?$default_delete@V?$tuple@P8Benchmark@@EAAHXZPEAV1@@std@@@2@@std@@@std@@8 ; std::_LaunchPad<std::unique_ptr<std::tuple<int (__cdecl Benchmark::*)(void),Benchmark *>,std::default_delete<std::tuple<int (__cdecl Benchmark::*)(void),Benchmark *> > > >::`RTTI Class Hierarchy Descriptor'
PUBLIC	??_R0?AV?$_LaunchPad@V?$unique_ptr@V?$tuple@P8Benchmark@@EAAHXZPEAV1@@std@@U?$default_delete@V?$tuple@P8Benchmark@@EAAHXZPEAV1@@std@@@2@@std@@@std@@@8 ; std::_LaunchPad<std::unique_ptr<std::tuple<int (__cdecl Benchmark::*)(void),Benchmark *>,std::default_delete<std::tuple<int (__cdecl Benchmark::*)(void),Benchmark *> > > > `RTTI Type Descriptor'
PUBLIC	??_R3_Pad@std@@8				; std::_Pad::`RTTI Class Hierarchy Descriptor'
PUBLIC	??_R0?AV_Pad@std@@@8				; std::_Pad `RTTI Type Descriptor'
PUBLIC	??_R3CAtlStringMgr@ATL@@8			; ATL::CAtlStringMgr::`RTTI Class Hierarchy Descriptor'
PUBLIC	??_R0?AVCAtlStringMgr@ATL@@@8			; ATL::CAtlStringMgr `RTTI Type Descriptor'
PUBLIC	??_R3IAtlStringMgr@ATL@@8			; ATL::IAtlStringMgr::`RTTI Class Hierarchy Descriptor'
PUBLIC	??_R0?AUIAtlStringMgr@ATL@@@8			; ATL::IAtlStringMgr `RTTI Type Descriptor'
PUBLIC	??_R3IAtlMemMgr@ATL@@8				; ATL::IAtlMemMgr::`RTTI Class Hierarchy Descriptor'
PUBLIC	??_R0?AUIAtlMemMgr@ATL@@@8			; ATL::IAtlMemMgr `RTTI Type Descriptor'
PUBLIC	??_R3CWin32Heap@ATL@@8				; ATL::CWin32Heap::`RTTI Class Hierarchy Descriptor'
PUBLIC	??_R0?AVCWin32Heap@ATL@@@8			; ATL::CWin32Heap `RTTI Type Descriptor'
PUBLIC	??_R4?$_LaunchPad@V?$unique_ptr@V?$tuple@P8Benchmark@@EAAHHH@ZPEAV1@HH@std@@U?$default_delete@V?$tuple@P8Benchmark@@EAAHHH@ZPEAV1@HH@std@@@2@@std@@@std@@6B@ ; std::_LaunchPad<std::unique_ptr<std::tuple<int (__cdecl Benchmark::*)(int,int),Benchmark *,int,int>,std::default_delete<std::tuple<int (__cdecl Benchmark::*)(int,int),Benchmark *,int,int> > > >::`RTTI Complete Object Locator'
PUBLIC	??_R4?$_LaunchPad@V?$unique_ptr@V?$tuple@P8Benchmark@@EAAHXZPEAV1@@std@@U?$default_delete@V?$tuple@P8Benchmark@@EAAHXZPEAV1@@std@@@2@@std@@@std@@6B@ ; std::_LaunchPad<std::unique_ptr<std::tuple<int (__cdecl Benchmark::*)(void),Benchmark *>,std::default_delete<std::tuple<int (__cdecl Benchmark::*)(void),Benchmark *> > > >::`RTTI Complete Object Locator'
PUBLIC	??_R4CAtlStringMgr@ATL@@6B@			; ATL::CAtlStringMgr::`RTTI Complete Object Locator'
PUBLIC	??_R4CWin32Heap@ATL@@6B@			; ATL::CWin32Heap::`RTTI Complete Object Locator'
PUBLIC	??_7?$_LaunchPad@V?$unique_ptr@V?$tuple@P8Benchmark@@EAAHHH@ZPEAV1@HH@std@@U?$default_delete@V?$tuple@P8Benchmark@@EAAHHH@ZPEAV1@HH@std@@@2@@std@@@std@@6B@ ; std::_LaunchPad<std::unique_ptr<std::tuple<int (__cdecl Benchmark::*)(int,int),Benchmark *,int,int>,std::default_delete<std::tuple<int (__cdecl Benchmark::*)(int,int),Benchmark *,int,int> > > >::`vftable'
PUBLIC	??_7?$_LaunchPad@V?$unique_ptr@V?$tuple@P8Benchmark@@EAAHXZPEAV1@@std@@U?$default_delete@V?$tuple@P8Benchmark@@EAAHXZPEAV1@@std@@@2@@std@@@std@@6B@ ; std::_LaunchPad<std::unique_ptr<std::tuple<int (__cdecl Benchmark::*)(void),Benchmark *>,std::default_delete<std::tuple<int (__cdecl Benchmark::*)(void),Benchmark *> > > >::`vftable'
PUBLIC	?strMgr@?1??GetInstance@CAtlStringMgr@ATL@@SAPEAUIAtlStringMgr@3@XZ@4V23@A ; `ATL::CAtlStringMgr::GetInstance'::`2'::strMgr
PUBLIC	?$TSS1@?1??GetInstance@CAtlStringMgr@ATL@@SAPEAUIAtlStringMgr@3@XZ@4HA ; TSS1<`template-parameter-2',ATL::CAtlStringMgr::tInstance,ATL::IAtlStringMgr * * const volatile,void,int, ?? &>
PUBLIC	?strHeap@?1??GetInstance@CAtlStringMgr@ATL@@SAPEAUIAtlStringMgr@3@XZ@4VCWin32Heap@3@A ; `ATL::CAtlStringMgr::GetInstance'::`2'::strHeap
PUBLIC	?$TSS0@?1??GetInstance@CAtlStringMgr@ATL@@SAPEAUIAtlStringMgr@3@XZ@4HA ; TSS0<`template-parameter-2',ATL::CAtlStringMgr::tInstance,ATL::IAtlStringMgr * * const volatile,void,int, ?? &>
PUBLIC	??_7CAtlStringMgr@ATL@@6B@			; ATL::CAtlStringMgr::`vftable'
PUBLIC	??_7CWin32Heap@ATL@@6B@				; ATL::CWin32Heap::`vftable'
PUBLIC	?szDelete@ATL@@3QEB_WEB				; ATL::szDelete
PUBLIC	?szNoRemove@ATL@@3QEB_WEB			; ATL::szNoRemove
PUBLIC	?szForceRemove@ATL@@3QEB_WEB			; ATL::szForceRemove
PUBLIC	?szValToken@ATL@@3QEB_WEB			; ATL::szValToken
PUBLIC	?szBinaryVal@ATL@@3QEB_WEB			; ATL::szBinaryVal
PUBLIC	?szDwordVal@ATL@@3QEB_WEB			; ATL::szDwordVal
PUBLIC	?multiszStringVal@ATL@@3QEB_WEB			; ATL::multiszStringVal
PUBLIC	?szStringVal@ATL@@3QEB_WEB			; ATL::szStringVal
PUBLIC	?chEquals@ATL@@3_WB				; ATL::chEquals
PUBLIC	?chQuote@ATL@@3_WB				; ATL::chQuote
PUBLIC	?chLeftBracket@ATL@@3_WB			; ATL::chLeftBracket
PUBLIC	?chRightBracket@ATL@@3_WB			; ATL::chRightBracket
PUBLIC	?chDirSep@ATL@@3_WB				; ATL::chDirSep
PUBLIC	?_pAtlAutoThreadModule@ATL@@3PEAUIAtlAutoThreadModule@1@EA ; ATL::_pAtlAutoThreadModule
PUBLIC	?_AtlRegisterPerUser@ATL@@3_NA			; ATL::_AtlRegisterPerUser
PUBLIC	?_pPerfUnRegFunc@ATL@@3P6AJXZEA			; ATL::_pPerfUnRegFunc
PUBLIC	?_pPerfRegFunc@ATL@@3P6AJPEAUHINSTANCE__@@@ZEA	; ATL::_pPerfRegFunc
PUBLIC	__pobjMapEntryLast
PUBLIC	__pobjMapEntryFirst
PUBLIC	IID_IAxWinAmbientDispatchEx
PUBLIC	IID_IAxWinHostWindowLic
PUBLIC	IID_IDocHostUIHandlerDispatch
PUBLIC	IID_IInternalConnection
PUBLIC	IID_IAxWinAmbientDispatch
PUBLIC	IID_IAxWinHostWindow
PUBLIC	IID_IRegistrar
PUBLIC	CLSID_Registrar
PUBLIC	LIBID_ATLLib
PUBLIC	?m_bInitFailed@CAtlBaseModule@ATL@@2_NA		; ATL::CAtlBaseModule::m_bInitFailed
PUBLIC	_CTA1?AVCAtlException@ATL@@
PUBLIC	_CT??_R0?AVCAtlException@ATL@@@84
PUBLIC	??_R0?AVCAtlException@ATL@@@8			; ATL::CAtlException `RTTI Type Descriptor'
PUBLIC	_TI1?AVCAtlException@ATL@@
PUBLIC	?_OptionsStorage@?1??__local_stdio_printf_options@@9@4_KA ; `__local_stdio_printf_options'::`2'::_OptionsStorage
EXTRN	__imp__Cnd_do_broadcast_at_thread_exit:PROC
EXTRN	__imp_MessageBoxW:PROC
EXTRN	__imp_clock:PROC
EXTRN	__imp_CreateWindowExW:PROC
EXTRN	__imp__Thrd_id:PROC
EXTRN	__imp_?_Throw_Cpp_error@std@@YAXH@Z:PROC
EXTRN	__imp__Mtx_destroy:PROC
EXTRN	__imp__Cnd_destroy:PROC
EXTRN	__imp__Cnd_signal:PROC
EXTRN	__imp__Cnd_wait:PROC
EXTRN	__imp__Cnd_init:PROC
EXTRN	__imp__Mtx_unlock:PROC
EXTRN	__imp__Mtx_lock:PROC
EXTRN	__imp__Mtx_init:PROC
EXTRN	__imp__Thrd_join:PROC
EXTRN	__imp__Thrd_detach:PROC
EXTRN	__imp__Thrd_start:PROC
EXTRN	__imp_?_Throw_C_error@std@@YAXH@Z:PROC
EXTRN	_Init_thread_footer:PROC
EXTRN	__imp_GetProcessHeap:PROC
EXTRN	_Init_thread_header:PROC
EXTRN	_Init_thread_epoch:DWORD
EXTRN	__imp___stdio_common_vswprintf_s:PROC
EXTRN	__imp___stdio_common_vswprintf:PROC
EXTRN	__imp_HeapSize:PROC
EXTRN	__imp_HeapReAlloc:PROC
EXTRN	__imp_HeapFree:PROC
EXTRN	__imp_HeapAlloc:PROC
EXTRN	__imp_HeapDestroy:PROC
EXTRN	__imp_UnregisterClassW:PROC
EXTRN	atexit:PROC
EXTRN	__ImageBase:BYTE
EXTRN	__imp_DecodePointer:PROC
EXTRN	?_AtlBaseModule@ATL@@3VCAtlBaseModule@1@A:BYTE	; ATL::_AtlBaseModule
EXTRN	__imp_DeleteCriticalSection:PROC
EXTRN	__imp_InitializeCriticalSectionEx:PROC
EXTRN	__imp_GetLastError:PROC
EXTRN	__imp_RaiseException:PROC
EXTRN	__imp__invalid_parameter_noinfo:PROC
EXTRN	__imp__errno:PROC
EXTRN	??_7type_info@@6B@:BYTE				; type_info::`vftable'
EXTRN	__imp_free:PROC
EXTRN	??2@YAPEAX_K@Z:PROC				; operator new
EXTRN	__imp_terminate:PROC
EXTRN	??3@YAXPEAX_K@Z:PROC				; operator delete
EXTRN	__imp___std_terminate:PROC
EXTRN	__security_check_cookie:PROC
EXTRN	__imp___CxxFrameHandler3:PROC
;	COMDAT ?strMgr@?1??GetInstance@CAtlStringMgr@ATL@@SAPEAUIAtlStringMgr@3@XZ@4V23@A
_BSS	SEGMENT
?strMgr@?1??GetInstance@CAtlStringMgr@ATL@@SAPEAUIAtlStringMgr@3@XZ@4V23@A DB 030H DUP (?) ; `ATL::CAtlStringMgr::GetInstance'::`2'::strMgr
_BSS	ENDS
;	COMDAT ?$TSS1@?1??GetInstance@CAtlStringMgr@ATL@@SAPEAUIAtlStringMgr@3@XZ@4HA
_BSS	SEGMENT
?$TSS1@?1??GetInstance@CAtlStringMgr@ATL@@SAPEAUIAtlStringMgr@3@XZ@4HA DD 01H DUP (?) ; TSS1<`template-parameter-2',ATL::CAtlStringMgr::tInstance,ATL::IAtlStringMgr * * const volatile,void,int, ?? &>
_BSS	ENDS
;	COMDAT ?strHeap@?1??GetInstance@CAtlStringMgr@ATL@@SAPEAUIAtlStringMgr@3@XZ@4VCWin32Heap@3@A
_BSS	SEGMENT
?strHeap@?1??GetInstance@CAtlStringMgr@ATL@@SAPEAUIAtlStringMgr@3@XZ@4VCWin32Heap@3@A DB 018H DUP (?) ; `ATL::CAtlStringMgr::GetInstance'::`2'::strHeap
_BSS	ENDS
;	COMDAT ?$TSS0@?1??GetInstance@CAtlStringMgr@ATL@@SAPEAUIAtlStringMgr@3@XZ@4HA
_BSS	SEGMENT
?$TSS0@?1??GetInstance@CAtlStringMgr@ATL@@SAPEAUIAtlStringMgr@3@XZ@4HA DD 01H DUP (?) ; TSS0<`template-parameter-2',ATL::CAtlStringMgr::tInstance,ATL::IAtlStringMgr * * const volatile,void,int, ?? &>
_BSS	ENDS
;	COMDAT ?_pAtlAutoThreadModule@ATL@@3PEAUIAtlAutoThreadModule@1@EA
_BSS	SEGMENT
?_pAtlAutoThreadModule@ATL@@3PEAUIAtlAutoThreadModule@1@EA DQ 01H DUP (?) ; ATL::_pAtlAutoThreadModule
_BSS	ENDS
;	COMDAT ?_AtlRegisterPerUser@ATL@@3_NA
_BSS	SEGMENT
?_AtlRegisterPerUser@ATL@@3_NA DB 01H DUP (?)		; ATL::_AtlRegisterPerUser
_BSS	ENDS
;	COMDAT ?_pPerfUnRegFunc@ATL@@3P6AJXZEA
_BSS	SEGMENT
?_pPerfUnRegFunc@ATL@@3P6AJXZEA DQ 01H DUP (?)		; ATL::_pPerfUnRegFunc
_BSS	ENDS
;	COMDAT ?_pPerfRegFunc@ATL@@3P6AJPEAUHINSTANCE__@@@ZEA
_BSS	SEGMENT
?_pPerfRegFunc@ATL@@3P6AJPEAUHINSTANCE__@@@ZEA DQ 01H DUP (?) ; ATL::_pPerfRegFunc
_BSS	ENDS
;	COMDAT ?m_bInitFailed@CAtlBaseModule@ATL@@2_NA
_BSS	SEGMENT
?m_bInitFailed@CAtlBaseModule@ATL@@2_NA DB 01H DUP (?)	; ATL::CAtlBaseModule::m_bInitFailed
_BSS	ENDS
;	COMDAT ?_OptionsStorage@?1??__local_stdio_printf_options@@9@4_KA
_BSS	SEGMENT
?_OptionsStorage@?1??__local_stdio_printf_options@@9@4_KA DQ 01H DUP (?) ; `__local_stdio_printf_options'::`2'::_OptionsStorage
_BSS	ENDS
;	COMDAT _TI1?AVCAtlException@ATL@@
xdata$x	SEGMENT
_TI1?AVCAtlException@ATL@@ DD 00H
	DD	00H
	DD	00H
	DD	imagerel _CTA1?AVCAtlException@ATL@@
xdata$x	ENDS
;	COMDAT ??_R0?AVCAtlException@ATL@@@8
data$r	SEGMENT
??_R0?AVCAtlException@ATL@@@8 DQ FLAT:??_7type_info@@6B@ ; ATL::CAtlException `RTTI Type Descriptor'
	DQ	0000000000000000H
	DB	'.?AVCAtlException@ATL@@', 00H
data$r	ENDS
;	COMDAT _CT??_R0?AVCAtlException@ATL@@@84
xdata$x	SEGMENT
_CT??_R0?AVCAtlException@ATL@@@84 DD 00H
	DD	imagerel ??_R0?AVCAtlException@ATL@@@8
	DD	00H
	DD	0ffffffffH
	ORG $+4
	DD	04H
	DD	00H
xdata$x	ENDS
;	COMDAT _CTA1?AVCAtlException@ATL@@
xdata$x	SEGMENT
_CTA1?AVCAtlException@ATL@@ DD 01H
	DD	imagerel _CT??_R0?AVCAtlException@ATL@@@84
xdata$x	ENDS
;	COMDAT LIBID_ATLLib
CONST	SEGMENT
LIBID_ATLLib DD	044ec0535H
	DW	0400fH
	DW	011d0H
	DB	09dH
	DB	0cdH
	DB	00H
	DB	0a0H
	DB	0c9H
	DB	03H
	DB	091H
	DB	0d3H
CONST	ENDS
;	COMDAT CLSID_Registrar
CONST	SEGMENT
CLSID_Registrar DD 044ec053aH
	DW	0400fH
	DW	011d0H
	DB	09dH
	DB	0cdH
	DB	00H
	DB	0a0H
	DB	0c9H
	DB	03H
	DB	091H
	DB	0d3H
CONST	ENDS
;	COMDAT IID_IRegistrar
CONST	SEGMENT
IID_IRegistrar DD 044ec053bH
	DW	0400fH
	DW	011d0H
	DB	09dH
	DB	0cdH
	DB	00H
	DB	0a0H
	DB	0c9H
	DB	03H
	DB	091H
	DB	0d3H
CONST	ENDS
;	COMDAT IID_IAxWinHostWindow
CONST	SEGMENT
IID_IAxWinHostWindow DD 0b6ea2050H
	DW	048aH
	DW	011d1H
	DB	082H
	DB	0b9H
	DB	00H
	DB	0c0H
	DB	04fH
	DB	0b9H
	DB	094H
	DB	02eH
CONST	ENDS
;	COMDAT IID_IAxWinAmbientDispatch
CONST	SEGMENT
IID_IAxWinAmbientDispatch DD 0b6ea2051H
	DW	048aH
	DW	011d1H
	DB	082H
	DB	0b9H
	DB	00H
	DB	0c0H
	DB	04fH
	DB	0b9H
	DB	094H
	DB	02eH
CONST	ENDS
;	COMDAT IID_IInternalConnection
CONST	SEGMENT
IID_IInternalConnection DD 072ad0770H
	DW	06a9fH
	DW	011d1H
	DB	0bcH
	DB	0ecH
	DB	00H
	DB	060H
	DB	08H
	DB	08fH
	DB	044H
	DB	04eH
CONST	ENDS
;	COMDAT IID_IDocHostUIHandlerDispatch
CONST	SEGMENT
IID_IDocHostUIHandlerDispatch DD 0425b5af0H
	DW	065f1H
	DW	011d1H
	DB	096H
	DB	011H
	DB	00H
	DB	00H
	DB	0f8H
	DB	01eH
	DB	0dH
	DB	0dH
CONST	ENDS
;	COMDAT IID_IAxWinHostWindowLic
CONST	SEGMENT
IID_IAxWinHostWindowLic DD 03935bda8H
	DW	04ed9H
	DW	0495cH
	DB	086H
	DB	050H
	DB	0e0H
	DB	01fH
	DB	0c1H
	DB	0e3H
	DB	08aH
	DB	04bH
CONST	ENDS
;	COMDAT IID_IAxWinAmbientDispatchEx
CONST	SEGMENT
IID_IAxWinAmbientDispatchEx DD 0b2d0778bH
	DW	0ac99H
	DW	04c58H
	DB	0a5H
	DB	0c8H
	DB	0e7H
	DB	072H
	DB	04eH
	DB	053H
	DB	016H
	DB	0b5H
CONST	ENDS
;	COMDAT __pobjMapEntryFirst
ATL$__a	SEGMENT
__pobjMapEntryFirst DQ 0000000000000000H
ATL$__a	ENDS
;	COMDAT __pobjMapEntryLast
ATL$__z	SEGMENT
__pobjMapEntryLast DQ 0000000000000000H
ATL$__z	ENDS
;	COMDAT ?chDirSep@ATL@@3_WB
CONST	SEGMENT
?chDirSep@ATL@@3_WB DW 05cH				; ATL::chDirSep
CONST	ENDS
;	COMDAT ?chRightBracket@ATL@@3_WB
CONST	SEGMENT
?chRightBracket@ATL@@3_WB DW 07dH			; ATL::chRightBracket
CONST	ENDS
;	COMDAT ?chLeftBracket@ATL@@3_WB
CONST	SEGMENT
?chLeftBracket@ATL@@3_WB DW 07bH			; ATL::chLeftBracket
CONST	ENDS
;	COMDAT ?chQuote@ATL@@3_WB
CONST	SEGMENT
?chQuote@ATL@@3_WB DW 027H				; ATL::chQuote
CONST	ENDS
;	COMDAT ?chEquals@ATL@@3_WB
CONST	SEGMENT
?chEquals@ATL@@3_WB DW 03dH				; ATL::chEquals
CONST	ENDS
;	COMDAT ?szStringVal@ATL@@3QEB_WEB
CONST	SEGMENT
?szStringVal@ATL@@3QEB_WEB DQ FLAT:??_C@_13HADIAKP@?$AAS@ ; ATL::szStringVal
CONST	ENDS
;	COMDAT ?multiszStringVal@ATL@@3QEB_WEB
CONST	SEGMENT
?multiszStringVal@ATL@@3QEB_WEB DQ FLAT:??_C@_13LHMFKAAD@?$AAM@ ; ATL::multiszStringVal
CONST	ENDS
;	COMDAT ?szDwordVal@ATL@@3QEB_WEB
CONST	SEGMENT
?szDwordVal@ATL@@3QEB_WEB DQ FLAT:??_C@_13MKMNOPIJ@?$AAD@ ; ATL::szDwordVal
CONST	ENDS
;	COMDAT ?szBinaryVal@ATL@@3QEB_WEB
CONST	SEGMENT
?szBinaryVal@ATL@@3QEB_WEB DQ FLAT:??_C@_13OPKGLAFF@?$AAB@ ; ATL::szBinaryVal
CONST	ENDS
;	COMDAT ?szValToken@ATL@@3QEB_WEB
CONST	SEGMENT
?szValToken@ATL@@3QEB_WEB DQ FLAT:??_C@_17LLMMEOJD@?$AAV?$AAa?$AAl@ ; ATL::szValToken
CONST	ENDS
;	COMDAT ?szForceRemove@ATL@@3QEB_WEB
CONST	SEGMENT
?szForceRemove@ATL@@3QEB_WEB DQ FLAT:??_C@_1BI@JFAIJMHL@?$AAF?$AAo?$AAr?$AAc?$AAe?$AAR?$AAe?$AAm?$AAo?$AAv?$AAe@ ; ATL::szForceRemove
CONST	ENDS
;	COMDAT ?szNoRemove@ATL@@3QEB_WEB
CONST	SEGMENT
?szNoRemove@ATL@@3QEB_WEB DQ FLAT:??_C@_1BC@GCKHIPE@?$AAN?$AAo?$AAR?$AAe?$AAm?$AAo?$AAv?$AAe@ ; ATL::szNoRemove
CONST	ENDS
;	COMDAT ?szDelete@ATL@@3QEB_WEB
CONST	SEGMENT
?szDelete@ATL@@3QEB_WEB DQ FLAT:??_C@_1O@JDLOHAN@?$AAD?$AAe?$AAl?$AAe?$AAt?$AAe@ ; ATL::szDelete
CONST	ENDS
;	COMDAT ??_7CWin32Heap@ATL@@6B@
CONST	SEGMENT
??_7CWin32Heap@ATL@@6B@ DQ FLAT:??_R4CWin32Heap@ATL@@6B@ ; ATL::CWin32Heap::`vftable'
	DQ	FLAT:?Allocate@CWin32Heap@ATL@@UEAAPEAX_K@Z
	DQ	FLAT:?Free@CWin32Heap@ATL@@UEAAXPEAX@Z
	DQ	FLAT:?Reallocate@CWin32Heap@ATL@@UEAAPEAXPEAX_K@Z
	DQ	FLAT:?GetSize@CWin32Heap@ATL@@UEAA_KPEAX@Z
	DQ	FLAT:??_ECWin32Heap@ATL@@UEAAPEAXI@Z
CONST	ENDS
;	COMDAT ??_7CAtlStringMgr@ATL@@6B@
CONST	SEGMENT
??_7CAtlStringMgr@ATL@@6B@ DQ FLAT:??_R4CAtlStringMgr@ATL@@6B@ ; ATL::CAtlStringMgr::`vftable'
	DQ	FLAT:?Allocate@CAtlStringMgr@ATL@@UEAAPEAUCStringData@2@HH@Z
	DQ	FLAT:?Free@CAtlStringMgr@ATL@@UEAAXPEAUCStringData@2@@Z
	DQ	FLAT:?Reallocate@CAtlStringMgr@ATL@@UEAAPEAUCStringData@2@PEAU32@HH@Z
	DQ	FLAT:?GetNilString@CAtlStringMgr@ATL@@UEAAPEAUCStringData@2@XZ
	DQ	FLAT:?Clone@CAtlStringMgr@ATL@@UEAAPEAUIAtlStringMgr@2@XZ
	DQ	FLAT:??_ECAtlStringMgr@ATL@@UEAAPEAXI@Z
CONST	ENDS
;	COMDAT ??_7?$_LaunchPad@V?$unique_ptr@V?$tuple@P8Benchmark@@EAAHXZPEAV1@@std@@U?$default_delete@V?$tuple@P8Benchmark@@EAAHXZPEAV1@@std@@@2@@std@@@std@@6B@
CONST	SEGMENT
??_7?$_LaunchPad@V?$unique_ptr@V?$tuple@P8Benchmark@@EAAHXZPEAV1@@std@@U?$default_delete@V?$tuple@P8Benchmark@@EAAHXZPEAV1@@std@@@2@@std@@@std@@6B@ DQ FLAT:??_R4?$_LaunchPad@V?$unique_ptr@V?$tuple@P8Benchmark@@EAAHXZPEAV1@@std@@U?$default_delete@V?$tuple@P8Benchmark@@EAAHXZPEAV1@@std@@@2@@std@@@std@@6B@ ; std::_LaunchPad<std::unique_ptr<std::tuple<int (__cdecl Benchmark::*)(void),Benchmark *>,std::default_delete<std::tuple<int (__cdecl Benchmark::*)(void),Benchmark *> > > >::`vftable'
	DQ	FLAT:?_Go@?$_LaunchPad@V?$unique_ptr@V?$tuple@P8Benchmark@@EAAHXZPEAV1@@std@@U?$default_delete@V?$tuple@P8Benchmark@@EAAHXZPEAV1@@std@@@2@@std@@@std@@UEAAXXZ
CONST	ENDS
;	COMDAT ??_7?$_LaunchPad@V?$unique_ptr@V?$tuple@P8Benchmark@@EAAHHH@ZPEAV1@HH@std@@U?$default_delete@V?$tuple@P8Benchmark@@EAAHHH@ZPEAV1@HH@std@@@2@@std@@@std@@6B@
CONST	SEGMENT
??_7?$_LaunchPad@V?$unique_ptr@V?$tuple@P8Benchmark@@EAAHHH@ZPEAV1@HH@std@@U?$default_delete@V?$tuple@P8Benchmark@@EAAHHH@ZPEAV1@HH@std@@@2@@std@@@std@@6B@ DQ FLAT:??_R4?$_LaunchPad@V?$unique_ptr@V?$tuple@P8Benchmark@@EAAHHH@ZPEAV1@HH@std@@U?$default_delete@V?$tuple@P8Benchmark@@EAAHHH@ZPEAV1@HH@std@@@2@@std@@@std@@6B@ ; std::_LaunchPad<std::unique_ptr<std::tuple<int (__cdecl Benchmark::*)(int,int),Benchmark *,int,int>,std::default_delete<std::tuple<int (__cdecl Benchmark::*)(int,int),Benchmark *,int,int> > > >::`vftable'
	DQ	FLAT:?_Go@?$_LaunchPad@V?$unique_ptr@V?$tuple@P8Benchmark@@EAAHHH@ZPEAV1@HH@std@@U?$default_delete@V?$tuple@P8Benchmark@@EAAHHH@ZPEAV1@HH@std@@@2@@std@@@std@@UEAAXXZ
CONST	ENDS
;	COMDAT ??_R4CWin32Heap@ATL@@6B@
rdata$r	SEGMENT
??_R4CWin32Heap@ATL@@6B@ DD 01H				; ATL::CWin32Heap::`RTTI Complete Object Locator'
	DD	00H
	DD	00H
	DD	imagerel ??_R0?AVCWin32Heap@ATL@@@8
	DD	imagerel ??_R3CWin32Heap@ATL@@8
	DD	imagerel ??_R4CWin32Heap@ATL@@6B@
rdata$r	ENDS
;	COMDAT ??_R4CAtlStringMgr@ATL@@6B@
rdata$r	SEGMENT
??_R4CAtlStringMgr@ATL@@6B@ DD 01H			; ATL::CAtlStringMgr::`RTTI Complete Object Locator'
	DD	00H
	DD	00H
	DD	imagerel ??_R0?AVCAtlStringMgr@ATL@@@8
	DD	imagerel ??_R3CAtlStringMgr@ATL@@8
	DD	imagerel ??_R4CAtlStringMgr@ATL@@6B@
rdata$r	ENDS
;	COMDAT ??_R4?$_LaunchPad@V?$unique_ptr@V?$tuple@P8Benchmark@@EAAHXZPEAV1@@std@@U?$default_delete@V?$tuple@P8Benchmark@@EAAHXZPEAV1@@std@@@2@@std@@@std@@6B@
rdata$r	SEGMENT
??_R4?$_LaunchPad@V?$unique_ptr@V?$tuple@P8Benchmark@@EAAHXZPEAV1@@std@@U?$default_delete@V?$tuple@P8Benchmark@@EAAHXZPEAV1@@std@@@2@@std@@@std@@6B@ DD 01H ; std::_LaunchPad<std::unique_ptr<std::tuple<int (__cdecl Benchmark::*)(void),Benchmark *>,std::default_delete<std::tuple<int (__cdecl Benchmark::*)(void),Benchmark *> > > >::`RTTI Complete Object Locator'
	DD	00H
	DD	00H
	DD	imagerel ??_R0?AV?$_LaunchPad@V?$unique_ptr@V?$tuple@P8Benchmark@@EAAHXZPEAV1@@std@@U?$default_delete@V?$tuple@P8Benchmark@@EAAHXZPEAV1@@std@@@2@@std@@@std@@@8
	DD	imagerel ??_R3?$_LaunchPad@V?$unique_ptr@V?$tuple@P8Benchmark@@EAAHXZPEAV1@@std@@U?$default_delete@V?$tuple@P8Benchmark@@EAAHXZPEAV1@@std@@@2@@std@@@std@@8
	DD	imagerel ??_R4?$_LaunchPad@V?$unique_ptr@V?$tuple@P8Benchmark@@EAAHXZPEAV1@@std@@U?$default_delete@V?$tuple@P8Benchmark@@EAAHXZPEAV1@@std@@@2@@std@@@std@@6B@
rdata$r	ENDS
;	COMDAT ??_R4?$_LaunchPad@V?$unique_ptr@V?$tuple@P8Benchmark@@EAAHHH@ZPEAV1@HH@std@@U?$default_delete@V?$tuple@P8Benchmark@@EAAHHH@ZPEAV1@HH@std@@@2@@std@@@std@@6B@
rdata$r	SEGMENT
??_R4?$_LaunchPad@V?$unique_ptr@V?$tuple@P8Benchmark@@EAAHHH@ZPEAV1@HH@std@@U?$default_delete@V?$tuple@P8Benchmark@@EAAHHH@ZPEAV1@HH@std@@@2@@std@@@std@@6B@ DD 01H ; std::_LaunchPad<std::unique_ptr<std::tuple<int (__cdecl Benchmark::*)(int,int),Benchmark *,int,int>,std::default_delete<std::tuple<int (__cdecl Benchmark::*)(int,int),Benchmark *,int,int> > > >::`RTTI Complete Object Locator'
	DD	00H
	DD	00H
	DD	imagerel ??_R0?AV?$_LaunchPad@V?$unique_ptr@V?$tuple@P8Benchmark@@EAAHHH@ZPEAV1@HH@std@@U?$default_delete@V?$tuple@P8Benchmark@@EAAHHH@ZPEAV1@HH@std@@@2@@std@@@std@@@8
	DD	imagerel ??_R3?$_LaunchPad@V?$unique_ptr@V?$tuple@P8Benchmark@@EAAHHH@ZPEAV1@HH@std@@U?$default_delete@V?$tuple@P8Benchmark@@EAAHHH@ZPEAV1@HH@std@@@2@@std@@@std@@8
	DD	imagerel ??_R4?$_LaunchPad@V?$unique_ptr@V?$tuple@P8Benchmark@@EAAHHH@ZPEAV1@HH@std@@U?$default_delete@V?$tuple@P8Benchmark@@EAAHHH@ZPEAV1@HH@std@@@2@@std@@@std@@6B@
rdata$r	ENDS
;	COMDAT ??_R0?AVCWin32Heap@ATL@@@8
data$r	SEGMENT
??_R0?AVCWin32Heap@ATL@@@8 DQ FLAT:??_7type_info@@6B@	; ATL::CWin32Heap `RTTI Type Descriptor'
	DQ	0000000000000000H
	DB	'.?AVCWin32Heap@ATL@@', 00H
data$r	ENDS
;	COMDAT ??_R3CWin32Heap@ATL@@8
rdata$r	SEGMENT
??_R3CWin32Heap@ATL@@8 DD 00H				; ATL::CWin32Heap::`RTTI Class Hierarchy Descriptor'
	DD	00H
	DD	02H
	DD	imagerel ??_R2CWin32Heap@ATL@@8
rdata$r	ENDS
;	COMDAT ??_R0?AUIAtlMemMgr@ATL@@@8
data$r	SEGMENT
??_R0?AUIAtlMemMgr@ATL@@@8 DQ FLAT:??_7type_info@@6B@	; ATL::IAtlMemMgr `RTTI Type Descriptor'
	DQ	0000000000000000H
	DB	'.?AUIAtlMemMgr@ATL@@', 00H
data$r	ENDS
;	COMDAT ??_R3IAtlMemMgr@ATL@@8
rdata$r	SEGMENT
??_R3IAtlMemMgr@ATL@@8 DD 00H				; ATL::IAtlMemMgr::`RTTI Class Hierarchy Descriptor'
	DD	00H
	DD	01H
	DD	imagerel ??_R2IAtlMemMgr@ATL@@8
rdata$r	ENDS
;	COMDAT ??_R0?AUIAtlStringMgr@ATL@@@8
data$r	SEGMENT
??_R0?AUIAtlStringMgr@ATL@@@8 DQ FLAT:??_7type_info@@6B@ ; ATL::IAtlStringMgr `RTTI Type Descriptor'
	DQ	0000000000000000H
	DB	'.?AUIAtlStringMgr@ATL@@', 00H
data$r	ENDS
;	COMDAT ??_R3IAtlStringMgr@ATL@@8
rdata$r	SEGMENT
??_R3IAtlStringMgr@ATL@@8 DD 00H			; ATL::IAtlStringMgr::`RTTI Class Hierarchy Descriptor'
	DD	00H
	DD	01H
	DD	imagerel ??_R2IAtlStringMgr@ATL@@8
rdata$r	ENDS
;	COMDAT ??_R0?AVCAtlStringMgr@ATL@@@8
data$r	SEGMENT
??_R0?AVCAtlStringMgr@ATL@@@8 DQ FLAT:??_7type_info@@6B@ ; ATL::CAtlStringMgr `RTTI Type Descriptor'
	DQ	0000000000000000H
	DB	'.?AVCAtlStringMgr@ATL@@', 00H
data$r	ENDS
;	COMDAT ??_R3CAtlStringMgr@ATL@@8
rdata$r	SEGMENT
??_R3CAtlStringMgr@ATL@@8 DD 00H			; ATL::CAtlStringMgr::`RTTI Class Hierarchy Descriptor'
	DD	00H
	DD	02H
	DD	imagerel ??_R2CAtlStringMgr@ATL@@8
rdata$r	ENDS
;	COMDAT ??_R0?AV_Pad@std@@@8
data$r	SEGMENT
??_R0?AV_Pad@std@@@8 DQ FLAT:??_7type_info@@6B@		; std::_Pad `RTTI Type Descriptor'
	DQ	0000000000000000H
	DB	'.?AV_Pad@std@@', 00H
data$r	ENDS
;	COMDAT ??_R3_Pad@std@@8
rdata$r	SEGMENT
??_R3_Pad@std@@8 DD 00H					; std::_Pad::`RTTI Class Hierarchy Descriptor'
	DD	00H
	DD	01H
	DD	imagerel ??_R2_Pad@std@@8
rdata$r	ENDS
;	COMDAT ??_R0?AV?$_LaunchPad@V?$unique_ptr@V?$tuple@P8Benchmark@@EAAHXZPEAV1@@std@@U?$default_delete@V?$tuple@P8Benchmark@@EAAHXZPEAV1@@std@@@2@@std@@@std@@@8
data$r	SEGMENT
??_R0?AV?$_LaunchPad@V?$unique_ptr@V?$tuple@P8Benchmark@@EAAHXZPEAV1@@std@@U?$default_delete@V?$tuple@P8Benchmark@@EAAHXZPEAV1@@std@@@2@@std@@@std@@@8 DQ FLAT:??_7type_info@@6B@ ; std::_LaunchPad<std::unique_ptr<std::tuple<int (__cdecl Benchmark::*)(void),Benchmark *>,std::default_delete<std::tuple<int (__cdecl Benchmark::*)(void),Benchmark *> > > > `RTTI Type Descriptor'
	DQ	0000000000000000H
	DB	'.?AV?$_LaunchPad@V?$unique_ptr@V?$tuple@P8Benchmark@@EAA'
	DB	'HXZPEAV1@@std@@U?$default_delete@V?$tuple@P8Benchmark@@EAAHXZ'
	DB	'PEAV1@@std@@@2@@std@@@std@@', 00H
data$r	ENDS
;	COMDAT ??_R3?$_LaunchPad@V?$unique_ptr@V?$tuple@P8Benchmark@@EAAHXZPEAV1@@std@@U?$default_delete@V?$tuple@P8Benchmark@@EAAHXZPEAV1@@std@@@2@@std@@@std@@8
rdata$r	SEGMENT
??_R3?$_LaunchPad@V?$unique_ptr@V?$tuple@P8Benchmark@@EAAHXZPEAV1@@std@@U?$default_delete@V?$tuple@P8Benchmark@@EAAHXZPEAV1@@std@@@2@@std@@@std@@8 DD 00H ; std::_LaunchPad<std::unique_ptr<std::tuple<int (__cdecl Benchmark::*)(void),Benchmark *>,std::default_delete<std::tuple<int (__cdecl Benchmark::*)(void),Benchmark *> > > >::`RTTI Class Hierarchy Descriptor'
	DD	00H
	DD	02H
	DD	imagerel ??_R2?$_LaunchPad@V?$unique_ptr@V?$tuple@P8Benchmark@@EAAHXZPEAV1@@std@@U?$default_delete@V?$tuple@P8Benchmark@@EAAHXZPEAV1@@std@@@2@@std@@@std@@8
rdata$r	ENDS
;	COMDAT ??_R0?AV?$_LaunchPad@V?$unique_ptr@V?$tuple@P8Benchmark@@EAAHHH@ZPEAV1@HH@std@@U?$default_delete@V?$tuple@P8Benchmark@@EAAHHH@ZPEAV1@HH@std@@@2@@std@@@std@@@8
data$r	SEGMENT
??_R0?AV?$_LaunchPad@V?$unique_ptr@V?$tuple@P8Benchmark@@EAAHHH@ZPEAV1@HH@std@@U?$default_delete@V?$tuple@P8Benchmark@@EAAHHH@ZPEAV1@HH@std@@@2@@std@@@std@@@8 DQ FLAT:??_7type_info@@6B@ ; std::_LaunchPad<std::unique_ptr<std::tuple<int (__cdecl Benchmark::*)(int,int),Benchmark *,int,int>,std::default_delete<std::tuple<int (__cdecl Benchmark::*)(int,int),Benchmark *,int,int> > > > `RTTI Type Descriptor'
	DQ	0000000000000000H
	DB	'.?AV?$_LaunchPad@V?$unique_ptr@V?$tuple@P8Benchmark@@EAA'
	DB	'HHH@ZPEAV1@HH@std@@U?$default_delete@V?$tuple@P8Benchmark@@EA'
	DB	'AHHH@ZPEAV1@HH@std@@@2@@std@@@std@@', 00H
data$r	ENDS
;	COMDAT ??_R3?$_LaunchPad@V?$unique_ptr@V?$tuple@P8Benchmark@@EAAHHH@ZPEAV1@HH@std@@U?$default_delete@V?$tuple@P8Benchmark@@EAAHHH@ZPEAV1@HH@std@@@2@@std@@@std@@8
rdata$r	SEGMENT
??_R3?$_LaunchPad@V?$unique_ptr@V?$tuple@P8Benchmark@@EAAHHH@ZPEAV1@HH@std@@U?$default_delete@V?$tuple@P8Benchmark@@EAAHHH@ZPEAV1@HH@std@@@2@@std@@@std@@8 DD 00H ; std::_LaunchPad<std::unique_ptr<std::tuple<int (__cdecl Benchmark::*)(int,int),Benchmark *,int,int>,std::default_delete<std::tuple<int (__cdecl Benchmark::*)(int,int),Benchmark *,int,int> > > >::`RTTI Class Hierarchy Descriptor'
	DD	00H
	DD	02H
	DD	imagerel ??_R2?$_LaunchPad@V?$unique_ptr@V?$tuple@P8Benchmark@@EAAHHH@ZPEAV1@HH@std@@U?$default_delete@V?$tuple@P8Benchmark@@EAAHHH@ZPEAV1@HH@std@@@2@@std@@@std@@8
rdata$r	ENDS
;	COMDAT ??_R1A@?0A@EA@IAtlMemMgr@ATL@@8
rdata$r	SEGMENT
??_R1A@?0A@EA@IAtlMemMgr@ATL@@8 DD imagerel ??_R0?AUIAtlMemMgr@ATL@@@8 ; ATL::IAtlMemMgr::`RTTI Base Class Descriptor at (0,-1,0,64)'
	DD	00H
	DD	00H
	DD	0ffffffffH
	DD	00H
	DD	040H
	DD	imagerel ??_R3IAtlMemMgr@ATL@@8
rdata$r	ENDS
;	COMDAT ??_R1A@?0A@EA@CWin32Heap@ATL@@8
rdata$r	SEGMENT
??_R1A@?0A@EA@CWin32Heap@ATL@@8 DD imagerel ??_R0?AVCWin32Heap@ATL@@@8 ; ATL::CWin32Heap::`RTTI Base Class Descriptor at (0,-1,0,64)'
	DD	01H
	DD	00H
	DD	0ffffffffH
	DD	00H
	DD	040H
	DD	imagerel ??_R3CWin32Heap@ATL@@8
rdata$r	ENDS
;	COMDAT ??_R1A@?0A@EA@IAtlStringMgr@ATL@@8
rdata$r	SEGMENT
??_R1A@?0A@EA@IAtlStringMgr@ATL@@8 DD imagerel ??_R0?AUIAtlStringMgr@ATL@@@8 ; ATL::IAtlStringMgr::`RTTI Base Class Descriptor at (0,-1,0,64)'
	DD	00H
	DD	00H
	DD	0ffffffffH
	DD	00H
	DD	040H
	DD	imagerel ??_R3IAtlStringMgr@ATL@@8
rdata$r	ENDS
;	COMDAT ??_R1A@?0A@EA@CAtlStringMgr@ATL@@8
rdata$r	SEGMENT
??_R1A@?0A@EA@CAtlStringMgr@ATL@@8 DD imagerel ??_R0?AVCAtlStringMgr@ATL@@@8 ; ATL::CAtlStringMgr::`RTTI Base Class Descriptor at (0,-1,0,64)'
	DD	01H
	DD	00H
	DD	0ffffffffH
	DD	00H
	DD	040H
	DD	imagerel ??_R3CAtlStringMgr@ATL@@8
rdata$r	ENDS
;	COMDAT ??_R1A@?0A@EA@_Pad@std@@8
rdata$r	SEGMENT
??_R1A@?0A@EA@_Pad@std@@8 DD imagerel ??_R0?AV_Pad@std@@@8 ; std::_Pad::`RTTI Base Class Descriptor at (0,-1,0,64)'
	DD	00H
	DD	00H
	DD	0ffffffffH
	DD	00H
	DD	040H
	DD	imagerel ??_R3_Pad@std@@8
rdata$r	ENDS
;	COMDAT ??_R1A@?0A@EA@?$_LaunchPad@V?$unique_ptr@V?$tuple@P8Benchmark@@EAAHXZPEAV1@@std@@U?$default_delete@V?$tuple@P8Benchmark@@EAAHXZPEAV1@@std@@@2@@std@@@std@@8
rdata$r	SEGMENT
??_R1A@?0A@EA@?$_LaunchPad@V?$unique_ptr@V?$tuple@P8Benchmark@@EAAHXZPEAV1@@std@@U?$default_delete@V?$tuple@P8Benchmark@@EAAHXZPEAV1@@std@@@2@@std@@@std@@8 DD imagerel ??_R0?AV?$_LaunchPad@V?$unique_ptr@V?$tuple@P8Benchmark@@EAAHXZPEAV1@@std@@U?$default_delete@V?$tuple@P8Benchmark@@EAAHXZPEAV1@@std@@@2@@std@@@std@@@8 ; std::_LaunchPad<std::unique_ptr<std::tuple<int (__cdecl Benchmark::*)(void),Benchmark *>,std::default_delete<std::tuple<int (__cdecl Benchmark::*)(void),Benchmark *> > > >::`RTTI Base Class Descriptor at (0,-1,0,64)'
	DD	01H
	DD	00H
	DD	0ffffffffH
	DD	00H
	DD	040H
	DD	imagerel ??_R3?$_LaunchPad@V?$unique_ptr@V?$tuple@P8Benchmark@@EAAHXZPEAV1@@std@@U?$default_delete@V?$tuple@P8Benchmark@@EAAHXZPEAV1@@std@@@2@@std@@@std@@8
rdata$r	ENDS
;	COMDAT ??_R1A@?0A@EA@?$_LaunchPad@V?$unique_ptr@V?$tuple@P8Benchmark@@EAAHHH@ZPEAV1@HH@std@@U?$default_delete@V?$tuple@P8Benchmark@@EAAHHH@ZPEAV1@HH@std@@@2@@std@@@std@@8
rdata$r	SEGMENT
??_R1A@?0A@EA@?$_LaunchPad@V?$unique_ptr@V?$tuple@P8Benchmark@@EAAHHH@ZPEAV1@HH@std@@U?$default_delete@V?$tuple@P8Benchmark@@EAAHHH@ZPEAV1@HH@std@@@2@@std@@@std@@8 DD imagerel ??_R0?AV?$_LaunchPad@V?$unique_ptr@V?$tuple@P8Benchmark@@EAAHHH@ZPEAV1@HH@std@@U?$default_delete@V?$tuple@P8Benchmark@@EAAHHH@ZPEAV1@HH@std@@@2@@std@@@std@@@8 ; std::_LaunchPad<std::unique_ptr<std::tuple<int (__cdecl Benchmark::*)(int,int),Benchmark *,int,int>,std::default_delete<std::tuple<int (__cdecl Benchmark::*)(int,int),Benchmark *,int,int> > > >::`RTTI Base Class Descriptor at (0,-1,0,64)'
	DD	01H
	DD	00H
	DD	0ffffffffH
	DD	00H
	DD	040H
	DD	imagerel ??_R3?$_LaunchPad@V?$unique_ptr@V?$tuple@P8Benchmark@@EAAHHH@ZPEAV1@HH@std@@U?$default_delete@V?$tuple@P8Benchmark@@EAAHHH@ZPEAV1@HH@std@@@2@@std@@@std@@8
rdata$r	ENDS
;	COMDAT ??_R2IAtlMemMgr@ATL@@8
rdata$r	SEGMENT
??_R2IAtlMemMgr@ATL@@8 DD imagerel ??_R1A@?0A@EA@IAtlMemMgr@ATL@@8 ; ATL::IAtlMemMgr::`RTTI Base Class Array'
	ORG $+3
rdata$r	ENDS
;	COMDAT ??_R2CWin32Heap@ATL@@8
rdata$r	SEGMENT
??_R2CWin32Heap@ATL@@8 DD imagerel ??_R1A@?0A@EA@CWin32Heap@ATL@@8 ; ATL::CWin32Heap::`RTTI Base Class Array'
	DD	imagerel ??_R1A@?0A@EA@IAtlMemMgr@ATL@@8
	ORG $+3
rdata$r	ENDS
;	COMDAT ??_R2IAtlStringMgr@ATL@@8
rdata$r	SEGMENT
??_R2IAtlStringMgr@ATL@@8 DD imagerel ??_R1A@?0A@EA@IAtlStringMgr@ATL@@8 ; ATL::IAtlStringMgr::`RTTI Base Class Array'
	ORG $+3
rdata$r	ENDS
;	COMDAT ??_R2CAtlStringMgr@ATL@@8
rdata$r	SEGMENT
??_R2CAtlStringMgr@ATL@@8 DD imagerel ??_R1A@?0A@EA@CAtlStringMgr@ATL@@8 ; ATL::CAtlStringMgr::`RTTI Base Class Array'
	DD	imagerel ??_R1A@?0A@EA@IAtlStringMgr@ATL@@8
	ORG $+3
rdata$r	ENDS
;	COMDAT ??_R2_Pad@std@@8
rdata$r	SEGMENT
??_R2_Pad@std@@8 DD imagerel ??_R1A@?0A@EA@_Pad@std@@8	; std::_Pad::`RTTI Base Class Array'
	ORG $+3
rdata$r	ENDS
;	COMDAT ??_R2?$_LaunchPad@V?$unique_ptr@V?$tuple@P8Benchmark@@EAAHXZPEAV1@@std@@U?$default_delete@V?$tuple@P8Benchmark@@EAAHXZPEAV1@@std@@@2@@std@@@std@@8
rdata$r	SEGMENT
??_R2?$_LaunchPad@V?$unique_ptr@V?$tuple@P8Benchmark@@EAAHXZPEAV1@@std@@U?$default_delete@V?$tuple@P8Benchmark@@EAAHXZPEAV1@@std@@@2@@std@@@std@@8 DD imagerel ??_R1A@?0A@EA@?$_LaunchPad@V?$unique_ptr@V?$tuple@P8Benchmark@@EAAHXZPEAV1@@std@@U?$default_delete@V?$tuple@P8Benchmark@@EAAHXZPEAV1@@std@@@2@@std@@@std@@8 ; std::_LaunchPad<std::unique_ptr<std::tuple<int (__cdecl Benchmark::*)(void),Benchmark *>,std::default_delete<std::tuple<int (__cdecl Benchmark::*)(void),Benchmark *> > > >::`RTTI Base Class Array'
	DD	imagerel ??_R1A@?0A@EA@_Pad@std@@8
	ORG $+3
rdata$r	ENDS
;	COMDAT ??_R2?$_LaunchPad@V?$unique_ptr@V?$tuple@P8Benchmark@@EAAHHH@ZPEAV1@HH@std@@U?$default_delete@V?$tuple@P8Benchmark@@EAAHHH@ZPEAV1@HH@std@@@2@@std@@@std@@8
rdata$r	SEGMENT
??_R2?$_LaunchPad@V?$unique_ptr@V?$tuple@P8Benchmark@@EAAHHH@ZPEAV1@HH@std@@U?$default_delete@V?$tuple@P8Benchmark@@EAAHHH@ZPEAV1@HH@std@@@2@@std@@@std@@8 DD imagerel ??_R1A@?0A@EA@?$_LaunchPad@V?$unique_ptr@V?$tuple@P8Benchmark@@EAAHHH@ZPEAV1@HH@std@@U?$default_delete@V?$tuple@P8Benchmark@@EAAHHH@ZPEAV1@HH@std@@@2@@std@@@std@@8 ; std::_LaunchPad<std::unique_ptr<std::tuple<int (__cdecl Benchmark::*)(int,int),Benchmark *,int,int>,std::default_delete<std::tuple<int (__cdecl Benchmark::*)(int,int),Benchmark *,int,int> > > >::`RTTI Base Class Array'
	DD	imagerel ??_R1A@?0A@EA@_Pad@std@@8
	ORG $+3
rdata$r	ENDS
;	COMDAT ??_C@_19DICJPJO@?$AAT?$AAE?$AAS?$AAT@
CONST	SEGMENT
??_C@_19DICJPJO@?$AAT?$AAE?$AAS?$AAT@ DB 'T', 00H, 'E', 00H, 'S', 00H, 'T'
	DB	00H, 00H, 00H				; `string'
CONST	ENDS
;	COMDAT ??_C@_15KNBIKKIN@?$AA?$CF?$AAd@
CONST	SEGMENT
??_C@_15KNBIKKIN@?$AA?$CF?$AAd@ DB '%', 00H, 'd', 00H, 00H, 00H ; `string'
CONST	ENDS
;	COMDAT ??_C@_1O@ELLBDENI@?$AAS?$AAT?$AAA?$AAT?$AAI?$AAC@
CONST	SEGMENT
??_C@_1O@ELLBDENI@?$AAS?$AAT?$AAA?$AAT?$AAI?$AAC@ DB 'S', 00H, 'T', 00H, 'A'
	DB	00H, 'T', 00H, 'I', 00H, 'C', 00H, 00H, 00H	; `string'
CONST	ENDS
;	COMDAT ??_C@_1CE@OLELPDNA@?$AAR?$AAu?$AAn?$AAn?$AAi?$AAn?$AAg?$AA?5?$AAB?$AAe?$AAn?$AAc?$AAh?$AAm?$AAa@
CONST	SEGMENT
??_C@_1CE@OLELPDNA@?$AAR?$AAu?$AAn?$AAn?$AAi?$AAn?$AAg?$AA?5?$AAB?$AAe?$AAn?$AAc?$AAh?$AAm?$AAa@ DB 'R'
	DB	00H, 'u', 00H, 'n', 00H, 'n', 00H, 'i', 00H, 'n', 00H, 'g', 00H
	DB	' ', 00H, 'B', 00H, 'e', 00H, 'n', 00H, 'c', 00H, 'h', 00H, 'm'
	DB	00H, 'a', 00H, 'r', 00H, 'k', 00H, 00H, 00H	; `string'
CONST	ENDS
;	COMDAT ??_C@_1O@JDLOHAN@?$AAD?$AAe?$AAl?$AAe?$AAt?$AAe@
CONST	SEGMENT
??_C@_1O@JDLOHAN@?$AAD?$AAe?$AAl?$AAe?$AAt?$AAe@ DB 'D', 00H, 'e', 00H, 'l'
	DB	00H, 'e', 00H, 't', 00H, 'e', 00H, 00H, 00H	; `string'
CONST	ENDS
;	COMDAT ??_C@_1BC@GCKHIPE@?$AAN?$AAo?$AAR?$AAe?$AAm?$AAo?$AAv?$AAe@
CONST	SEGMENT
??_C@_1BC@GCKHIPE@?$AAN?$AAo?$AAR?$AAe?$AAm?$AAo?$AAv?$AAe@ DB 'N', 00H, 'o'
	DB	00H, 'R', 00H, 'e', 00H, 'm', 00H, 'o', 00H, 'v', 00H, 'e', 00H
	DB	00H, 00H					; `string'
CONST	ENDS
;	COMDAT ??_C@_1BI@JFAIJMHL@?$AAF?$AAo?$AAr?$AAc?$AAe?$AAR?$AAe?$AAm?$AAo?$AAv?$AAe@
CONST	SEGMENT
??_C@_1BI@JFAIJMHL@?$AAF?$AAo?$AAr?$AAc?$AAe?$AAR?$AAe?$AAm?$AAo?$AAv?$AAe@ DB 'F'
	DB	00H, 'o', 00H, 'r', 00H, 'c', 00H, 'e', 00H, 'R', 00H, 'e', 00H
	DB	'm', 00H, 'o', 00H, 'v', 00H, 'e', 00H, 00H, 00H ; `string'
CONST	ENDS
;	COMDAT ??_C@_17LLMMEOJD@?$AAV?$AAa?$AAl@
CONST	SEGMENT
??_C@_17LLMMEOJD@?$AAV?$AAa?$AAl@ DB 'V', 00H, 'a', 00H, 'l', 00H, 00H, 00H ; `string'
CONST	ENDS
;	COMDAT ??_C@_13OPKGLAFF@?$AAB@
CONST	SEGMENT
??_C@_13OPKGLAFF@?$AAB@ DB 'B', 00H, 00H, 00H		; `string'
CONST	ENDS
;	COMDAT ??_C@_13MKMNOPIJ@?$AAD@
CONST	SEGMENT
??_C@_13MKMNOPIJ@?$AAD@ DB 'D', 00H, 00H, 00H		; `string'
CONST	ENDS
;	COMDAT ??_C@_13LHMFKAAD@?$AAM@
CONST	SEGMENT
??_C@_13LHMFKAAD@?$AAM@ DB 'M', 00H, 00H, 00H		; `string'
CONST	ENDS
;	COMDAT ??_C@_13HADIAKP@?$AAS@
CONST	SEGMENT
??_C@_13HADIAKP@?$AAS@ DB 'S', 00H, 00H, 00H		; `string'
CONST	ENDS
;	COMDAT ??_C@_1BM@FHAEDBFK@?$AAa?$AAt?$AAl?$AAT?$AAr?$AAa?$AAc?$AAe?$AAI?$AAS?$AAA?$AAP?$AAI@
CONST	SEGMENT
??_C@_1BM@FHAEDBFK@?$AAa?$AAt?$AAl?$AAT?$AAr?$AAa?$AAc?$AAe?$AAI?$AAS?$AAA?$AAP?$AAI@ DB 'a'
	DB	00H, 't', 00H, 'l', 00H, 'T', 00H, 'r', 00H, 'a', 00H, 'c', 00H
	DB	'e', 00H, 'I', 00H, 'S', 00H, 'A', 00H, 'P', 00H, 'I', 00H, 00H
	DB	00H						; `string'
CONST	ENDS
;	COMDAT ??_C@_1BK@OPAPOCAL@?$AAa?$AAt?$AAl?$AAT?$AAr?$AAa?$AAc?$AAe?$AAS?$AAy?$AAn?$AAc@
CONST	SEGMENT
??_C@_1BK@OPAPOCAL@?$AAa?$AAt?$AAl?$AAT?$AAr?$AAa?$AAc?$AAe?$AAS?$AAy?$AAn?$AAc@ DB 'a'
	DB	00H, 't', 00H, 'l', 00H, 'T', 00H, 'r', 00H, 'a', 00H, 'c', 00H
	DB	'e', 00H, 'S', 00H, 'y', 00H, 'n', 00H, 'c', 00H, 00H, 00H ; `string'
CONST	ENDS
;	COMDAT ??_C@_1CC@DMMBNCFG@?$AAa?$AAt?$AAl?$AAT?$AAr?$AAa?$AAc?$AAe?$AAS?$AAe?$AAc?$AAu?$AAr?$AAi?$AAt@
CONST	SEGMENT
??_C@_1CC@DMMBNCFG@?$AAa?$AAt?$AAl?$AAT?$AAr?$AAa?$AAc?$AAe?$AAS?$AAe?$AAc?$AAu?$AAr?$AAi?$AAt@ DB 'a'
	DB	00H, 't', 00H, 'l', 00H, 'T', 00H, 'r', 00H, 'a', 00H, 'c', 00H
	DB	'e', 00H, 'S', 00H, 'e', 00H, 'c', 00H, 'u', 00H, 'r', 00H, 'i'
	DB	00H, 't', 00H, 'y', 00H, 00H, 00H		; `string'
CONST	ENDS
;	COMDAT ??_C@_1BK@DMHCKHHD@?$AAa?$AAt?$AAl?$AAT?$AAr?$AAa?$AAc?$AAe?$AAU?$AAt?$AAi?$AAl@
CONST	SEGMENT
??_C@_1BK@DMHCKHHD@?$AAa?$AAt?$AAl?$AAT?$AAr?$AAa?$AAc?$AAe?$AAU?$AAt?$AAi?$AAl@ DB 'a'
	DB	00H, 't', 00H, 'l', 00H, 'T', 00H, 'r', 00H, 'a', 00H, 'c', 00H
	DB	'e', 00H, 'U', 00H, 't', 00H, 'i', 00H, 'l', 00H, 00H, 00H ; `string'
CONST	ENDS
;	COMDAT ??_C@_1BI@OKDLCIEM@?$AAa?$AAt?$AAl?$AAT?$AAr?$AAa?$AAc?$AAe?$AAM?$AAa?$AAp@
CONST	SEGMENT
??_C@_1BI@OKDLCIEM@?$AAa?$AAt?$AAl?$AAT?$AAr?$AAa?$AAc?$AAe?$AAM?$AAa?$AAp@ DB 'a'
	DB	00H, 't', 00H, 'l', 00H, 'T', 00H, 'r', 00H, 'a', 00H, 'c', 00H
	DB	'e', 00H, 'M', 00H, 'a', 00H, 'p', 00H, 00H, 00H ; `string'
CONST	ENDS
;	COMDAT ??_C@_1BO@GMLILNDJ@?$AAa?$AAt?$AAl?$AAT?$AAr?$AAa?$AAc?$AAe?$AAS?$AAt?$AAr?$AAi?$AAn?$AAg@
CONST	SEGMENT
??_C@_1BO@GMLILNDJ@?$AAa?$AAt?$AAl?$AAT?$AAr?$AAa?$AAc?$AAe?$AAS?$AAt?$AAr?$AAi?$AAn?$AAg@ DB 'a'
	DB	00H, 't', 00H, 'l', 00H, 'T', 00H, 'r', 00H, 'a', 00H, 'c', 00H
	DB	'e', 00H, 'S', 00H, 't', 00H, 'r', 00H, 'i', 00H, 'n', 00H, 'g'
	DB	00H, 00H, 00H				; `string'
CONST	ENDS
;	COMDAT ??_C@_1CA@PBPHANCD@?$AAa?$AAt?$AAl?$AAT?$AAr?$AAa?$AAc?$AAe?$AAS?$AAt?$AAe?$AAn?$AAc?$AAi?$AAl@
CONST	SEGMENT
??_C@_1CA@PBPHANCD@?$AAa?$AAt?$AAl?$AAT?$AAr?$AAa?$AAc?$AAe?$AAS?$AAt?$AAe?$AAn?$AAc?$AAi?$AAl@ DB 'a'
	DB	00H, 't', 00H, 'l', 00H, 'T', 00H, 'r', 00H, 'a', 00H, 'c', 00H
	DB	'e', 00H, 'S', 00H, 't', 00H, 'e', 00H, 'n', 00H, 'c', 00H, 'i'
	DB	00H, 'l', 00H, 00H, 00H			; `string'
CONST	ENDS
;	COMDAT ??_C@_1BM@GIKLHLFD@?$AAa?$AAt?$AAl?$AAT?$AAr?$AAa?$AAc?$AAe?$AAC?$AAa?$AAc?$AAh?$AAe@
CONST	SEGMENT
??_C@_1BM@GIKLHLFD@?$AAa?$AAt?$AAl?$AAT?$AAr?$AAa?$AAc?$AAe?$AAC?$AAa?$AAc?$AAh?$AAe@ DB 'a'
	DB	00H, 't', 00H, 'l', 00H, 'T', 00H, 'r', 00H, 'a', 00H, 'c', 00H
	DB	'e', 00H, 'C', 00H, 'a', 00H, 'c', 00H, 'h', 00H, 'e', 00H, 00H
	DB	00H						; `string'
CONST	ENDS
;	COMDAT ??_C@_1BK@NCJHOFCL@?$AAa?$AAt?$AAl?$AAT?$AAr?$AAa?$AAc?$AAe?$AAT?$AAi?$AAm?$AAe@
CONST	SEGMENT
??_C@_1BK@NCJHOFCL@?$AAa?$AAt?$AAl?$AAT?$AAr?$AAa?$AAc?$AAe?$AAT?$AAi?$AAm?$AAe@ DB 'a'
	DB	00H, 't', 00H, 'l', 00H, 'T', 00H, 'r', 00H, 'a', 00H, 'c', 00H
	DB	'e', 00H, 'T', 00H, 'i', 00H, 'm', 00H, 'e', 00H, 00H, 00H ; `string'
CONST	ENDS
;	COMDAT ??_C@_1CE@IMMADNAP@?$AAa?$AAt?$AAl?$AAT?$AAr?$AAa?$AAc?$AAe?$AAE?$AAx?$AAc?$AAe?$AAp?$AAt?$AAi@
CONST	SEGMENT
??_C@_1CE@IMMADNAP@?$AAa?$AAt?$AAl?$AAT?$AAr?$AAa?$AAc?$AAe?$AAE?$AAx?$AAc?$AAe?$AAp?$AAt?$AAi@ DB 'a'
	DB	00H, 't', 00H, 'l', 00H, 'T', 00H, 'r', 00H, 'a', 00H, 'c', 00H
	DB	'e', 00H, 'E', 00H, 'x', 00H, 'c', 00H, 'e', 00H, 'p', 00H, 't'
	DB	00H, 'i', 00H, 'o', 00H, 'n', 00H, 00H, 00H	; `string'
CONST	ENDS
;	COMDAT ??_C@_1CG@KFEEMCDH@?$AAa?$AAt?$AAl?$AAT?$AAr?$AAa?$AAc?$AAe?$AAA?$AAl?$AAl?$AAo?$AAc?$AAa?$AAt@
CONST	SEGMENT
??_C@_1CG@KFEEMCDH@?$AAa?$AAt?$AAl?$AAT?$AAr?$AAa?$AAc?$AAe?$AAA?$AAl?$AAl?$AAo?$AAc?$AAa?$AAt@ DB 'a'
	DB	00H, 't', 00H, 'l', 00H, 'T', 00H, 'r', 00H, 'a', 00H, 'c', 00H
	DB	'e', 00H, 'A', 00H, 'l', 00H, 'l', 00H, 'o', 00H, 'c', 00H, 'a'
	DB	00H, 't', 00H, 'i', 00H, 'o', 00H, 'n', 00H, 00H, 00H ; `string'
CONST	ENDS
;	COMDAT ??_C@_1CA@DMHPIODO@?$AAa?$AAt?$AAl?$AAT?$AAr?$AAa?$AAc?$AAe?$AAN?$AAo?$AAt?$AAI?$AAm?$AAp?$AAl@
CONST	SEGMENT
??_C@_1CA@DMHPIODO@?$AAa?$AAt?$AAl?$AAT?$AAr?$AAa?$AAc?$AAe?$AAN?$AAo?$AAt?$AAI?$AAm?$AAp?$AAl@ DB 'a'
	DB	00H, 't', 00H, 'l', 00H, 'T', 00H, 'r', 00H, 'a', 00H, 'c', 00H
	DB	'e', 00H, 'N', 00H, 'o', 00H, 't', 00H, 'I', 00H, 'm', 00H, 'p'
	DB	00H, 'l', 00H, 00H, 00H			; `string'
CONST	ENDS
;	COMDAT ??_C@_1BO@EFPHNHHN@?$AAa?$AAt?$AAl?$AAT?$AAr?$AAa?$AAc?$AAe?$AAS?$AAn?$AAa?$AAp?$AAi?$AAn@
CONST	SEGMENT
??_C@_1BO@EFPHNHHN@?$AAa?$AAt?$AAl?$AAT?$AAr?$AAa?$AAc?$AAe?$AAS?$AAn?$AAa?$AAp?$AAi?$AAn@ DB 'a'
	DB	00H, 't', 00H, 'l', 00H, 'T', 00H, 'r', 00H, 'a', 00H, 'c', 00H
	DB	'e', 00H, 'S', 00H, 'n', 00H, 'a', 00H, 'p', 00H, 'i', 00H, 'n'
	DB	00H, 00H, 00H				; `string'
CONST	ENDS
;	COMDAT ??_C@_1CG@MNMMIOOI@?$AAa?$AAt?$AAl?$AAT?$AAr?$AAa?$AAc?$AAe?$AAD?$AAB?$AAP?$AAr?$AAo?$AAv?$AAi@
CONST	SEGMENT
??_C@_1CG@MNMMIOOI@?$AAa?$AAt?$AAl?$AAT?$AAr?$AAa?$AAc?$AAe?$AAD?$AAB?$AAP?$AAr?$AAo?$AAv?$AAi@ DB 'a'
	DB	00H, 't', 00H, 'l', 00H, 'T', 00H, 'r', 00H, 'a', 00H, 'c', 00H
	DB	'e', 00H, 'D', 00H, 'B', 00H, 'P', 00H, 'r', 00H, 'o', 00H, 'v'
	DB	00H, 'i', 00H, 'd', 00H, 'e', 00H, 'r', 00H, 00H, 00H ; `string'
CONST	ENDS
;	COMDAT ??_C@_1CC@JNJJDOOH@?$AAa?$AAt?$AAl?$AAT?$AAr?$AAa?$AAc?$AAe?$AAD?$AAB?$AAC?$AAl?$AAi?$AAe?$AAn@
CONST	SEGMENT
??_C@_1CC@JNJJDOOH@?$AAa?$AAt?$AAl?$AAT?$AAr?$AAa?$AAc?$AAe?$AAD?$AAB?$AAC?$AAl?$AAi?$AAe?$AAn@ DB 'a'
	DB	00H, 't', 00H, 'l', 00H, 'T', 00H, 'r', 00H, 'a', 00H, 'c', 00H
	DB	'e', 00H, 'D', 00H, 'B', 00H, 'C', 00H, 'l', 00H, 'i', 00H, 'e'
	DB	00H, 'n', 00H, 't', 00H, 00H, 00H		; `string'
CONST	ENDS
;	COMDAT ??_C@_1CA@OMOMONMN@?$AAa?$AAt?$AAl?$AAT?$AAr?$AAa?$AAc?$AAe?$AAH?$AAo?$AAs?$AAt?$AAi?$AAn?$AAg@
CONST	SEGMENT
??_C@_1CA@OMOMONMN@?$AAa?$AAt?$AAl?$AAT?$AAr?$AAa?$AAc?$AAe?$AAH?$AAo?$AAs?$AAt?$AAi?$AAn?$AAg@ DB 'a'
	DB	00H, 't', 00H, 'l', 00H, 'T', 00H, 'r', 00H, 'a', 00H, 'c', 00H
	DB	'e', 00H, 'H', 00H, 'o', 00H, 's', 00H, 't', 00H, 'i', 00H, 'n'
	DB	00H, 'g', 00H, 00H, 00H			; `string'
CONST	ENDS
;	COMDAT ??_C@_1CC@IMNJGBED@?$AAa?$AAt?$AAl?$AAT?$AAr?$AAa?$AAc?$AAe?$AAC?$AAo?$AAn?$AAt?$AAr?$AAo?$AAl@
CONST	SEGMENT
??_C@_1CC@IMNJGBED@?$AAa?$AAt?$AAl?$AAT?$AAr?$AAa?$AAc?$AAe?$AAC?$AAo?$AAn?$AAt?$AAr?$AAo?$AAl@ DB 'a'
	DB	00H, 't', 00H, 'l', 00H, 'T', 00H, 'r', 00H, 'a', 00H, 'c', 00H
	DB	'e', 00H, 'C', 00H, 'o', 00H, 'n', 00H, 't', 00H, 'r', 00H, 'o'
	DB	00H, 'l', 00H, 's', 00H, 00H, 00H		; `string'
CONST	ENDS
;	COMDAT ??_C@_1CE@NAJDPMNB@?$AAa?$AAt?$AAl?$AAT?$AAr?$AAa?$AAc?$AAe?$AAW?$AAi?$AAn?$AAd?$AAo?$AAw?$AAi@
CONST	SEGMENT
??_C@_1CE@NAJDPMNB@?$AAa?$AAt?$AAl?$AAT?$AAr?$AAa?$AAc?$AAe?$AAW?$AAi?$AAn?$AAd?$AAo?$AAw?$AAi@ DB 'a'
	DB	00H, 't', 00H, 'l', 00H, 'T', 00H, 'r', 00H, 'a', 00H, 'c', 00H
	DB	'e', 00H, 'W', 00H, 'i', 00H, 'n', 00H, 'd', 00H, 'o', 00H, 'w'
	DB	00H, 'i', 00H, 'n', 00H, 'g', 00H, 00H, 00H	; `string'
CONST	ENDS
;	COMDAT ??_C@_1CC@BNHGJFNK@?$AAa?$AAt?$AAl?$AAT?$AAr?$AAa?$AAc?$AAe?$AAR?$AAe?$AAf?$AAc?$AAo?$AAu?$AAn@
CONST	SEGMENT
??_C@_1CC@BNHGJFNK@?$AAa?$AAt?$AAl?$AAT?$AAr?$AAa?$AAc?$AAe?$AAR?$AAe?$AAf?$AAc?$AAo?$AAu?$AAn@ DB 'a'
	DB	00H, 't', 00H, 'l', 00H, 'T', 00H, 'r', 00H, 'a', 00H, 'c', 00H
	DB	'e', 00H, 'R', 00H, 'e', 00H, 'f', 00H, 'c', 00H, 'o', 00H, 'u'
	DB	00H, 'n', 00H, 't', 00H, 00H, 00H		; `string'
CONST	ENDS
;	COMDAT ??_C@_1CE@NIAEAIDK@?$AAa?$AAt?$AAl?$AAT?$AAr?$AAa?$AAc?$AAe?$AAR?$AAe?$AAg?$AAi?$AAs?$AAt?$AAr@
CONST	SEGMENT
??_C@_1CE@NIAEAIDK@?$AAa?$AAt?$AAl?$AAT?$AAr?$AAa?$AAc?$AAe?$AAR?$AAe?$AAg?$AAi?$AAs?$AAt?$AAr@ DB 'a'
	DB	00H, 't', 00H, 'l', 00H, 'T', 00H, 'r', 00H, 'a', 00H, 'c', 00H
	DB	'e', 00H, 'R', 00H, 'e', 00H, 'g', 00H, 'i', 00H, 's', 00H, 't'
	DB	00H, 'r', 00H, 'a', 00H, 'r', 00H, 00H, 00H	; `string'
CONST	ENDS
;	COMDAT ??_C@_1BG@FPLJJEMF@?$AAa?$AAt?$AAl?$AAT?$AAr?$AAa?$AAc?$AAe?$AAQ?$AAI@
CONST	SEGMENT
??_C@_1BG@FPLJJEMF@?$AAa?$AAt?$AAl?$AAT?$AAr?$AAa?$AAc?$AAe?$AAQ?$AAI@ DB 'a'
	DB	00H, 't', 00H, 'l', 00H, 'T', 00H, 'r', 00H, 'a', 00H, 'c', 00H
	DB	'e', 00H, 'Q', 00H, 'I', 00H, 00H, 00H	; `string'
CONST	ENDS
;	COMDAT ??_C@_1BI@MAFGHOEE@?$AAa?$AAt?$AAl?$AAT?$AAr?$AAa?$AAc?$AAe?$AAC?$AAO?$AAM@
CONST	SEGMENT
??_C@_1BI@MAFGHOEE@?$AAa?$AAt?$AAl?$AAT?$AAr?$AAa?$AAc?$AAe?$AAC?$AAO?$AAM@ DB 'a'
	DB	00H, 't', 00H, 'l', 00H, 'T', 00H, 'r', 00H, 'a', 00H, 'c', 00H
	DB	'e', 00H, 'C', 00H, 'O', 00H, 'M', 00H, 00H, 00H ; `string'
CONST	ENDS
;	COMDAT ??_C@_1CA@ONGMEOAB@?$AAa?$AAt?$AAl?$AAT?$AAr?$AAa?$AAc?$AAe?$AAG?$AAe?$AAn?$AAe?$AAr?$AAa?$AAl@
CONST	SEGMENT
??_C@_1CA@ONGMEOAB@?$AAa?$AAt?$AAl?$AAT?$AAr?$AAa?$AAc?$AAe?$AAG?$AAe?$AAn?$AAe?$AAr?$AAa?$AAl@ DB 'a'
	DB	00H, 't', 00H, 'l', 00H, 'T', 00H, 'r', 00H, 'a', 00H, 'c', 00H
	DB	'e', 00H, 'G', 00H, 'e', 00H, 'n', 00H, 'e', 00H, 'r', 00H, 'a'
	DB	00H, 'l', 00H, 00H, 00H			; `string'
CONST	ENDS
PUBLIC	__local_stdio_printf_options
PUBLIC	HRESULT_FROM_WIN32
PUBLIC	??$?0H@?$_Tuple_val@H@std@@QEAA@$$QEAH@Z	; std::_Tuple_val<int>::_Tuple_val<int><int>
PUBLIC	??$?0U_Exact_args_t@std@@H$$V$0A@@?$tuple@H@std@@QEAA@U_Exact_args_t@1@$$QEAH@Z ; std::tuple<int>::tuple<int><std::_Exact_args_t,int,0>
PUBLIC	??$?0U_Exact_args_t@std@@HH$0A@@?$tuple@HH@std@@QEAA@U_Exact_args_t@1@$$QEAH1@Z ; std::tuple<int,int>::tuple<int,int><std::_Exact_args_t,int,int,0>
PUBLIC	??$?0PEAVBenchmark@@@?$_Tuple_val@PEAVBenchmark@@@std@@QEAA@$$QEAPEAVBenchmark@@@Z ; std::_Tuple_val<Benchmark *>::_Tuple_val<Benchmark *><Benchmark *>
PUBLIC	??$?0U_Exact_args_t@std@@$0A@@?$tuple@$$V@std@@QEAA@U_Exact_args_t@1@@Z ; std::tuple<>::tuple<><std::_Exact_args_t,0>
PUBLIC	??$forward@AEAPEAV?$tuple@P8Benchmark@@EAAHXZPEAV1@@std@@@std@@YAAEAPEAV?$tuple@P8Benchmark@@EAAHXZPEAV1@@0@AEAPEAV10@@Z ; std::forward<std::tuple<int (__cdecl Benchmark::*)(void),Benchmark *> * &>
PUBLIC	??$forward@AEAPEAV?$tuple@P8Benchmark@@EAAHHH@ZPEAV1@HH@std@@@std@@YAAEAPEAV?$tuple@P8Benchmark@@EAAHHH@ZPEAV1@HH@0@AEAPEAV10@@Z ; std::forward<std::tuple<int (__cdecl Benchmark::*)(int,int),Benchmark *,int,int> * &>
PUBLIC	??$?0AEAPEAV?$tuple@P8Benchmark@@EAAHHH@ZPEAV1@HH@std@@@?$_Compressed_pair@U?$default_delete@V?$tuple@P8Benchmark@@EAAHHH@ZPEAV1@HH@std@@@std@@PEAV?$tuple@P8Benchmark@@EAAHHH@ZPEAV1@HH@2@$00@std@@QEAA@U_Zero_then_variadic_args_t@1@AEAPEAV?$tuple@P8Benchmark@@EAAHHH@ZPEAV1@HH@1@@Z ; std::_Compressed_pair<std::default_delete<std::tuple<int (__cdecl Benchmark::*)(int,int),Benchmark *,int,int> >,std::tuple<int (__cdecl Benchmark::*)(int,int),Benchmark *,int,int> *,1>::_Compressed_pair<std::default_delete<std::tuple<int (__cdecl Benchmark::*)(int,int),Benchmark *,int,int> >,std::tuple<int (__cdecl Benchmark::*)(int,int),Benchmark *,int,int> *,1><std::tuple<int (__cdecl Benchmark::*)(int,int),Benchmark *,int,int> * &>
PUBLIC	??$?0P8Benchmark@@EAAHHH@Z@?$_Tuple_val@P8Benchmark@@EAAHHH@Z@std@@QEAA@$$QEAP8Benchmark@@EAAHHH@Z@Z ; std::_Tuple_val<int (__cdecl Benchmark::*)(int,int)>::_Tuple_val<int (__cdecl Benchmark::*)(int,int)><int (__cdecl Benchmark::*)(int,int)>
PUBLIC	??$?0U_Exact_args_t@std@@PEAVBenchmark@@HH$0A@@?$tuple@PEAVBenchmark@@HH@std@@QEAA@U_Exact_args_t@1@$$QEAPEAVBenchmark@@$$QEAH2@Z ; std::tuple<Benchmark *,int,int>::tuple<Benchmark *,int,int><std::_Exact_args_t,Benchmark *,int,int,0>
PUBLIC	??$?0AEAPEAV?$tuple@P8Benchmark@@EAAHXZPEAV1@@std@@@?$_Compressed_pair@U?$default_delete@V?$tuple@P8Benchmark@@EAAHXZPEAV1@@std@@@std@@PEAV?$tuple@P8Benchmark@@EAAHXZPEAV1@@2@$00@std@@QEAA@U_Zero_then_variadic_args_t@1@AEAPEAV?$tuple@P8Benchmark@@EAAHXZPEAV1@@1@@Z ; std::_Compressed_pair<std::default_delete<std::tuple<int (__cdecl Benchmark::*)(void),Benchmark *> >,std::tuple<int (__cdecl Benchmark::*)(void),Benchmark *> *,1>::_Compressed_pair<std::default_delete<std::tuple<int (__cdecl Benchmark::*)(void),Benchmark *> >,std::tuple<int (__cdecl Benchmark::*)(void),Benchmark *> *,1><std::tuple<int (__cdecl Benchmark::*)(void),Benchmark *> * &>
PUBLIC	??$?0P8Benchmark@@EAAHXZ@?$_Tuple_val@P8Benchmark@@EAAHXZ@std@@QEAA@$$QEAP8Benchmark@@EAAHXZ@Z ; std::_Tuple_val<int (__cdecl Benchmark::*)(void)>::_Tuple_val<int (__cdecl Benchmark::*)(void)><int (__cdecl Benchmark::*)(void)>
PUBLIC	??$?0U_Exact_args_t@std@@PEAVBenchmark@@$$V$0A@@?$tuple@PEAVBenchmark@@@std@@QEAA@U_Exact_args_t@1@$$QEAPEAVBenchmark@@@Z ; std::tuple<Benchmark *>::tuple<Benchmark *><std::_Exact_args_t,Benchmark *,0>
PUBLIC	??$_Call@P8Benchmark@@EAAHXZPEAV1@$$V@_Invoker_pmf_pointer@std@@SAHP8Benchmark@@EAAHXZ$$QEAPEAV2@@Z ; std::_Invoker_pmf_pointer::_Call<int (__cdecl Benchmark::*)(void),Benchmark *>
PUBLIC	??$_Call@P8Benchmark@@EAAHHH@ZPEAV1@HH@_Invoker_pmf_pointer@std@@SAHP8Benchmark@@EAAHHH@Z$$QEAPEAV2@$$QEAH2@Z ; std::_Invoker_pmf_pointer::_Call<int (__cdecl Benchmark::*)(int,int),Benchmark *,int,int>
PUBLIC	??$?0U?$default_delete@V?$tuple@P8Benchmark@@EAAHXZPEAV1@@std@@@std@@AEAPEAV?$tuple@P8Benchmark@@EAAHXZPEAV1@@1@@?$_Compressed_pair@U?$default_delete@V?$tuple@P8Benchmark@@EAAHXZPEAV1@@std@@@std@@PEAV?$tuple@P8Benchmark@@EAAHXZPEAV1@@2@$00@std@@QEAA@U_One_then_variadic_args_t@1@$$QEAU?$default_delete@V?$tuple@P8Benchmark@@EAAHXZPEAV1@@std@@@1@AEAPEAV?$tuple@P8Benchmark@@EAAHXZPEAV1@@1@@Z ; std::_Compressed_pair<std::default_delete<std::tuple<int (__cdecl Benchmark::*)(void),Benchmark *> >,std::tuple<int (__cdecl Benchmark::*)(void),Benchmark *> *,1>::_Compressed_pair<std::default_delete<std::tuple<int (__cdecl Benchmark::*)(void),Benchmark *> >,std::tuple<int (__cdecl Benchmark::*)(void),Benchmark *> *,1><std::default_delete<std::tuple<int (__cdecl Benchmark::*)(void),Benchmark *> >,std::tuple<int (__cdecl Benchmark::*)(void),Benchmark *> * &>
PUBLIC	??$?0U?$default_delete@V?$tuple@P8Benchmark@@EAAHHH@ZPEAV1@HH@std@@@std@@AEAPEAV?$tuple@P8Benchmark@@EAAHHH@ZPEAV1@HH@1@@?$_Compressed_pair@U?$default_delete@V?$tuple@P8Benchmark@@EAAHHH@ZPEAV1@HH@std@@@std@@PEAV?$tuple@P8Benchmark@@EAAHHH@ZPEAV1@HH@2@$00@std@@QEAA@U_One_then_variadic_args_t@1@$$QEAU?$default_delete@V?$tuple@P8Benchmark@@EAAHHH@ZPEAV1@HH@std@@@1@AEAPEAV?$tuple@P8Benchmark@@EAAHHH@ZPEAV1@HH@1@@Z ; std::_Compressed_pair<std::default_delete<std::tuple<int (__cdecl Benchmark::*)(int,int),Benchmark *,int,int> >,std::tuple<int (__cdecl Benchmark::*)(int,int),Benchmark *,int,int> *,1>::_Compressed_pair<std::default_delete<std::tuple<int (__cdecl Benchmark::*)(int,int),Benchmark *,int,int> >,std::tuple<int (__cdecl Benchmark::*)(int,int),Benchmark *,int,int> *,1><std::default_delete<std::tuple<int (__cdecl Benchmark::*)(int,int),Benchmark *,int,int> >,std::tuple<int (__cdecl Benchmark::*)(int,int),Benchmark *,int,int> * &>
PUBLIC	??$invoke@P8Benchmark@@EAAHXZPEAV1@@std@@YAH$$QEAP8Benchmark@@EAAHXZ$$QEAPEAV1@@Z ; std::invoke<int (__cdecl Benchmark::*)(void),Benchmark *>
PUBLIC	??$get@$00P8Benchmark@@EAAHXZPEAV1@@std@@YAAEAPEAVBenchmark@@AEAV?$tuple@P8Benchmark@@EAAHXZPEAV1@@0@@Z ; std::get<1,int (__cdecl Benchmark::*)(void),Benchmark *>
PUBLIC	??$move@AEAP8Benchmark@@EAAHXZ@std@@YA$$QEAP8Benchmark@@EAAHXZAEAP81@EAAHXZ@Z ; std::move<int (__cdecl Benchmark::*&)(void)>
PUBLIC	??$get@$0A@P8Benchmark@@EAAHXZPEAV1@@std@@YAAEAP8Benchmark@@EAAHXZAEAV?$tuple@P8Benchmark@@EAAHXZPEAV1@@0@@Z ; std::get<0,int (__cdecl Benchmark::*)(void),Benchmark *>
PUBLIC	??$invoke@P8Benchmark@@EAAHHH@ZPEAV1@HH@std@@YAH$$QEAP8Benchmark@@EAAHHH@Z$$QEAPEAV1@$$QEAH2@Z ; std::invoke<int (__cdecl Benchmark::*)(int,int),Benchmark *,int,int>
PUBLIC	??$get@$02P8Benchmark@@EAAHHH@ZPEAV1@HH@std@@YAAEAHAEAV?$tuple@P8Benchmark@@EAAHHH@ZPEAV1@HH@0@@Z ; std::get<3,int (__cdecl Benchmark::*)(int,int),Benchmark *,int,int>
PUBLIC	??$get@$01P8Benchmark@@EAAHHH@ZPEAV1@HH@std@@YAAEAHAEAV?$tuple@P8Benchmark@@EAAHHH@ZPEAV1@HH@0@@Z ; std::get<2,int (__cdecl Benchmark::*)(int,int),Benchmark *,int,int>
PUBLIC	??$move@AEAPEAVBenchmark@@@std@@YA$$QEAPEAVBenchmark@@AEAPEAV1@@Z ; std::move<Benchmark * &>
PUBLIC	??$get@$00P8Benchmark@@EAAHHH@ZPEAV1@HH@std@@YAAEAPEAVBenchmark@@AEAV?$tuple@P8Benchmark@@EAAHHH@ZPEAV1@HH@0@@Z ; std::get<1,int (__cdecl Benchmark::*)(int,int),Benchmark *,int,int>
PUBLIC	??$move@AEAP8Benchmark@@EAAHHH@Z@std@@YA$$QEAP8Benchmark@@EAAHHH@ZAEAP81@EAAHHH@Z@Z ; std::move<int (__cdecl Benchmark::*&)(int,int)>
PUBLIC	??$get@$0A@P8Benchmark@@EAAHHH@ZPEAV1@HH@std@@YAAEAP8Benchmark@@EAAHHH@ZAEAV?$tuple@P8Benchmark@@EAAHHH@ZPEAV1@HH@0@@Z ; std::get<0,int (__cdecl Benchmark::*)(int,int),Benchmark *,int,int>
PUBLIC	??$?0PEAV?$tuple@P8Benchmark@@EAAHHH@ZPEAV1@HH@std@@@?$_Unique_ptr_base@V?$tuple@P8Benchmark@@EAAHHH@ZPEAV1@HH@std@@U?$default_delete@V?$tuple@P8Benchmark@@EAAHHH@ZPEAV1@HH@std@@@2@@std@@QEAA@PEAV?$tuple@P8Benchmark@@EAAHHH@ZPEAV1@HH@1@@Z ; std::_Unique_ptr_base<std::tuple<int (__cdecl Benchmark::*)(int,int),Benchmark *,int,int>,std::default_delete<std::tuple<int (__cdecl Benchmark::*)(int,int),Benchmark *,int,int> > >::_Unique_ptr_base<std::tuple<int (__cdecl Benchmark::*)(int,int),Benchmark *,int,int>,std::default_delete<std::tuple<int (__cdecl Benchmark::*)(int,int),Benchmark *,int,int> > ><std::tuple<int (__cdecl Benchmark::*)(int,int),Benchmark *,int,int> *>
PUBLIC	??$?0U_Exact_args_t@std@@P8Benchmark@@EAAHHH@ZPEAV2@HH$0A@@?$tuple@P8Benchmark@@EAAHHH@ZPEAV1@HH@std@@QEAA@U_Exact_args_t@1@$$QEAP8Benchmark@@EAAHHH@Z$$QEAPEAV3@$$QEAH3@Z ; std::tuple<int (__cdecl Benchmark::*)(int,int),Benchmark *,int,int>::tuple<int (__cdecl Benchmark::*)(int,int),Benchmark *,int,int><std::_Exact_args_t,int (__cdecl Benchmark::*)(int,int),Benchmark *,int,int,0>
PUBLIC	??$?0PEAV?$tuple@P8Benchmark@@EAAHXZPEAV1@@std@@@?$_Unique_ptr_base@V?$tuple@P8Benchmark@@EAAHXZPEAV1@@std@@U?$default_delete@V?$tuple@P8Benchmark@@EAAHXZPEAV1@@std@@@2@@std@@QEAA@PEAV?$tuple@P8Benchmark@@EAAHXZPEAV1@@1@@Z ; std::_Unique_ptr_base<std::tuple<int (__cdecl Benchmark::*)(void),Benchmark *>,std::default_delete<std::tuple<int (__cdecl Benchmark::*)(void),Benchmark *> > >::_Unique_ptr_base<std::tuple<int (__cdecl Benchmark::*)(void),Benchmark *>,std::default_delete<std::tuple<int (__cdecl Benchmark::*)(void),Benchmark *> > ><std::tuple<int (__cdecl Benchmark::*)(void),Benchmark *> *>
PUBLIC	??$?0U_Exact_args_t@std@@P8Benchmark@@EAAHXZPEAV2@$0A@@?$tuple@P8Benchmark@@EAAHXZPEAV1@@std@@QEAA@U_Exact_args_t@1@$$QEAP8Benchmark@@EAAHXZ$$QEAPEAV3@@Z ; std::tuple<int (__cdecl Benchmark::*)(void),Benchmark *>::tuple<int (__cdecl Benchmark::*)(void),Benchmark *><std::_Exact_args_t,int (__cdecl Benchmark::*)(void),Benchmark *,0>
PUBLIC	??$?0PEAV?$tuple@P8Benchmark@@EAAHXZPEAV1@@std@@U?$default_delete@V?$tuple@P8Benchmark@@EAAHXZPEAV1@@std@@@1@@?$_Unique_ptr_base@V?$tuple@P8Benchmark@@EAAHXZPEAV1@@std@@U?$default_delete@V?$tuple@P8Benchmark@@EAAHXZPEAV1@@std@@@2@@std@@QEAA@PEAV?$tuple@P8Benchmark@@EAAHXZPEAV1@@1@$$QEAU?$default_delete@V?$tuple@P8Benchmark@@EAAHXZPEAV1@@std@@@1@@Z ; std::_Unique_ptr_base<std::tuple<int (__cdecl Benchmark::*)(void),Benchmark *>,std::default_delete<std::tuple<int (__cdecl Benchmark::*)(void),Benchmark *> > >::_Unique_ptr_base<std::tuple<int (__cdecl Benchmark::*)(void),Benchmark *>,std::default_delete<std::tuple<int (__cdecl Benchmark::*)(void),Benchmark *> > ><std::tuple<int (__cdecl Benchmark::*)(void),Benchmark *> *,std::default_delete<std::tuple<int (__cdecl Benchmark::*)(void),Benchmark *> > >
PUBLIC	??$forward@U?$default_delete@V?$tuple@P8Benchmark@@EAAHXZPEAV1@@std@@@std@@@std@@YA$$QEAU?$default_delete@V?$tuple@P8Benchmark@@EAAHXZPEAV1@@std@@@0@AEAU10@@Z ; std::forward<std::default_delete<std::tuple<int (__cdecl Benchmark::*)(void),Benchmark *> > >
PUBLIC	??$?0PEAV?$tuple@P8Benchmark@@EAAHHH@ZPEAV1@HH@std@@U?$default_delete@V?$tuple@P8Benchmark@@EAAHHH@ZPEAV1@HH@std@@@1@@?$_Unique_ptr_base@V?$tuple@P8Benchmark@@EAAHHH@ZPEAV1@HH@std@@U?$default_delete@V?$tuple@P8Benchmark@@EAAHHH@ZPEAV1@HH@std@@@2@@std@@QEAA@PEAV?$tuple@P8Benchmark@@EAAHHH@ZPEAV1@HH@1@$$QEAU?$default_delete@V?$tuple@P8Benchmark@@EAAHHH@ZPEAV1@HH@std@@@1@@Z ; std::_Unique_ptr_base<std::tuple<int (__cdecl Benchmark::*)(int,int),Benchmark *,int,int>,std::default_delete<std::tuple<int (__cdecl Benchmark::*)(int,int),Benchmark *,int,int> > >::_Unique_ptr_base<std::tuple<int (__cdecl Benchmark::*)(int,int),Benchmark *,int,int>,std::default_delete<std::tuple<int (__cdecl Benchmark::*)(int,int),Benchmark *,int,int> > ><std::tuple<int (__cdecl Benchmark::*)(int,int),Benchmark *,int,int> *,std::default_delete<std::tuple<int (__cdecl Benchmark::*)(int,int),Benchmark *,int,int> > >
PUBLIC	??$forward@U?$default_delete@V?$tuple@P8Benchmark@@EAAHHH@ZPEAV1@HH@std@@@std@@@std@@YA$$QEAU?$default_delete@V?$tuple@P8Benchmark@@EAAHHH@ZPEAV1@HH@std@@@0@AEAU10@@Z ; std::forward<std::default_delete<std::tuple<int (__cdecl Benchmark::*)(int,int),Benchmark *,int,int> > >
PUBLIC	??$_Execute@$0A@$00@?$_LaunchPad@V?$unique_ptr@V?$tuple@P8Benchmark@@EAAHXZPEAV1@@std@@U?$default_delete@V?$tuple@P8Benchmark@@EAAHXZPEAV1@@std@@@2@@std@@@std@@CAXAEAV?$tuple@P8Benchmark@@EAAHXZPEAV1@@1@U?$integer_sequence@_K$0A@$00@1@@Z ; std::_LaunchPad<std::unique_ptr<std::tuple<int (__cdecl Benchmark::*)(void),Benchmark *>,std::default_delete<std::tuple<int (__cdecl Benchmark::*)(void),Benchmark *> > > >::_Execute<0,1>
PUBLIC	??$_Execute@$0A@$00$01$02@?$_LaunchPad@V?$unique_ptr@V?$tuple@P8Benchmark@@EAAHHH@ZPEAV1@HH@std@@U?$default_delete@V?$tuple@P8Benchmark@@EAAHHH@ZPEAV1@HH@std@@@2@@std@@@std@@CAXAEAV?$tuple@P8Benchmark@@EAAHHH@ZPEAV1@HH@1@U?$integer_sequence@_K$0A@$00$01$02@1@@Z ; std::_LaunchPad<std::unique_ptr<std::tuple<int (__cdecl Benchmark::*)(int,int),Benchmark *,int,int>,std::default_delete<std::tuple<int (__cdecl Benchmark::*)(int,int),Benchmark *,int,int> > > >::_Execute<0,1,2,3>
PUBLIC	??$?0V?$unique_ptr@V?$tuple@P8Benchmark@@EAAHHH@ZPEAV1@HH@std@@U?$default_delete@V?$tuple@P8Benchmark@@EAAHHH@ZPEAV1@HH@std@@@2@@std@@@?$_LaunchPad@V?$unique_ptr@V?$tuple@P8Benchmark@@EAAHHH@ZPEAV1@HH@std@@U?$default_delete@V?$tuple@P8Benchmark@@EAAHHH@ZPEAV1@HH@std@@@2@@std@@@std@@QEAA@$$QEAV?$unique_ptr@V?$tuple@P8Benchmark@@EAAHHH@ZPEAV1@HH@std@@U?$default_delete@V?$tuple@P8Benchmark@@EAAHHH@ZPEAV1@HH@std@@@2@@1@@Z ; std::_LaunchPad<std::unique_ptr<std::tuple<int (__cdecl Benchmark::*)(int,int),Benchmark *,int,int>,std::default_delete<std::tuple<int (__cdecl Benchmark::*)(int,int),Benchmark *,int,int> > > >::_LaunchPad<std::unique_ptr<std::tuple<int (__cdecl Benchmark::*)(int,int),Benchmark *,int,int>,std::default_delete<std::tuple<int (__cdecl Benchmark::*)(int,int),Benchmark *,int,int> > > ><std::unique_ptr<std::tuple<int (__cdecl Benchmark::*)(int,int),Benchmark *,int,int>,std::default_delete<std::tuple<int (__cdecl Benchmark::*)(int,int),Benchmark *,int,int> > > >
PUBLIC	??$forward@V?$unique_ptr@V?$tuple@P8Benchmark@@EAAHHH@ZPEAV1@HH@std@@U?$default_delete@V?$tuple@P8Benchmark@@EAAHHH@ZPEAV1@HH@std@@@2@@std@@@std@@YA$$QEAV?$unique_ptr@V?$tuple@P8Benchmark@@EAAHHH@ZPEAV1@HH@std@@U?$default_delete@V?$tuple@P8Benchmark@@EAAHHH@ZPEAV1@HH@std@@@2@@0@AEAV10@@Z ; std::forward<std::unique_ptr<std::tuple<int (__cdecl Benchmark::*)(int,int),Benchmark *,int,int>,std::default_delete<std::tuple<int (__cdecl Benchmark::*)(int,int),Benchmark *,int,int> > > >
PUBLIC	??$?0U?$default_delete@V?$tuple@P8Benchmark@@EAAHHH@ZPEAV1@HH@std@@@std@@$0A@@?$unique_ptr@V?$tuple@P8Benchmark@@EAAHHH@ZPEAV1@HH@std@@U?$default_delete@V?$tuple@P8Benchmark@@EAAHHH@ZPEAV1@HH@std@@@2@@std@@QEAA@PEAV?$tuple@P8Benchmark@@EAAHHH@ZPEAV1@HH@1@@Z ; std::unique_ptr<std::tuple<int (__cdecl Benchmark::*)(int,int),Benchmark *,int,int>,std::default_delete<std::tuple<int (__cdecl Benchmark::*)(int,int),Benchmark *,int,int> > >::unique_ptr<std::tuple<int (__cdecl Benchmark::*)(int,int),Benchmark *,int,int>,std::default_delete<std::tuple<int (__cdecl Benchmark::*)(int,int),Benchmark *,int,int> > ><std::default_delete<std::tuple<int (__cdecl Benchmark::*)(int,int),Benchmark *,int,int> >,0>
PUBLIC	??$?0P8Benchmark@@EAAHHH@ZPEAV0@HH$0A@@?$tuple@P8Benchmark@@EAAHHH@ZPEAV1@HH@std@@QEAA@$$QEAP8Benchmark@@EAAHHH@Z$$QEAPEAV2@$$QEAH2@Z ; std::tuple<int (__cdecl Benchmark::*)(int,int),Benchmark *,int,int>::tuple<int (__cdecl Benchmark::*)(int,int),Benchmark *,int,int><int (__cdecl Benchmark::*)(int,int),Benchmark *,int,int,0>
PUBLIC	??$?0V?$unique_ptr@V?$tuple@P8Benchmark@@EAAHXZPEAV1@@std@@U?$default_delete@V?$tuple@P8Benchmark@@EAAHXZPEAV1@@std@@@2@@std@@@?$_LaunchPad@V?$unique_ptr@V?$tuple@P8Benchmark@@EAAHXZPEAV1@@std@@U?$default_delete@V?$tuple@P8Benchmark@@EAAHXZPEAV1@@std@@@2@@std@@@std@@QEAA@$$QEAV?$unique_ptr@V?$tuple@P8Benchmark@@EAAHXZPEAV1@@std@@U?$default_delete@V?$tuple@P8Benchmark@@EAAHXZPEAV1@@std@@@2@@1@@Z ; std::_LaunchPad<std::unique_ptr<std::tuple<int (__cdecl Benchmark::*)(void),Benchmark *>,std::default_delete<std::tuple<int (__cdecl Benchmark::*)(void),Benchmark *> > > >::_LaunchPad<std::unique_ptr<std::tuple<int (__cdecl Benchmark::*)(void),Benchmark *>,std::default_delete<std::tuple<int (__cdecl Benchmark::*)(void),Benchmark *> > > ><std::unique_ptr<std::tuple<int (__cdecl Benchmark::*)(void),Benchmark *>,std::default_delete<std::tuple<int (__cdecl Benchmark::*)(void),Benchmark *> > > >
PUBLIC	??$forward@V?$unique_ptr@V?$tuple@P8Benchmark@@EAAHXZPEAV1@@std@@U?$default_delete@V?$tuple@P8Benchmark@@EAAHXZPEAV1@@std@@@2@@std@@@std@@YA$$QEAV?$unique_ptr@V?$tuple@P8Benchmark@@EAAHXZPEAV1@@std@@U?$default_delete@V?$tuple@P8Benchmark@@EAAHXZPEAV1@@std@@@2@@0@AEAV10@@Z ; std::forward<std::unique_ptr<std::tuple<int (__cdecl Benchmark::*)(void),Benchmark *>,std::default_delete<std::tuple<int (__cdecl Benchmark::*)(void),Benchmark *> > > >
PUBLIC	??$?0U?$default_delete@V?$tuple@P8Benchmark@@EAAHXZPEAV1@@std@@@std@@$0A@@?$unique_ptr@V?$tuple@P8Benchmark@@EAAHXZPEAV1@@std@@U?$default_delete@V?$tuple@P8Benchmark@@EAAHXZPEAV1@@std@@@2@@std@@QEAA@PEAV?$tuple@P8Benchmark@@EAAHXZPEAV1@@1@@Z ; std::unique_ptr<std::tuple<int (__cdecl Benchmark::*)(void),Benchmark *>,std::default_delete<std::tuple<int (__cdecl Benchmark::*)(void),Benchmark *> > >::unique_ptr<std::tuple<int (__cdecl Benchmark::*)(void),Benchmark *>,std::default_delete<std::tuple<int (__cdecl Benchmark::*)(void),Benchmark *> > ><std::default_delete<std::tuple<int (__cdecl Benchmark::*)(void),Benchmark *> >,0>
PUBLIC	??$?0P8Benchmark@@EAAHXZPEAV0@$0A@@?$tuple@P8Benchmark@@EAAHXZPEAV1@@std@@QEAA@$$QEAP8Benchmark@@EAAHXZ$$QEAPEAV2@@Z ; std::tuple<int (__cdecl Benchmark::*)(void),Benchmark *>::tuple<int (__cdecl Benchmark::*)(void),Benchmark *><int (__cdecl Benchmark::*)(void),Benchmark *,0>
PUBLIC	?_Get_second@?$_Compressed_pair@U?$default_delete@V?$tuple@P8Benchmark@@EAAHXZPEAV1@@std@@@std@@PEAV?$tuple@P8Benchmark@@EAAHXZPEAV1@@2@$00@std@@QEAAAEAPEAV?$tuple@P8Benchmark@@EAAHXZPEAV1@@2@XZ ; std::_Compressed_pair<std::default_delete<std::tuple<int (__cdecl Benchmark::*)(void),Benchmark *> >,std::tuple<int (__cdecl Benchmark::*)(void),Benchmark *> *,1>::_Get_second
PUBLIC	?_Get_second@?$_Compressed_pair@U?$default_delete@V?$tuple@P8Benchmark@@EAAHHH@ZPEAV1@HH@std@@@std@@PEAV?$tuple@P8Benchmark@@EAAHHH@ZPEAV1@HH@2@$00@std@@QEAAAEAPEAV?$tuple@P8Benchmark@@EAAHHH@ZPEAV1@HH@2@XZ ; std::_Compressed_pair<std::default_delete<std::tuple<int (__cdecl Benchmark::*)(int,int),Benchmark *,int,int> >,std::tuple<int (__cdecl Benchmark::*)(int,int),Benchmark *,int,int> *,1>::_Get_second
PUBLIC	?_Myptr@?$_Unique_ptr_base@V?$tuple@P8Benchmark@@EAAHXZPEAV1@@std@@U?$default_delete@V?$tuple@P8Benchmark@@EAAHXZPEAV1@@std@@@2@@std@@QEAAAEAPEAV?$tuple@P8Benchmark@@EAAHXZPEAV1@@2@XZ ; std::_Unique_ptr_base<std::tuple<int (__cdecl Benchmark::*)(void),Benchmark *>,std::default_delete<std::tuple<int (__cdecl Benchmark::*)(void),Benchmark *> > >::_Myptr
PUBLIC	?_Myptr@?$_Unique_ptr_base@V?$tuple@P8Benchmark@@EAAHHH@ZPEAV1@HH@std@@U?$default_delete@V?$tuple@P8Benchmark@@EAAHHH@ZPEAV1@HH@std@@@2@@std@@QEAAAEAPEAV?$tuple@P8Benchmark@@EAAHHH@ZPEAV1@HH@2@XZ ; std::_Unique_ptr_base<std::tuple<int (__cdecl Benchmark::*)(int,int),Benchmark *,int,int>,std::default_delete<std::tuple<int (__cdecl Benchmark::*)(int,int),Benchmark *,int,int> > >::_Myptr
PUBLIC	?release@?$unique_ptr@V?$tuple@P8Benchmark@@EAAHXZPEAV1@@std@@U?$default_delete@V?$tuple@P8Benchmark@@EAAHXZPEAV1@@std@@@2@@std@@QEAAPEAV?$tuple@P8Benchmark@@EAAHXZPEAV1@@2@XZ ; std::unique_ptr<std::tuple<int (__cdecl Benchmark::*)(void),Benchmark *>,std::default_delete<std::tuple<int (__cdecl Benchmark::*)(void),Benchmark *> > >::release
PUBLIC	?release@?$unique_ptr@V?$tuple@P8Benchmark@@EAAHHH@ZPEAV1@HH@std@@U?$default_delete@V?$tuple@P8Benchmark@@EAAHHH@ZPEAV1@HH@std@@@2@@std@@QEAAPEAV?$tuple@P8Benchmark@@EAAHHH@ZPEAV1@HH@2@XZ ; std::unique_ptr<std::tuple<int (__cdecl Benchmark::*)(int,int),Benchmark *,int,int>,std::default_delete<std::tuple<int (__cdecl Benchmark::*)(int,int),Benchmark *,int,int> > >::release
PUBLIC	??0?$unique_ptr@V?$tuple@P8Benchmark@@EAAHXZPEAV1@@std@@U?$default_delete@V?$tuple@P8Benchmark@@EAAHXZPEAV1@@std@@@2@@std@@QEAA@$$QEAV01@@Z ; std::unique_ptr<std::tuple<int (__cdecl Benchmark::*)(void),Benchmark *>,std::default_delete<std::tuple<int (__cdecl Benchmark::*)(void),Benchmark *> > >::unique_ptr<std::tuple<int (__cdecl Benchmark::*)(void),Benchmark *>,std::default_delete<std::tuple<int (__cdecl Benchmark::*)(void),Benchmark *> > >
PUBLIC	??D?$unique_ptr@V?$tuple@P8Benchmark@@EAAHXZPEAV1@@std@@U?$default_delete@V?$tuple@P8Benchmark@@EAAHXZPEAV1@@std@@@2@@std@@QEBAAEAV?$tuple@P8Benchmark@@EAAHXZPEAV1@@1@XZ ; std::unique_ptr<std::tuple<int (__cdecl Benchmark::*)(void),Benchmark *>,std::default_delete<std::tuple<int (__cdecl Benchmark::*)(void),Benchmark *> > >::operator*
PUBLIC	??0?$unique_ptr@V?$tuple@P8Benchmark@@EAAHHH@ZPEAV1@HH@std@@U?$default_delete@V?$tuple@P8Benchmark@@EAAHHH@ZPEAV1@HH@std@@@2@@std@@QEAA@$$QEAV01@@Z ; std::unique_ptr<std::tuple<int (__cdecl Benchmark::*)(int,int),Benchmark *,int,int>,std::default_delete<std::tuple<int (__cdecl Benchmark::*)(int,int),Benchmark *,int,int> > >::unique_ptr<std::tuple<int (__cdecl Benchmark::*)(int,int),Benchmark *,int,int>,std::default_delete<std::tuple<int (__cdecl Benchmark::*)(int,int),Benchmark *,int,int> > >
PUBLIC	??D?$unique_ptr@V?$tuple@P8Benchmark@@EAAHHH@ZPEAV1@HH@std@@U?$default_delete@V?$tuple@P8Benchmark@@EAAHHH@ZPEAV1@HH@std@@@2@@std@@QEBAAEAV?$tuple@P8Benchmark@@EAAHHH@ZPEAV1@HH@1@XZ ; std::unique_ptr<std::tuple<int (__cdecl Benchmark::*)(int,int),Benchmark *,int,int>,std::default_delete<std::tuple<int (__cdecl Benchmark::*)(int,int),Benchmark *,int,int> > >::operator*
PUBLIC	?__autoclassinit2@?$unique_ptr@V?$tuple@P8Benchmark@@EAAHXZPEAV1@@std@@U?$default_delete@V?$tuple@P8Benchmark@@EAAHXZPEAV1@@std@@@2@@std@@QEAAX_K@Z ; std::unique_ptr<std::tuple<int (__cdecl Benchmark::*)(void),Benchmark *>,std::default_delete<std::tuple<int (__cdecl Benchmark::*)(void),Benchmark *> > >::__autoclassinit2
PUBLIC	?__autoclassinit2@?$unique_ptr@V?$tuple@P8Benchmark@@EAAHHH@ZPEAV1@HH@std@@U?$default_delete@V?$tuple@P8Benchmark@@EAAHHH@ZPEAV1@HH@std@@@2@@std@@QEAAX_K@Z ; std::unique_ptr<std::tuple<int (__cdecl Benchmark::*)(int,int),Benchmark *,int,int>,std::default_delete<std::tuple<int (__cdecl Benchmark::*)(int,int),Benchmark *,int,int> > >::__autoclassinit2
PUBLIC	?_Run@?$_LaunchPad@V?$unique_ptr@V?$tuple@P8Benchmark@@EAAHXZPEAV1@@std@@U?$default_delete@V?$tuple@P8Benchmark@@EAAHXZPEAV1@@std@@@2@@std@@@std@@CAXPEAV12@@Z ; std::_LaunchPad<std::unique_ptr<std::tuple<int (__cdecl Benchmark::*)(void),Benchmark *>,std::default_delete<std::tuple<int (__cdecl Benchmark::*)(void),Benchmark *> > > >::_Run
PUBLIC	?_Run@?$_LaunchPad@V?$unique_ptr@V?$tuple@P8Benchmark@@EAAHHH@ZPEAV1@HH@std@@U?$default_delete@V?$tuple@P8Benchmark@@EAAHHH@ZPEAV1@HH@std@@@2@@std@@@std@@CAXPEAV12@@Z ; std::_LaunchPad<std::unique_ptr<std::tuple<int (__cdecl Benchmark::*)(int,int),Benchmark *,int,int>,std::default_delete<std::tuple<int (__cdecl Benchmark::*)(int,int),Benchmark *,int,int> > > >::_Run
PUBLIC	?_Go@?$_LaunchPad@V?$unique_ptr@V?$tuple@P8Benchmark@@EAAHXZPEAV1@@std@@U?$default_delete@V?$tuple@P8Benchmark@@EAAHXZPEAV1@@std@@@2@@std@@@std@@UEAAXXZ ; std::_LaunchPad<std::unique_ptr<std::tuple<int (__cdecl Benchmark::*)(void),Benchmark *>,std::default_delete<std::tuple<int (__cdecl Benchmark::*)(void),Benchmark *> > > >::_Go
PUBLIC	?_Go@?$_LaunchPad@V?$unique_ptr@V?$tuple@P8Benchmark@@EAAHHH@ZPEAV1@HH@std@@U?$default_delete@V?$tuple@P8Benchmark@@EAAHHH@ZPEAV1@HH@std@@@2@@std@@@std@@UEAAXXZ ; std::_LaunchPad<std::unique_ptr<std::tuple<int (__cdecl Benchmark::*)(int,int),Benchmark *,int,int>,std::default_delete<std::tuple<int (__cdecl Benchmark::*)(int,int),Benchmark *,int,int> > > >::_Go
PUBLIC	?__autoclassinit2@?$_LaunchPad@V?$unique_ptr@V?$tuple@P8Benchmark@@EAAHHH@ZPEAV1@HH@std@@U?$default_delete@V?$tuple@P8Benchmark@@EAAHHH@ZPEAV1@HH@std@@@2@@std@@@std@@QEAAX_K@Z ; std::_LaunchPad<std::unique_ptr<std::tuple<int (__cdecl Benchmark::*)(int,int),Benchmark *,int,int>,std::default_delete<std::tuple<int (__cdecl Benchmark::*)(int,int),Benchmark *,int,int> > > >::__autoclassinit2
PUBLIC	??1?$_LaunchPad@V?$unique_ptr@V?$tuple@P8Benchmark@@EAAHHH@ZPEAV1@HH@std@@U?$default_delete@V?$tuple@P8Benchmark@@EAAHHH@ZPEAV1@HH@std@@@2@@std@@@std@@QEAA@XZ ; std::_LaunchPad<std::unique_ptr<std::tuple<int (__cdecl Benchmark::*)(int,int),Benchmark *,int,int>,std::default_delete<std::tuple<int (__cdecl Benchmark::*)(int,int),Benchmark *,int,int> > > >::~_LaunchPad<std::unique_ptr<std::tuple<int (__cdecl Benchmark::*)(int,int),Benchmark *,int,int>,std::default_delete<std::tuple<int (__cdecl Benchmark::*)(int,int),Benchmark *,int,int> > > >
PUBLIC	?__autoclassinit2@?$_LaunchPad@V?$unique_ptr@V?$tuple@P8Benchmark@@EAAHXZPEAV1@@std@@U?$default_delete@V?$tuple@P8Benchmark@@EAAHXZPEAV1@@std@@@2@@std@@@std@@QEAAX_K@Z ; std::_LaunchPad<std::unique_ptr<std::tuple<int (__cdecl Benchmark::*)(void),Benchmark *>,std::default_delete<std::tuple<int (__cdecl Benchmark::*)(void),Benchmark *> > > >::__autoclassinit2
PUBLIC	??1?$_LaunchPad@V?$unique_ptr@V?$tuple@P8Benchmark@@EAAHXZPEAV1@@std@@U?$default_delete@V?$tuple@P8Benchmark@@EAAHXZPEAV1@@std@@@2@@std@@@std@@QEAA@XZ ; std::_LaunchPad<std::unique_ptr<std::tuple<int (__cdecl Benchmark::*)(void),Benchmark *>,std::default_delete<std::tuple<int (__cdecl Benchmark::*)(void),Benchmark *> > > >::~_LaunchPad<std::unique_ptr<std::tuple<int (__cdecl Benchmark::*)(void),Benchmark *>,std::default_delete<std::tuple<int (__cdecl Benchmark::*)(void),Benchmark *> > > >
PUBLIC	??$_Launch@V?$unique_ptr@V?$tuple@P8Benchmark@@EAAHHH@ZPEAV1@HH@std@@U?$default_delete@V?$tuple@P8Benchmark@@EAAHHH@ZPEAV1@HH@std@@@2@@std@@@std@@YAXPEAU_Thrd_imp_t@@$$QEAV?$unique_ptr@V?$tuple@P8Benchmark@@EAAHHH@ZPEAV1@HH@std@@U?$default_delete@V?$tuple@P8Benchmark@@EAAHHH@ZPEAV1@HH@std@@@2@@0@@Z ; std::_Launch<std::unique_ptr<std::tuple<int (__cdecl Benchmark::*)(int,int),Benchmark *,int,int>,std::default_delete<std::tuple<int (__cdecl Benchmark::*)(int,int),Benchmark *,int,int> > > >
PUBLIC	??$make_unique@V?$tuple@P8Benchmark@@EAAHHH@ZPEAV1@HH@std@@P8Benchmark@@EAAHHH@ZPEAV3@HH$0A@@std@@YA?AV?$unique_ptr@V?$tuple@P8Benchmark@@EAAHHH@ZPEAV1@HH@std@@U?$default_delete@V?$tuple@P8Benchmark@@EAAHHH@ZPEAV1@HH@std@@@2@@0@$$QEAP8Benchmark@@EAAHHH@Z$$QEAPEAV2@$$QEAH2@Z ; std::make_unique<std::tuple<int (__cdecl Benchmark::*)(int,int),Benchmark *,int,int>,int (__cdecl Benchmark::*)(int,int),Benchmark *,int,int,0>
PUBLIC	??$forward@H@std@@YA$$QEAHAEAH@Z		; std::forward<int>
PUBLIC	??$forward@P8Benchmark@@EAAHHH@Z@std@@YA$$QEAP8Benchmark@@EAAHHH@ZAEAP81@EAAHHH@Z@Z ; std::forward<int (__cdecl Benchmark::*)(int,int)>
PUBLIC	??$_Launch@V?$unique_ptr@V?$tuple@P8Benchmark@@EAAHXZPEAV1@@std@@U?$default_delete@V?$tuple@P8Benchmark@@EAAHXZPEAV1@@std@@@2@@std@@@std@@YAXPEAU_Thrd_imp_t@@$$QEAV?$unique_ptr@V?$tuple@P8Benchmark@@EAAHXZPEAV1@@std@@U?$default_delete@V?$tuple@P8Benchmark@@EAAHXZPEAV1@@std@@@2@@0@@Z ; std::_Launch<std::unique_ptr<std::tuple<int (__cdecl Benchmark::*)(void),Benchmark *>,std::default_delete<std::tuple<int (__cdecl Benchmark::*)(void),Benchmark *> > > >
PUBLIC	??$make_unique@V?$tuple@P8Benchmark@@EAAHXZPEAV1@@std@@P8Benchmark@@EAAHXZPEAV3@$0A@@std@@YA?AV?$unique_ptr@V?$tuple@P8Benchmark@@EAAHXZPEAV1@@std@@U?$default_delete@V?$tuple@P8Benchmark@@EAAHXZPEAV1@@std@@@2@@0@$$QEAP8Benchmark@@EAAHXZ$$QEAPEAV2@@Z ; std::make_unique<std::tuple<int (__cdecl Benchmark::*)(void),Benchmark *>,int (__cdecl Benchmark::*)(void),Benchmark *,0>
PUBLIC	??$forward@PEAVBenchmark@@@std@@YA$$QEAPEAVBenchmark@@AEAPEAV1@@Z ; std::forward<Benchmark *>
PUBLIC	??$forward@P8Benchmark@@EAAHXZ@std@@YA$$QEAP8Benchmark@@EAAHXZAEAP81@EAAHXZ@Z ; std::forward<int (__cdecl Benchmark::*)(void)>
PUBLIC	??$move@AEAH@std@@YA$$QEAHAEAH@Z		; std::move<int &>
PUBLIC	?CopyChars@?$CSimpleStringT@_W$0A@@ATL@@SAXPEA_W_KPEB_WH@Z ; ATL::CSimpleStringT<wchar_t,0>::CopyChars
PUBLIC	?ThrowMemoryException@?$CSimpleStringT@_W$0A@@ATL@@KAXXZ ; ATL::CSimpleStringT<wchar_t,0>::ThrowMemoryException
PUBLIC	?Fork@?$CSimpleStringT@_W$0A@@ATL@@AEAAXH@Z	; ATL::CSimpleStringT<wchar_t,0>::Fork
PUBLIC	?Reallocate@?$CSimpleStringT@_W$0A@@ATL@@AEAAXH@Z ; ATL::CSimpleStringT<wchar_t,0>::Reallocate
PUBLIC	?PrepareWrite2@?$CSimpleStringT@_W$0A@@ATL@@AEAAXH@Z ; ATL::CSimpleStringT<wchar_t,0>::PrepareWrite2
PUBLIC	?_Get_second@?$_Compressed_pair@U?$default_delete@V?$tuple@P8Benchmark@@EAAHXZPEAV1@@std@@@std@@PEAV?$tuple@P8Benchmark@@EAAHXZPEAV1@@2@$00@std@@QEBAAEBQEAV?$tuple@P8Benchmark@@EAAHXZPEAV1@@2@XZ ; std::_Compressed_pair<std::default_delete<std::tuple<int (__cdecl Benchmark::*)(void),Benchmark *> >,std::tuple<int (__cdecl Benchmark::*)(void),Benchmark *> *,1>::_Get_second
PUBLIC	?_Get_second@?$_Compressed_pair@U?$default_delete@V?$tuple@P8Benchmark@@EAAHHH@ZPEAV1@HH@std@@@std@@PEAV?$tuple@P8Benchmark@@EAAHHH@ZPEAV1@HH@2@$00@std@@QEBAAEBQEAV?$tuple@P8Benchmark@@EAAHHH@ZPEAV1@HH@2@XZ ; std::_Compressed_pair<std::default_delete<std::tuple<int (__cdecl Benchmark::*)(int,int),Benchmark *,int,int> >,std::tuple<int (__cdecl Benchmark::*)(int,int),Benchmark *,int,int> *,1>::_Get_second
PUBLIC	?PrepareWrite@?$CSimpleStringT@_W$0A@@ATL@@AEAAPEA_WH@Z ; ATL::CSimpleStringT<wchar_t,0>::PrepareWrite
PUBLIC	?SetLength@?$CSimpleStringT@_W$0A@@ATL@@AEAAXH@Z ; ATL::CSimpleStringT<wchar_t,0>::SetLength
PUBLIC	?_Myptr@?$_Unique_ptr_base@V?$tuple@P8Benchmark@@EAAHXZPEAV1@@std@@U?$default_delete@V?$tuple@P8Benchmark@@EAAHXZPEAV1@@std@@@2@@std@@QEBAAEBQEAV?$tuple@P8Benchmark@@EAAHXZPEAV1@@2@XZ ; std::_Unique_ptr_base<std::tuple<int (__cdecl Benchmark::*)(void),Benchmark *>,std::default_delete<std::tuple<int (__cdecl Benchmark::*)(void),Benchmark *> > >::_Myptr
PUBLIC	?_Get_first@?$_Compressed_pair@U?$default_delete@V?$tuple@P8Benchmark@@EAAHXZPEAV1@@std@@@std@@PEAV?$tuple@P8Benchmark@@EAAHXZPEAV1@@2@$00@std@@QEAAAEAU?$default_delete@V?$tuple@P8Benchmark@@EAAHXZPEAV1@@std@@@2@XZ ; std::_Compressed_pair<std::default_delete<std::tuple<int (__cdecl Benchmark::*)(void),Benchmark *> >,std::tuple<int (__cdecl Benchmark::*)(void),Benchmark *> *,1>::_Get_first
PUBLIC	?_Myptr@?$_Unique_ptr_base@V?$tuple@P8Benchmark@@EAAHHH@ZPEAV1@HH@std@@U?$default_delete@V?$tuple@P8Benchmark@@EAAHHH@ZPEAV1@HH@std@@@2@@std@@QEBAAEBQEAV?$tuple@P8Benchmark@@EAAHHH@ZPEAV1@HH@2@XZ ; std::_Unique_ptr_base<std::tuple<int (__cdecl Benchmark::*)(int,int),Benchmark *,int,int>,std::default_delete<std::tuple<int (__cdecl Benchmark::*)(int,int),Benchmark *,int,int> > >::_Myptr
PUBLIC	?_Get_first@?$_Compressed_pair@U?$default_delete@V?$tuple@P8Benchmark@@EAAHHH@ZPEAV1@HH@std@@@std@@PEAV?$tuple@P8Benchmark@@EAAHHH@ZPEAV1@HH@2@$00@std@@QEAAAEAU?$default_delete@V?$tuple@P8Benchmark@@EAAHHH@ZPEAV1@HH@std@@@2@XZ ; std::_Compressed_pair<std::default_delete<std::tuple<int (__cdecl Benchmark::*)(int,int),Benchmark *,int,int> >,std::tuple<int (__cdecl Benchmark::*)(int,int),Benchmark *,int,int> *,1>::_Get_first
PUBLIC	?GetBuffer@?$CSimpleStringT@_W$0A@@ATL@@QEAAPEA_WH@Z ; ATL::CSimpleStringT<wchar_t,0>::GetBuffer
PUBLIC	?ReleaseBufferSetLength@?$CSimpleStringT@_W$0A@@ATL@@QEAAXH@Z ; ATL::CSimpleStringT<wchar_t,0>::ReleaseBufferSetLength
PUBLIC	??R?$default_delete@V?$tuple@P8Benchmark@@EAAHXZPEAV1@@std@@@std@@QEBAXPEAV?$tuple@P8Benchmark@@EAAHXZPEAV1@@1@@Z ; std::default_delete<std::tuple<int (__cdecl Benchmark::*)(void),Benchmark *> >::operator()
PUBLIC	?get@?$unique_ptr@V?$tuple@P8Benchmark@@EAAHXZPEAV1@@std@@U?$default_delete@V?$tuple@P8Benchmark@@EAAHXZPEAV1@@std@@@2@@std@@QEBAPEAV?$tuple@P8Benchmark@@EAAHXZPEAV1@@2@XZ ; std::unique_ptr<std::tuple<int (__cdecl Benchmark::*)(void),Benchmark *>,std::default_delete<std::tuple<int (__cdecl Benchmark::*)(void),Benchmark *> > >::get
PUBLIC	?get_deleter@?$_Unique_ptr_base@V?$tuple@P8Benchmark@@EAAHXZPEAV1@@std@@U?$default_delete@V?$tuple@P8Benchmark@@EAAHXZPEAV1@@std@@@2@@std@@QEAAAEAU?$default_delete@V?$tuple@P8Benchmark@@EAAHXZPEAV1@@std@@@2@XZ ; std::_Unique_ptr_base<std::tuple<int (__cdecl Benchmark::*)(void),Benchmark *>,std::default_delete<std::tuple<int (__cdecl Benchmark::*)(void),Benchmark *> > >::get_deleter
PUBLIC	??R?$default_delete@V?$tuple@P8Benchmark@@EAAHHH@ZPEAV1@HH@std@@@std@@QEBAXPEAV?$tuple@P8Benchmark@@EAAHHH@ZPEAV1@HH@1@@Z ; std::default_delete<std::tuple<int (__cdecl Benchmark::*)(int,int),Benchmark *,int,int> >::operator()
PUBLIC	?get@?$unique_ptr@V?$tuple@P8Benchmark@@EAAHHH@ZPEAV1@HH@std@@U?$default_delete@V?$tuple@P8Benchmark@@EAAHHH@ZPEAV1@HH@std@@@2@@std@@QEBAPEAV?$tuple@P8Benchmark@@EAAHHH@ZPEAV1@HH@2@XZ ; std::unique_ptr<std::tuple<int (__cdecl Benchmark::*)(int,int),Benchmark *,int,int>,std::default_delete<std::tuple<int (__cdecl Benchmark::*)(int,int),Benchmark *,int,int> > >::get
PUBLIC	?get_deleter@?$_Unique_ptr_base@V?$tuple@P8Benchmark@@EAAHHH@ZPEAV1@HH@std@@U?$default_delete@V?$tuple@P8Benchmark@@EAAHHH@ZPEAV1@HH@std@@@2@@std@@QEAAAEAU?$default_delete@V?$tuple@P8Benchmark@@EAAHHH@ZPEAV1@HH@std@@@2@XZ ; std::_Unique_ptr_base<std::tuple<int (__cdecl Benchmark::*)(int,int),Benchmark *,int,int>,std::default_delete<std::tuple<int (__cdecl Benchmark::*)(int,int),Benchmark *,int,int> > >::get_deleter
PUBLIC	?FormatV@?$CStringT@_WV?$StrTraitATL@_WV?$ChTraitsCRT@_W@ATL@@@ATL@@@ATL@@QEAAXPEB_WPEAD@Z ; ATL::CStringT<wchar_t,ATL::StrTraitATL<wchar_t,ATL::ChTraitsCRT<wchar_t> > >::FormatV
PUBLIC	??1?$unique_ptr@V?$tuple@P8Benchmark@@EAAHXZPEAV1@@std@@U?$default_delete@V?$tuple@P8Benchmark@@EAAHXZPEAV1@@std@@@2@@std@@QEAA@XZ ; std::unique_ptr<std::tuple<int (__cdecl Benchmark::*)(void),Benchmark *>,std::default_delete<std::tuple<int (__cdecl Benchmark::*)(void),Benchmark *> > >::~unique_ptr<std::tuple<int (__cdecl Benchmark::*)(void),Benchmark *>,std::default_delete<std::tuple<int (__cdecl Benchmark::*)(void),Benchmark *> > >
PUBLIC	??1?$unique_ptr@V?$tuple@P8Benchmark@@EAAHHH@ZPEAV1@HH@std@@U?$default_delete@V?$tuple@P8Benchmark@@EAAHHH@ZPEAV1@HH@std@@@2@@std@@QEAA@XZ ; std::unique_ptr<std::tuple<int (__cdecl Benchmark::*)(int,int),Benchmark *,int,int>,std::default_delete<std::tuple<int (__cdecl Benchmark::*)(int,int),Benchmark *,int,int> > >::~unique_ptr<std::tuple<int (__cdecl Benchmark::*)(int,int),Benchmark *,int,int>,std::default_delete<std::tuple<int (__cdecl Benchmark::*)(int,int),Benchmark *,int,int> > >
PUBLIC	??$sqrt@HX@@YANH@Z				; sqrt<int,void>
PUBLIC	??$?0P8Benchmark@@EAAHHH@ZPEAV0@HHX@thread@std@@QEAA@$$QEAP8Benchmark@@EAAHHH@Z$$QEAPEAV2@$$QEAH2@Z ; std::thread::thread<int (__cdecl Benchmark::*)(int,int),Benchmark *,int,int,void>
PUBLIC	??$?0P8Benchmark@@EAAHXZPEAV0@X@thread@std@@QEAA@$$QEAP8Benchmark@@EAAHXZ$$QEAPEAV2@@Z ; std::thread::thread<int (__cdecl Benchmark::*)(void),Benchmark *,void>
PUBLIC	?Format@?$CStringT@_WV?$StrTraitATL@_WV?$ChTraitsCRT@_W@ATL@@@ATL@@@ATL@@QEAAXPEB_WZZ ; ATL::CStringT<wchar_t,ATL::StrTraitATL<wchar_t,ATL::ChTraitsCRT<wchar_t> > >::Format
PUBLIC	??$AtlAdd@K@ATL@@YAJPEAKKK@Z			; ATL::AtlAdd<unsigned long>
PUBLIC	??$AtlAlignUp@H@ATL@@YAHHK@Z			; ATL::AtlAlignUp<int>
PUBLIC	??$AtlAdd@H@ATL@@YAJPEAHHH@Z			; ATL::AtlAdd<int>
PUBLIC	??$AtlMultiply@_K@ATL@@YAJPEA_K_K1@Z		; ATL::AtlMultiply<unsigned __int64>
PUBLIC	??1?$CSimpleArray@GV?$CSimpleArrayEqualHelper@G@ATL@@@ATL@@QEAA@XZ ; ATL::CSimpleArray<unsigned short,ATL::CSimpleArrayEqualHelper<unsigned short> >::~CSimpleArray<unsigned short,ATL::CSimpleArrayEqualHelper<unsigned short> >
PUBLIC	??0?$CTraceCategoryEx@$0EAAAAA@$0A@@ATL@@QEAA@PEB_W@Z ; ATL::CTraceCategoryEx<4194304,0>::CTraceCategoryEx<4194304,0>
PUBLIC	??0?$CTraceCategoryEx@$0CAAAAA@$0A@@ATL@@QEAA@PEB_W@Z ; ATL::CTraceCategoryEx<2097152,0>::CTraceCategoryEx<2097152,0>
PUBLIC	??0?$CTraceCategoryEx@$0BAAAAA@$0A@@ATL@@QEAA@PEB_W@Z ; ATL::CTraceCategoryEx<1048576,0>::CTraceCategoryEx<1048576,0>
PUBLIC	??0?$CTraceCategoryEx@$0EAAAA@$0A@@ATL@@QEAA@PEB_W@Z ; ATL::CTraceCategoryEx<262144,0>::CTraceCategoryEx<262144,0>
PUBLIC	??0?$CTraceCategoryEx@$0CAAAA@$0A@@ATL@@QEAA@PEB_W@Z ; ATL::CTraceCategoryEx<131072,0>::CTraceCategoryEx<131072,0>
PUBLIC	??0?$CTraceCategoryEx@$0BAAAA@$0A@@ATL@@QEAA@PEB_W@Z ; ATL::CTraceCategoryEx<65536,0>::CTraceCategoryEx<65536,0>
PUBLIC	??0?$CTraceCategoryEx@$0IAAA@$0A@@ATL@@QEAA@PEB_W@Z ; ATL::CTraceCategoryEx<32768,0>::CTraceCategoryEx<32768,0>
PUBLIC	??0?$CTraceCategoryEx@$0EAAA@$0A@@ATL@@QEAA@PEB_W@Z ; ATL::CTraceCategoryEx<16384,0>::CTraceCategoryEx<16384,0>
PUBLIC	??0?$CTraceCategoryEx@$0CAAA@$0A@@ATL@@QEAA@PEB_W@Z ; ATL::CTraceCategoryEx<8192,0>::CTraceCategoryEx<8192,0>
PUBLIC	??0?$CTraceCategoryEx@$0BAAA@$0A@@ATL@@QEAA@PEB_W@Z ; ATL::CTraceCategoryEx<4096,0>::CTraceCategoryEx<4096,0>
PUBLIC	??0?$CTraceCategoryEx@$0IAA@$0A@@ATL@@QEAA@PEB_W@Z ; ATL::CTraceCategoryEx<2048,0>::CTraceCategoryEx<2048,0>
PUBLIC	??0?$CTraceCategoryEx@$0EAA@$0A@@ATL@@QEAA@PEB_W@Z ; ATL::CTraceCategoryEx<1024,0>::CTraceCategoryEx<1024,0>
PUBLIC	??0?$CTraceCategoryEx@$0CAA@$0A@@ATL@@QEAA@PEB_W@Z ; ATL::CTraceCategoryEx<512,0>::CTraceCategoryEx<512,0>
PUBLIC	??0?$CTraceCategoryEx@$0BAA@$0A@@ATL@@QEAA@PEB_W@Z ; ATL::CTraceCategoryEx<256,0>::CTraceCategoryEx<256,0>
PUBLIC	??0?$CTraceCategoryEx@$0IA@$0A@@ATL@@QEAA@PEB_W@Z ; ATL::CTraceCategoryEx<128,0>::CTraceCategoryEx<128,0>
PUBLIC	??0?$CTraceCategoryEx@$0EA@$0A@@ATL@@QEAA@PEB_W@Z ; ATL::CTraceCategoryEx<64,0>::CTraceCategoryEx<64,0>
PUBLIC	??0?$CTraceCategoryEx@$0CA@$0A@@ATL@@QEAA@PEB_W@Z ; ATL::CTraceCategoryEx<32,0>::CTraceCategoryEx<32,0>
PUBLIC	??0?$CTraceCategoryEx@$0BA@$0A@@ATL@@QEAA@PEB_W@Z ; ATL::CTraceCategoryEx<16,0>::CTraceCategoryEx<16,0>
PUBLIC	??0?$CTraceCategoryEx@$07$0A@@ATL@@QEAA@PEB_W@Z	; ATL::CTraceCategoryEx<8,0>::CTraceCategoryEx<8,0>
PUBLIC	??0?$CTraceCategoryEx@$03$0A@@ATL@@QEAA@PEB_W@Z	; ATL::CTraceCategoryEx<4,0>::CTraceCategoryEx<4,0>
PUBLIC	??0?$CTraceCategoryEx@$01$0A@@ATL@@QEAA@PEB_W@Z	; ATL::CTraceCategoryEx<2,0>::CTraceCategoryEx<2,0>
PUBLIC	??0?$CTraceCategoryEx@$00$0A@@ATL@@QEAA@PEB_W@Z	; ATL::CTraceCategoryEx<1,0>::CTraceCategoryEx<1,0>
PUBLIC	??0?$CTraceCategoryEx@$0IAAAA@$0A@@ATL@@QEAA@PEB_W@Z ; ATL::CTraceCategoryEx<524288,0>::CTraceCategoryEx<524288,0>
PUBLIC	??$AtlAdd@_K@ATL@@YAJPEA_K_K1@Z			; ATL::AtlAdd<unsigned __int64>
PUBLIC	?Attach@?$CSimpleStringT@_W$0A@@ATL@@AEAAXPEAUCStringData@2@@Z ; ATL::CSimpleStringT<wchar_t,0>::Attach
PUBLIC	?GetData@?$CSimpleStringT@_W$0A@@ATL@@AEBAPEAUCStringData@2@XZ ; ATL::CSimpleStringT<wchar_t,0>::GetData
PUBLIC	??0?$CSimpleStringT@_W$0A@@ATL@@QEAA@PEAUIAtlStringMgr@1@@Z ; ATL::CSimpleStringT<wchar_t,0>::CSimpleStringT<wchar_t,0>
PUBLIC	??1?$CSimpleStringT@_W$0A@@ATL@@QEAA@XZ		; ATL::CSimpleStringT<wchar_t,0>::~CSimpleStringT<wchar_t,0>
PUBLIC	?GetDefaultManager@?$StrTraitATL@_WV?$ChTraitsCRT@_W@ATL@@@ATL@@SAPEAUIAtlStringMgr@2@XZ ; ATL::StrTraitATL<wchar_t,ATL::ChTraitsCRT<wchar_t> >::GetDefaultManager
PUBLIC	??0?$CSimpleArray@GV?$CSimpleArrayEqualHelper@G@ATL@@@ATL@@QEAA@XZ ; ATL::CSimpleArray<unsigned short,ATL::CSimpleArrayEqualHelper<unsigned short> >::CSimpleArray<unsigned short,ATL::CSimpleArrayEqualHelper<unsigned short> >
PUBLIC	?GetSize@?$CSimpleArray@GV?$CSimpleArrayEqualHelper@G@ATL@@@ATL@@QEBAHXZ ; ATL::CSimpleArray<unsigned short,ATL::CSimpleArrayEqualHelper<unsigned short> >::GetSize
PUBLIC	?RemoveAll@?$CSimpleArray@GV?$CSimpleArrayEqualHelper@G@ATL@@@ATL@@QEAAXXZ ; ATL::CSimpleArray<unsigned short,ATL::CSimpleArrayEqualHelper<unsigned short> >::RemoveAll
PUBLIC	??A?$CSimpleArray@GV?$CSimpleArrayEqualHelper@G@ATL@@@ATL@@QEAAAEAGH@Z ; ATL::CSimpleArray<unsigned short,ATL::CSimpleArrayEqualHelper<unsigned short> >::operator[]
PUBLIC	??B?$CSimpleStringT@_W$0A@@ATL@@QEBAPEB_WXZ	; ATL::CSimpleStringT<wchar_t,0>::operator wchar_t const *
PUBLIC	??0?$CStringT@_WV?$StrTraitATL@_WV?$ChTraitsCRT@_W@ATL@@@ATL@@@ATL@@QEAA@XZ ; ATL::CStringT<wchar_t,ATL::StrTraitATL<wchar_t,ATL::ChTraitsCRT<wchar_t> > >::CStringT<wchar_t,ATL::StrTraitATL<wchar_t,ATL::ChTraitsCRT<wchar_t> > >
PUBLIC	??1?$CStringT@_WV?$StrTraitATL@_WV?$ChTraitsCRT@_W@ATL@@@ATL@@@ATL@@QEAA@XZ ; ATL::CStringT<wchar_t,ATL::StrTraitATL<wchar_t,ATL::ChTraitsCRT<wchar_t> > >::~CStringT<wchar_t,ATL::StrTraitATL<wchar_t,ATL::ChTraitsCRT<wchar_t> > >
PUBLIC	?int_single_cache_miss@Benchmark@@AEAAHHH@Z	; Benchmark::int_single_cache_miss
PUBLIC	?int_single_cache_hit@Benchmark@@AEAAHHH@Z	; Benchmark::int_single_cache_hit
PUBLIC	?calc_primes@Benchmark@@AEAAXXZ			; Benchmark::calc_primes
PUBLIC	?run@Benchmark@@AEAAHXZ				; Benchmark::run
PUBLIC	?start_benchmark@Benchmark@@QEAAXXZ		; Benchmark::start_benchmark
PUBLIC	??0Benchmark@@QEAA@PEAUHWND__@@PEAH@Z		; Benchmark::Benchmark
PUBLIC	??8std@@YA_NVid@thread@0@0@Z			; std::operator==
PUBLIC	?get_id@this_thread@std@@YA?AVid@thread@2@XZ	; std::this_thread::get_id
PUBLIC	?get_id@thread@std@@QEBA?AVid@12@XZ		; std::thread::get_id
PUBLIC	?join@thread@std@@QEAAXXZ			; std::thread::join
PUBLIC	??0id@thread@std@@AEAA@I@Z			; std::thread::id::id
PUBLIC	?detach@thread@std@@QEAAXXZ			; std::thread::detach
PUBLIC	?joinable@thread@std@@QEBA_NXZ			; std::thread::joinable
PUBLIC	??1thread@std@@QEAA@XZ				; std::thread::~thread
PUBLIC	?__autoclassinit2@_Auto_mtx@std@@QEAAX_K@Z	; std::_Auto_mtx::__autoclassinit2
PUBLIC	?__autoclassinit2@_Auto_cnd@std@@QEAAX_K@Z	; std::_Auto_cnd::__autoclassinit2
PUBLIC	?_Call_func@_Pad@std@@CAIPEAX@Z			; std::_Pad::_Call_func
PUBLIC	?_Release@_Pad@std@@QEAAXXZ			; std::_Pad::_Release
PUBLIC	?_Launch@_Pad@std@@QEAAXPEAU_Thrd_imp_t@@@Z	; std::_Pad::_Launch
PUBLIC	??1_Pad@std@@QEAA@XZ				; std::_Pad::~_Pad
PUBLIC	??0_Pad@std@@QEAA@XZ				; std::_Pad::_Pad
PUBLIC	?_Release@_Auto_mtx@std@@QEAAXXZ		; std::_Auto_mtx::_Release
PUBLIC	??1_Auto_mtx@std@@QEAA@XZ			; std::_Auto_mtx::~_Auto_mtx
PUBLIC	??0_Auto_mtx@std@@QEAA@PEAU_Mtx_internal_imp_t@@@Z ; std::_Auto_mtx::_Auto_mtx
PUBLIC	?_Release@_Auto_cnd@std@@QEAAXXZ		; std::_Auto_cnd::_Release
PUBLIC	??1_Auto_cnd@std@@QEAA@XZ			; std::_Auto_cnd::~_Auto_cnd
PUBLIC	??0_Auto_cnd@std@@QEAA@PEAU_Cnd_internal_imp_t@@@Z ; std::_Auto_cnd::_Auto_cnd
PUBLIC	?_Cnd_signalX@std@@YAHPEAU_Cnd_internal_imp_t@@@Z ; std::_Cnd_signalX
PUBLIC	?_Cnd_waitX@std@@YAHPEAU_Cnd_internal_imp_t@@PEAU_Mtx_internal_imp_t@@@Z ; std::_Cnd_waitX
PUBLIC	?_Cnd_initX@std@@YAHPEAPEAU_Cnd_internal_imp_t@@@Z ; std::_Cnd_initX
PUBLIC	?_Mtx_unlockX@std@@YAHPEAU_Mtx_internal_imp_t@@@Z ; std::_Mtx_unlockX
PUBLIC	?_Mtx_lockX@std@@YAHPEAU_Mtx_internal_imp_t@@@Z	; std::_Mtx_lockX
PUBLIC	?_Mtx_initX@std@@YAHPEAPEAU_Mtx_internal_imp_t@@H@Z ; std::_Mtx_initX
PUBLIC	?_Thrd_detachX@std@@YAHU_Thrd_imp_t@@@Z		; std::_Thrd_detachX
PUBLIC	?_Thrd_startX@std@@YAHPEAU_Thrd_imp_t@@P6AIPEAX@Z1@Z ; std::_Thrd_startX
PUBLIC	?_Check_C_return@std@@YAHH@Z			; std::_Check_C_return
PUBLIC	??0CAtlStringMgrStaticInitializer@ATLImplementationDetails@ATL@@QEAA@XZ ; ATL::ATLImplementationDetails::CAtlStringMgrStaticInitializer::CAtlStringMgrStaticInitializer
PUBLIC	?__autoclassinit2@CAtlStringMgr@ATL@@QEAAX_K@Z	; ATL::CAtlStringMgr::__autoclassinit2
PUBLIC	?__autoclassinit2@CWin32Heap@ATL@@QEAAX_K@Z	; ATL::CWin32Heap::__autoclassinit2
PUBLIC	??1CAtlStringMgr@ATL@@UEAA@XZ			; ATL::CAtlStringMgr::~CAtlStringMgr
PUBLIC	??_GCAtlStringMgr@ATL@@UEAAPEAXI@Z		; ATL::CAtlStringMgr::`scalar deleting destructor'
PUBLIC	??__FstrHeap@?1??GetInstance@CAtlStringMgr@ATL@@SAPEAUIAtlStringMgr@2@XZ@YAXXZ ; `ATL::CAtlStringMgr::GetInstance'::`2'::`dynamic atexit destructor for 'strHeap''
PUBLIC	??__FstrMgr@?1??GetInstance@CAtlStringMgr@ATL@@SAPEAUIAtlStringMgr@2@XZ@YAXXZ ; `ATL::CAtlStringMgr::GetInstance'::`2'::`dynamic atexit destructor for 'strMgr''
PUBLIC	?Clone@CAtlStringMgr@ATL@@UEAAPEAUIAtlStringMgr@2@XZ ; ATL::CAtlStringMgr::Clone
PUBLIC	?GetNilString@CAtlStringMgr@ATL@@UEAAPEAUCStringData@2@XZ ; ATL::CAtlStringMgr::GetNilString
PUBLIC	?Reallocate@CAtlStringMgr@ATL@@UEAAPEAUCStringData@2@PEAU32@HH@Z ; ATL::CAtlStringMgr::Reallocate
PUBLIC	?Free@CAtlStringMgr@ATL@@UEAAXPEAUCStringData@2@@Z ; ATL::CAtlStringMgr::Free
PUBLIC	?Allocate@CAtlStringMgr@ATL@@UEAAPEAUCStringData@2@HH@Z ; ATL::CAtlStringMgr::Allocate
PUBLIC	?GetInstance@CAtlStringMgr@ATL@@SAPEAUIAtlStringMgr@2@XZ ; ATL::CAtlStringMgr::GetInstance
PUBLIC	??0CAtlStringMgr@ATL@@QEAA@PEAUIAtlMemMgr@1@@Z	; ATL::CAtlStringMgr::CAtlStringMgr
PUBLIC	?Format@?$ChTraitsCRT@_W@ATL@@SAHPEA_W_KPEB_WPEAD@Z ; ATL::ChTraitsCRT<wchar_t>::Format
PUBLIC	?GetFormattedLength@?$ChTraitsCRT@_W@ATL@@SAHPEB_WPEAD@Z ; ATL::ChTraitsCRT<wchar_t>::GetFormattedLength
PUBLIC	?SetManager@CNilStringData@ATL@@QEAAXPEAUIAtlStringMgr@2@@Z ; ATL::CNilStringData::SetManager
PUBLIC	??0CNilStringData@ATL@@QEAA@XZ			; ATL::CNilStringData::CNilStringData
PUBLIC	?Release@CStringData@ATL@@QEAAXXZ		; ATL::CStringData::Release
PUBLIC	?IsShared@CStringData@ATL@@QEBA_NXZ		; ATL::CStringData::IsShared
PUBLIC	?AddRef@CStringData@ATL@@QEAAXXZ		; ATL::CStringData::AddRef
PUBLIC	?data@CStringData@ATL@@QEAAPEAXXZ		; ATL::CStringData::data
PUBLIC	??_GCWin32Heap@ATL@@UEAAPEAXI@Z			; ATL::CWin32Heap::`scalar deleting destructor'
PUBLIC	?GetSize@CWin32Heap@ATL@@UEAA_KPEAX@Z		; ATL::CWin32Heap::GetSize
PUBLIC	?Reallocate@CWin32Heap@ATL@@UEAAPEAXPEAX_K@Z	; ATL::CWin32Heap::Reallocate
PUBLIC	?Free@CWin32Heap@ATL@@UEAAXPEAX@Z		; ATL::CWin32Heap::Free
PUBLIC	?Allocate@CWin32Heap@ATL@@UEAAPEAX_K@Z		; ATL::CWin32Heap::Allocate
PUBLIC	??1CWin32Heap@ATL@@UEAA@XZ			; ATL::CWin32Heap::~CWin32Heap
PUBLIC	??0CWin32Heap@ATL@@QEAA@PEAX@Z			; ATL::CWin32Heap::CWin32Heap
PUBLIC	?AtlWinModuleInit@ATL@@YAJPEAU_ATL_WIN_MODULE70@1@@Z ; ATL::AtlWinModuleInit
PUBLIC	?AtlWinModuleTerm@ATL@@YAJPEAU_ATL_WIN_MODULE70@1@PEAUHINSTANCE__@@@Z ; ATL::AtlWinModuleTerm
PUBLIC	??1_ATL_WIN_MODULE70@ATL@@QEAA@XZ		; ATL::_ATL_WIN_MODULE70::~_ATL_WIN_MODULE70
PUBLIC	??0_ATL_WIN_MODULE70@ATL@@QEAA@XZ		; ATL::_ATL_WIN_MODULE70::_ATL_WIN_MODULE70
PUBLIC	?Term@CAtlWinModule@ATL@@QEAAXXZ		; ATL::CAtlWinModule::Term
PUBLIC	??1CAtlWinModule@ATL@@QEAA@XZ			; ATL::CAtlWinModule::~CAtlWinModule
PUBLIC	??0CAtlWinModule@ATL@@QEAA@XZ			; ATL::CAtlWinModule::CAtlWinModule
PUBLIC	??1_ATL_COM_MODULE70@ATL@@QEAA@XZ		; ATL::_ATL_COM_MODULE70::~_ATL_COM_MODULE70
PUBLIC	??0_ATL_COM_MODULE70@ATL@@QEAA@XZ		; ATL::_ATL_COM_MODULE70::_ATL_COM_MODULE70
PUBLIC	?Term@CAtlComModule@ATL@@QEAAXXZ		; ATL::CAtlComModule::Term
PUBLIC	??1CAtlComModule@ATL@@QEAA@XZ			; ATL::CAtlComModule::~CAtlComModule
PUBLIC	??0CAtlComModule@ATL@@QEAA@XZ			; ATL::CAtlComModule::CAtlComModule
PUBLIC	?GetModuleInstance@CAtlBaseModule@ATL@@QEAAPEAUHINSTANCE__@@XZ ; ATL::CAtlBaseModule::GetModuleInstance
PUBLIC	?Term@CComCriticalSection@ATL@@QEAAJXZ		; ATL::CComCriticalSection::Term
PUBLIC	?Init@CComCriticalSection@ATL@@QEAAJXZ		; ATL::CComCriticalSection::Init
PUBLIC	??1CComCriticalSection@ATL@@QEAA@XZ		; ATL::CComCriticalSection::~CComCriticalSection
PUBLIC	??0CComCriticalSection@ATL@@QEAA@XZ		; ATL::CComCriticalSection::CComCriticalSection
PUBLIC	?_AtlInitializeCriticalSectionEx@ATL@@YAHPEAU_RTL_CRITICAL_SECTION@@KK@Z ; ATL::_AtlInitializeCriticalSectionEx
PUBLIC	?AtlThrowImpl@ATL@@YAXJ@Z			; ATL::AtlThrowImpl
PUBLIC	??0CAtlException@ATL@@QEAA@J@Z			; ATL::CAtlException::CAtlException
PUBLIC	?_AtlRaiseException@ATL@@YAXKK@Z		; ATL::_AtlRaiseException
PUBLIC	??$AtlMultiply@K@ATL@@YAJPEAKKK@Z		; ATL::AtlMultiply<unsigned long>
PUBLIC	?atlTraceGeneral@ATL@@3V?$CTraceCategoryEx@$00$0A@@1@A ; ATL::atlTraceGeneral
PUBLIC	?atlTraceCOM@ATL@@3V?$CTraceCategoryEx@$01$0A@@1@A ; ATL::atlTraceCOM
PUBLIC	?atlTraceQI@ATL@@3V?$CTraceCategoryEx@$03$0A@@1@A ; ATL::atlTraceQI
PUBLIC	?atlTraceRegistrar@ATL@@3V?$CTraceCategoryEx@$07$0A@@1@A ; ATL::atlTraceRegistrar
PUBLIC	?atlTraceRefcount@ATL@@3V?$CTraceCategoryEx@$0BA@$0A@@1@A ; ATL::atlTraceRefcount
PUBLIC	?atlTraceWindowing@ATL@@3V?$CTraceCategoryEx@$0CA@$0A@@1@A ; ATL::atlTraceWindowing
PUBLIC	?atlTraceControls@ATL@@3V?$CTraceCategoryEx@$0EA@$0A@@1@A ; ATL::atlTraceControls
PUBLIC	?atlTraceHosting@ATL@@3V?$CTraceCategoryEx@$0IA@$0A@@1@A ; ATL::atlTraceHosting
PUBLIC	?atlTraceDBClient@ATL@@3V?$CTraceCategoryEx@$0BAA@$0A@@1@A ; ATL::atlTraceDBClient
PUBLIC	?atlTraceDBProvider@ATL@@3V?$CTraceCategoryEx@$0CAA@$0A@@1@A ; ATL::atlTraceDBProvider
PUBLIC	?atlTraceSnapin@ATL@@3V?$CTraceCategoryEx@$0EAA@$0A@@1@A ; ATL::atlTraceSnapin
PUBLIC	?atlTraceNotImpl@ATL@@3V?$CTraceCategoryEx@$0IAA@$0A@@1@A ; ATL::atlTraceNotImpl
PUBLIC	?atlTraceAllocation@ATL@@3V?$CTraceCategoryEx@$0BAAA@$0A@@1@A ; ATL::atlTraceAllocation
PUBLIC	?atlTraceException@ATL@@3V?$CTraceCategoryEx@$0CAAA@$0A@@1@A ; ATL::atlTraceException
PUBLIC	?atlTraceTime@ATL@@3V?$CTraceCategoryEx@$0EAAA@$0A@@1@A ; ATL::atlTraceTime
PUBLIC	?atlTraceCache@ATL@@3V?$CTraceCategoryEx@$0IAAA@$0A@@1@A ; ATL::atlTraceCache
PUBLIC	?atlTraceStencil@ATL@@3V?$CTraceCategoryEx@$0BAAAA@$0A@@1@A ; ATL::atlTraceStencil
PUBLIC	?atlTraceString@ATL@@3V?$CTraceCategoryEx@$0CAAAA@$0A@@1@A ; ATL::atlTraceString
PUBLIC	?atlTraceMap@ATL@@3V?$CTraceCategoryEx@$0EAAAA@$0A@@1@A ; ATL::atlTraceMap
PUBLIC	?atlTraceUtil@ATL@@3V?$CTraceCategoryEx@$0IAAAA@$0A@@1@A ; ATL::atlTraceUtil
PUBLIC	?atlTraceSecurity@ATL@@3V?$CTraceCategoryEx@$0BAAAAA@$0A@@1@A ; ATL::atlTraceSecurity
PUBLIC	?atlTraceSync@ATL@@3V?$CTraceCategoryEx@$0CAAAAA@$0A@@1@A ; ATL::atlTraceSync
PUBLIC	?atlTraceISAPI@ATL@@3V?$CTraceCategoryEx@$0EAAAAA@$0A@@1@A ; ATL::atlTraceISAPI
PUBLIC	?_AtlComModule@ATL@@3VCAtlComModule@1@A		; ATL::_AtlComModule
PUBLIC	?_AtlWinModule@ATL@@3VCAtlWinModule@1@A		; ATL::_AtlWinModule
PUBLIC	?InitializeCAtlStringMgr@ATLImplementationDetails@ATL@@3UCAtlStringMgrStaticInitializer@12@A ; ATL::ATLImplementationDetails::InitializeCAtlStringMgr
PUBLIC	__real@3f800000
PUBLIC	__real@4000000000000000
PUBLIC	__real@412e848000000000
PUBLIC	__real@42c80000
PUBLIC	__real@5f800000
PUBLIC	__real@bf800000
PUBLIC	__xmm@000000000000000f0000000000000000
PUBLIC	__xmm@000000000000006d0000000000000006
EXTRN	??_ECWin32Heap@ATL@@UEAAPEAXI@Z:PROC		; ATL::CWin32Heap::`vector deleting destructor'
EXTRN	??_ECAtlStringMgr@ATL@@UEAAPEAXI@Z:PROC		; ATL::CAtlStringMgr::`vector deleting destructor'
EXTRN	_CxxThrowException:PROC
EXTRN	__CxxFrameHandler3:PROC
EXTRN	__GSHandlerCheck:PROC
EXTRN	__GSHandlerCheck_EH:PROC
EXTRN	__std_terminate:PROC
EXTRN	memcpy:PROC
EXTRN	memmove:PROC
EXTRN	memset:PROC
EXTRN	sqrt:PROC
EXTRN	__security_cookie:QWORD
EXTRN	_fltused:DWORD
EXTRN	_tls_index:DWORD
;	COMDAT ?atlTraceGeneral@ATL@@3V?$CTraceCategoryEx@$00$0A@@1@A
_BSS	SEGMENT
?atlTraceGeneral@ATL@@3V?$CTraceCategoryEx@$00$0A@@1@A DD 01H DUP (?) ; ATL::atlTraceGeneral
_BSS	ENDS
;	COMDAT ?atlTraceCOM@ATL@@3V?$CTraceCategoryEx@$01$0A@@1@A
_BSS	SEGMENT
?atlTraceCOM@ATL@@3V?$CTraceCategoryEx@$01$0A@@1@A DD 01H DUP (?) ; ATL::atlTraceCOM
_BSS	ENDS
;	COMDAT ?atlTraceQI@ATL@@3V?$CTraceCategoryEx@$03$0A@@1@A
_BSS	SEGMENT
?atlTraceQI@ATL@@3V?$CTraceCategoryEx@$03$0A@@1@A DD 01H DUP (?) ; ATL::atlTraceQI
_BSS	ENDS
;	COMDAT ?atlTraceRegistrar@ATL@@3V?$CTraceCategoryEx@$07$0A@@1@A
_BSS	SEGMENT
?atlTraceRegistrar@ATL@@3V?$CTraceCategoryEx@$07$0A@@1@A DD 01H DUP (?) ; ATL::atlTraceRegistrar
_BSS	ENDS
;	COMDAT ?atlTraceRefcount@ATL@@3V?$CTraceCategoryEx@$0BA@$0A@@1@A
_BSS	SEGMENT
?atlTraceRefcount@ATL@@3V?$CTraceCategoryEx@$0BA@$0A@@1@A DD 01H DUP (?) ; ATL::atlTraceRefcount
_BSS	ENDS
;	COMDAT ?atlTraceWindowing@ATL@@3V?$CTraceCategoryEx@$0CA@$0A@@1@A
_BSS	SEGMENT
?atlTraceWindowing@ATL@@3V?$CTraceCategoryEx@$0CA@$0A@@1@A DD 01H DUP (?) ; ATL::atlTraceWindowing
_BSS	ENDS
;	COMDAT ?atlTraceControls@ATL@@3V?$CTraceCategoryEx@$0EA@$0A@@1@A
_BSS	SEGMENT
?atlTraceControls@ATL@@3V?$CTraceCategoryEx@$0EA@$0A@@1@A DD 01H DUP (?) ; ATL::atlTraceControls
_BSS	ENDS
;	COMDAT ?atlTraceHosting@ATL@@3V?$CTraceCategoryEx@$0IA@$0A@@1@A
_BSS	SEGMENT
?atlTraceHosting@ATL@@3V?$CTraceCategoryEx@$0IA@$0A@@1@A DD 01H DUP (?) ; ATL::atlTraceHosting
_BSS	ENDS
;	COMDAT ?atlTraceDBClient@ATL@@3V?$CTraceCategoryEx@$0BAA@$0A@@1@A
_BSS	SEGMENT
?atlTraceDBClient@ATL@@3V?$CTraceCategoryEx@$0BAA@$0A@@1@A DD 01H DUP (?) ; ATL::atlTraceDBClient
_BSS	ENDS
;	COMDAT ?atlTraceDBProvider@ATL@@3V?$CTraceCategoryEx@$0CAA@$0A@@1@A
_BSS	SEGMENT
?atlTraceDBProvider@ATL@@3V?$CTraceCategoryEx@$0CAA@$0A@@1@A DD 01H DUP (?) ; ATL::atlTraceDBProvider
_BSS	ENDS
;	COMDAT ?atlTraceSnapin@ATL@@3V?$CTraceCategoryEx@$0EAA@$0A@@1@A
_BSS	SEGMENT
?atlTraceSnapin@ATL@@3V?$CTraceCategoryEx@$0EAA@$0A@@1@A DD 01H DUP (?) ; ATL::atlTraceSnapin
_BSS	ENDS
;	COMDAT ?atlTraceNotImpl@ATL@@3V?$CTraceCategoryEx@$0IAA@$0A@@1@A
_BSS	SEGMENT
?atlTraceNotImpl@ATL@@3V?$CTraceCategoryEx@$0IAA@$0A@@1@A DD 01H DUP (?) ; ATL::atlTraceNotImpl
_BSS	ENDS
;	COMDAT ?atlTraceAllocation@ATL@@3V?$CTraceCategoryEx@$0BAAA@$0A@@1@A
_BSS	SEGMENT
?atlTraceAllocation@ATL@@3V?$CTraceCategoryEx@$0BAAA@$0A@@1@A DD 01H DUP (?) ; ATL::atlTraceAllocation
_BSS	ENDS
;	COMDAT ?atlTraceException@ATL@@3V?$CTraceCategoryEx@$0CAAA@$0A@@1@A
_BSS	SEGMENT
?atlTraceException@ATL@@3V?$CTraceCategoryEx@$0CAAA@$0A@@1@A DD 01H DUP (?) ; ATL::atlTraceException
_BSS	ENDS
;	COMDAT ?atlTraceTime@ATL@@3V?$CTraceCategoryEx@$0EAAA@$0A@@1@A
_BSS	SEGMENT
?atlTraceTime@ATL@@3V?$CTraceCategoryEx@$0EAAA@$0A@@1@A DD 01H DUP (?) ; ATL::atlTraceTime
_BSS	ENDS
;	COMDAT ?atlTraceCache@ATL@@3V?$CTraceCategoryEx@$0IAAA@$0A@@1@A
_BSS	SEGMENT
?atlTraceCache@ATL@@3V?$CTraceCategoryEx@$0IAAA@$0A@@1@A DD 01H DUP (?) ; ATL::atlTraceCache
_BSS	ENDS
;	COMDAT ?atlTraceStencil@ATL@@3V?$CTraceCategoryEx@$0BAAAA@$0A@@1@A
_BSS	SEGMENT
?atlTraceStencil@ATL@@3V?$CTraceCategoryEx@$0BAAAA@$0A@@1@A DD 01H DUP (?) ; ATL::atlTraceStencil
_BSS	ENDS
;	COMDAT ?atlTraceString@ATL@@3V?$CTraceCategoryEx@$0CAAAA@$0A@@1@A
_BSS	SEGMENT
?atlTraceString@ATL@@3V?$CTraceCategoryEx@$0CAAAA@$0A@@1@A DD 01H DUP (?) ; ATL::atlTraceString
_BSS	ENDS
;	COMDAT ?atlTraceMap@ATL@@3V?$CTraceCategoryEx@$0EAAAA@$0A@@1@A
_BSS	SEGMENT
?atlTraceMap@ATL@@3V?$CTraceCategoryEx@$0EAAAA@$0A@@1@A DD 01H DUP (?) ; ATL::atlTraceMap
_BSS	ENDS
;	COMDAT ?atlTraceUtil@ATL@@3V?$CTraceCategoryEx@$0IAAAA@$0A@@1@A
_BSS	SEGMENT
?atlTraceUtil@ATL@@3V?$CTraceCategoryEx@$0IAAAA@$0A@@1@A DD 01H DUP (?) ; ATL::atlTraceUtil
_BSS	ENDS
;	COMDAT ?atlTraceSecurity@ATL@@3V?$CTraceCategoryEx@$0BAAAAA@$0A@@1@A
_BSS	SEGMENT
?atlTraceSecurity@ATL@@3V?$CTraceCategoryEx@$0BAAAAA@$0A@@1@A DD 01H DUP (?) ; ATL::atlTraceSecurity
_BSS	ENDS
;	COMDAT ?atlTraceSync@ATL@@3V?$CTraceCategoryEx@$0CAAAAA@$0A@@1@A
_BSS	SEGMENT
?atlTraceSync@ATL@@3V?$CTraceCategoryEx@$0CAAAAA@$0A@@1@A DD 01H DUP (?) ; ATL::atlTraceSync
_BSS	ENDS
;	COMDAT ?atlTraceISAPI@ATL@@3V?$CTraceCategoryEx@$0EAAAAA@$0A@@1@A
_BSS	SEGMENT
?atlTraceISAPI@ATL@@3V?$CTraceCategoryEx@$0EAAAAA@$0A@@1@A DD 01H DUP (?) ; ATL::atlTraceISAPI
_BSS	ENDS
;	COMDAT ?_AtlComModule@ATL@@3VCAtlComModule@1@A
_BSS	SEGMENT
?_AtlComModule@ATL@@3VCAtlComModule@1@A DB 048H DUP (?)	; ATL::_AtlComModule
_BSS	ENDS
;	COMDAT ?_AtlWinModule@ATL@@3VCAtlWinModule@1@A
_BSS	SEGMENT
?_AtlWinModule@ATL@@3VCAtlWinModule@1@A DB 048H DUP (?)	; ATL::_AtlWinModule
_BSS	ENDS
;	COMDAT ?InitializeCAtlStringMgr@ATLImplementationDetails@ATL@@3UCAtlStringMgrStaticInitializer@12@A
_BSS	SEGMENT
?InitializeCAtlStringMgr@ATLImplementationDetails@ATL@@3UCAtlStringMgrStaticInitializer@12@A DB 01H DUP (?) ; ATL::ATLImplementationDetails::InitializeCAtlStringMgr
_BSS	ENDS
;	COMDAT pdata
pdata	SEGMENT
$pdata$memcpy_s DD imagerel memcpy_s
	DD	imagerel memcpy_s+171
	DD	imagerel $unwind$memcpy_s
pdata	ENDS
;	COMDAT pdata
pdata	SEGMENT
$pdata$??$?0V?$unique_ptr@V?$tuple@P8Benchmark@@EAAHHH@ZPEAV1@HH@std@@U?$default_delete@V?$tuple@P8Benchmark@@EAAHHH@ZPEAV1@HH@std@@@2@@std@@@?$_LaunchPad@V?$unique_ptr@V?$tuple@P8Benchmark@@EAAHHH@ZPEAV1@HH@std@@U?$default_delete@V?$tuple@P8Benchmark@@EAAHHH@ZPEAV1@HH@std@@@2@@std@@@std@@QEAA@$$QEAV?$unique_ptr@V?$tuple@P8Benchmark@@EAAHHH@ZPEAV1@HH@std@@U?$default_delete@V?$tuple@P8Benchmark@@EAAHHH@ZPEAV1@HH@std@@@2@@1@@Z DD imagerel $LN76
	DD	imagerel $LN76+220
	DD	imagerel $unwind$??$?0V?$unique_ptr@V?$tuple@P8Benchmark@@EAAHHH@ZPEAV1@HH@std@@U?$default_delete@V?$tuple@P8Benchmark@@EAAHHH@ZPEAV1@HH@std@@@2@@std@@@?$_LaunchPad@V?$unique_ptr@V?$tuple@P8Benchmark@@EAAHHH@ZPEAV1@HH@std@@U?$default_delete@V?$tuple@P8Benchmark@@EAAHHH@ZPEAV1@HH@std@@@2@@std@@@std@@QEAA@$$QEAV?$unique_ptr@V?$tuple@P8Benchmark@@EAAHHH@ZPEAV1@HH@std@@U?$default_delete@V?$tuple@P8Benchmark@@EAAHHH@ZPEAV1@HH@std@@@2@@1@@Z
pdata	ENDS
;	COMDAT pdata
pdata	SEGMENT
$pdata$??$?0V?$unique_ptr@V?$tuple@P8Benchmark@@EAAHXZPEAV1@@std@@U?$default_delete@V?$tuple@P8Benchmark@@EAAHXZPEAV1@@std@@@2@@std@@@?$_LaunchPad@V?$unique_ptr@V?$tuple@P8Benchmark@@EAAHXZPEAV1@@std@@U?$default_delete@V?$tuple@P8Benchmark@@EAAHXZPEAV1@@std@@@2@@std@@@std@@QEAA@$$QEAV?$unique_ptr@V?$tuple@P8Benchmark@@EAAHXZPEAV1@@std@@U?$default_delete@V?$tuple@P8Benchmark@@EAAHXZPEAV1@@std@@@2@@1@@Z DD imagerel $LN76
	DD	imagerel $LN76+220
	DD	imagerel $unwind$??$?0V?$unique_ptr@V?$tuple@P8Benchmark@@EAAHXZPEAV1@@std@@U?$default_delete@V?$tuple@P8Benchmark@@EAAHXZPEAV1@@std@@@2@@std@@@?$_LaunchPad@V?$unique_ptr@V?$tuple@P8Benchmark@@EAAHXZPEAV1@@std@@U?$default_delete@V?$tuple@P8Benchmark@@EAAHXZPEAV1@@std@@@2@@std@@@std@@QEAA@$$QEAV?$unique_ptr@V?$tuple@P8Benchmark@@EAAHXZPEAV1@@std@@U?$default_delete@V?$tuple@P8Benchmark@@EAAHXZPEAV1@@std@@@2@@1@@Z
pdata	ENDS
;	COMDAT pdata
pdata	SEGMENT
$pdata$?_Run@?$_LaunchPad@V?$unique_ptr@V?$tuple@P8Benchmark@@EAAHXZPEAV1@@std@@U?$default_delete@V?$tuple@P8Benchmark@@EAAHXZPEAV1@@std@@@2@@std@@@std@@CAXPEAV12@@Z DD imagerel $LN107
	DD	imagerel $LN107+148
	DD	imagerel $unwind$?_Run@?$_LaunchPad@V?$unique_ptr@V?$tuple@P8Benchmark@@EAAHXZPEAV1@@std@@U?$default_delete@V?$tuple@P8Benchmark@@EAAHXZPEAV1@@std@@@2@@std@@@std@@CAXPEAV12@@Z
pdata	ENDS
;	COMDAT pdata
pdata	SEGMENT
$pdata$?_Run@?$_LaunchPad@V?$unique_ptr@V?$tuple@P8Benchmark@@EAAHHH@ZPEAV1@HH@std@@U?$default_delete@V?$tuple@P8Benchmark@@EAAHHH@ZPEAV1@HH@std@@@2@@std@@@std@@CAXPEAV12@@Z DD imagerel $LN123
	DD	imagerel $LN123+155
	DD	imagerel $unwind$?_Run@?$_LaunchPad@V?$unique_ptr@V?$tuple@P8Benchmark@@EAAHHH@ZPEAV1@HH@std@@U?$default_delete@V?$tuple@P8Benchmark@@EAAHHH@ZPEAV1@HH@std@@@2@@std@@@std@@CAXPEAV12@@Z
pdata	ENDS
;	COMDAT pdata
pdata	SEGMENT
$pdata$?_Go@?$_LaunchPad@V?$unique_ptr@V?$tuple@P8Benchmark@@EAAHXZPEAV1@@std@@U?$default_delete@V?$tuple@P8Benchmark@@EAAHXZPEAV1@@std@@@2@@std@@@std@@UEAAXXZ DD imagerel $LN110
	DD	imagerel $LN110+145
	DD	imagerel $unwind$?_Go@?$_LaunchPad@V?$unique_ptr@V?$tuple@P8Benchmark@@EAAHXZPEAV1@@std@@U?$default_delete@V?$tuple@P8Benchmark@@EAAHXZPEAV1@@std@@@2@@std@@@std@@UEAAXXZ
pdata	ENDS
;	COMDAT pdata
pdata	SEGMENT
$pdata$?_Go@?$_LaunchPad@V?$unique_ptr@V?$tuple@P8Benchmark@@EAAHHH@ZPEAV1@HH@std@@U?$default_delete@V?$tuple@P8Benchmark@@EAAHHH@ZPEAV1@HH@std@@@2@@std@@@std@@UEAAXXZ DD imagerel $LN126
	DD	imagerel $LN126+152
	DD	imagerel $unwind$?_Go@?$_LaunchPad@V?$unique_ptr@V?$tuple@P8Benchmark@@EAAHHH@ZPEAV1@HH@std@@U?$default_delete@V?$tuple@P8Benchmark@@EAAHHH@ZPEAV1@HH@std@@@2@@std@@@std@@UEAAXXZ
pdata	ENDS
;	COMDAT pdata
pdata	SEGMENT
$pdata$??1?$_LaunchPad@V?$unique_ptr@V?$tuple@P8Benchmark@@EAAHHH@ZPEAV1@HH@std@@U?$default_delete@V?$tuple@P8Benchmark@@EAAHHH@ZPEAV1@HH@std@@@2@@std@@@std@@QEAA@XZ DD imagerel $LN50
	DD	imagerel $LN50+105
	DD	imagerel $unwind$??1?$_LaunchPad@V?$unique_ptr@V?$tuple@P8Benchmark@@EAAHHH@ZPEAV1@HH@std@@U?$default_delete@V?$tuple@P8Benchmark@@EAAHHH@ZPEAV1@HH@std@@@2@@std@@@std@@QEAA@XZ
pdata	ENDS
;	COMDAT pdata
pdata	SEGMENT
$pdata$??1?$_LaunchPad@V?$unique_ptr@V?$tuple@P8Benchmark@@EAAHXZPEAV1@@std@@U?$default_delete@V?$tuple@P8Benchmark@@EAAHXZPEAV1@@std@@@2@@std@@@std@@QEAA@XZ DD imagerel $LN50
	DD	imagerel $LN50+105
	DD	imagerel $unwind$??1?$_LaunchPad@V?$unique_ptr@V?$tuple@P8Benchmark@@EAAHXZPEAV1@@std@@U?$default_delete@V?$tuple@P8Benchmark@@EAAHXZPEAV1@@std@@@2@@std@@@std@@QEAA@XZ
pdata	ENDS
;	COMDAT pdata
pdata	SEGMENT
$pdata$??$_Launch@V?$unique_ptr@V?$tuple@P8Benchmark@@EAAHHH@ZPEAV1@HH@std@@U?$default_delete@V?$tuple@P8Benchmark@@EAAHHH@ZPEAV1@HH@std@@@2@@std@@@std@@YAXPEAU_Thrd_imp_t@@$$QEAV?$unique_ptr@V?$tuple@P8Benchmark@@EAAHHH@ZPEAV1@HH@std@@U?$default_delete@V?$tuple@P8Benchmark@@EAAHHH@ZPEAV1@HH@std@@@2@@0@@Z DD imagerel $LN148
	DD	imagerel $LN148+387
	DD	imagerel $unwind$??$_Launch@V?$unique_ptr@V?$tuple@P8Benchmark@@EAAHHH@ZPEAV1@HH@std@@U?$default_delete@V?$tuple@P8Benchmark@@EAAHHH@ZPEAV1@HH@std@@@2@@std@@@std@@YAXPEAU_Thrd_imp_t@@$$QEAV?$unique_ptr@V?$tuple@P8Benchmark@@EAAHHH@ZPEAV1@HH@std@@U?$default_delete@V?$tuple@P8Benchmark@@EAAHHH@ZPEAV1@HH@std@@@2@@0@@Z
pdata	ENDS
;	COMDAT pdata
pdata	SEGMENT
$pdata$??$make_unique@V?$tuple@P8Benchmark@@EAAHHH@ZPEAV1@HH@std@@P8Benchmark@@EAAHHH@ZPEAV3@HH$0A@@std@@YA?AV?$unique_ptr@V?$tuple@P8Benchmark@@EAAHHH@ZPEAV1@HH@std@@U?$default_delete@V?$tuple@P8Benchmark@@EAAHHH@ZPEAV1@HH@std@@@2@@0@$$QEAP8Benchmark@@EAAHHH@Z$$QEAPEAV2@$$QEAH2@Z DD imagerel $LN81
	DD	imagerel $LN81+106
	DD	imagerel $unwind$??$make_unique@V?$tuple@P8Benchmark@@EAAHHH@ZPEAV1@HH@std@@P8Benchmark@@EAAHHH@ZPEAV3@HH$0A@@std@@YA?AV?$unique_ptr@V?$tuple@P8Benchmark@@EAAHHH@ZPEAV1@HH@std@@U?$default_delete@V?$tuple@P8Benchmark@@EAAHHH@ZPEAV1@HH@std@@@2@@0@$$QEAP8Benchmark@@EAAHHH@Z$$QEAPEAV2@$$QEAH2@Z
pdata	ENDS
;	COMDAT pdata
pdata	SEGMENT
$pdata$??$_Launch@V?$unique_ptr@V?$tuple@P8Benchmark@@EAAHXZPEAV1@@std@@U?$default_delete@V?$tuple@P8Benchmark@@EAAHXZPEAV1@@std@@@2@@std@@@std@@YAXPEAU_Thrd_imp_t@@$$QEAV?$unique_ptr@V?$tuple@P8Benchmark@@EAAHXZPEAV1@@std@@U?$default_delete@V?$tuple@P8Benchmark@@EAAHXZPEAV1@@std@@@2@@0@@Z DD imagerel $LN148
	DD	imagerel $LN148+387
	DD	imagerel $unwind$??$_Launch@V?$unique_ptr@V?$tuple@P8Benchmark@@EAAHXZPEAV1@@std@@U?$default_delete@V?$tuple@P8Benchmark@@EAAHXZPEAV1@@std@@@2@@std@@@std@@YAXPEAU_Thrd_imp_t@@$$QEAV?$unique_ptr@V?$tuple@P8Benchmark@@EAAHXZPEAV1@@std@@U?$default_delete@V?$tuple@P8Benchmark@@EAAHXZPEAV1@@std@@@2@@0@@Z
pdata	ENDS
;	COMDAT pdata
pdata	SEGMENT
$pdata$??$make_unique@V?$tuple@P8Benchmark@@EAAHXZPEAV1@@std@@P8Benchmark@@EAAHXZPEAV3@$0A@@std@@YA?AV?$unique_ptr@V?$tuple@P8Benchmark@@EAAHXZPEAV1@@std@@U?$default_delete@V?$tuple@P8Benchmark@@EAAHXZPEAV1@@std@@@2@@0@$$QEAP8Benchmark@@EAAHXZ$$QEAPEAV2@@Z DD imagerel $LN47
	DD	imagerel $LN47+74
	DD	imagerel $unwind$??$make_unique@V?$tuple@P8Benchmark@@EAAHXZPEAV1@@std@@P8Benchmark@@EAAHXZPEAV3@$0A@@std@@YA?AV?$unique_ptr@V?$tuple@P8Benchmark@@EAAHXZPEAV1@@std@@U?$default_delete@V?$tuple@P8Benchmark@@EAAHXZPEAV1@@std@@@2@@0@$$QEAP8Benchmark@@EAAHXZ$$QEAPEAV2@@Z
pdata	ENDS
;	COMDAT pdata
pdata	SEGMENT
$pdata$?CopyChars@?$CSimpleStringT@_W$0A@@ATL@@SAXPEA_W_KPEB_WH@Z DD imagerel $LN14
	DD	imagerel $LN14+139
	DD	imagerel $unwind$?CopyChars@?$CSimpleStringT@_W$0A@@ATL@@SAXPEA_W_KPEB_WH@Z
pdata	ENDS
;	COMDAT pdata
pdata	SEGMENT
$pdata$?ThrowMemoryException@?$CSimpleStringT@_W$0A@@ATL@@KAXXZ DD imagerel $LN4
	DD	imagerel $LN4+15
	DD	imagerel $unwind$?ThrowMemoryException@?$CSimpleStringT@_W$0A@@ATL@@KAXXZ
pdata	ENDS
;	COMDAT pdata
pdata	SEGMENT
$pdata$?Fork@?$CSimpleStringT@_W$0A@@ATL@@AEAAXH@Z DD imagerel $LN20
	DD	imagerel $LN20+74
	DD	imagerel $unwind$?Fork@?$CSimpleStringT@_W$0A@@ATL@@AEAAXH@Z
pdata	ENDS
;	COMDAT pdata
pdata	SEGMENT
$pdata$0$?Fork@?$CSimpleStringT@_W$0A@@ATL@@AEAAXH@Z DD imagerel $LN20+74
	DD	imagerel $LN20+173
	DD	imagerel $chain$0$?Fork@?$CSimpleStringT@_W$0A@@ATL@@AEAAXH@Z
pdata	ENDS
;	COMDAT pdata
pdata	SEGMENT
$pdata$1$?Fork@?$CSimpleStringT@_W$0A@@ATL@@AEAAXH@Z DD imagerel $LN20+173
	DD	imagerel $LN20+179
	DD	imagerel $chain$1$?Fork@?$CSimpleStringT@_W$0A@@ATL@@AEAAXH@Z
pdata	ENDS
;	COMDAT pdata
pdata	SEGMENT
$pdata$?Reallocate@?$CSimpleStringT@_W$0A@@ATL@@AEAAXH@Z DD imagerel $LN14
	DD	imagerel $LN14+69
	DD	imagerel $unwind$?Reallocate@?$CSimpleStringT@_W$0A@@ATL@@AEAAXH@Z
pdata	ENDS
;	COMDAT pdata
pdata	SEGMENT
$pdata$?PrepareWrite@?$CSimpleStringT@_W$0A@@ATL@@AEAAPEA_WH@Z DD imagerel $LN10
	DD	imagerel $LN10+71
	DD	imagerel $unwind$?PrepareWrite@?$CSimpleStringT@_W$0A@@ATL@@AEAAPEA_WH@Z
pdata	ENDS
;	COMDAT pdata
pdata	SEGMENT
$pdata$?SetLength@?$CSimpleStringT@_W$0A@@ATL@@AEAAXH@Z DD imagerel $LN11
	DD	imagerel $LN11+47
	DD	imagerel $unwind$?SetLength@?$CSimpleStringT@_W$0A@@ATL@@AEAAXH@Z
pdata	ENDS
;	COMDAT pdata
pdata	SEGMENT
$pdata$?GetBuffer@?$CSimpleStringT@_W$0A@@ATL@@QEAAPEA_WH@Z DD imagerel $LN13
	DD	imagerel $LN13+71
	DD	imagerel $unwind$?GetBuffer@?$CSimpleStringT@_W$0A@@ATL@@QEAAPEA_WH@Z
pdata	ENDS
;	COMDAT pdata
pdata	SEGMENT
$pdata$?ReleaseBufferSetLength@?$CSimpleStringT@_W$0A@@ATL@@QEAAXH@Z DD imagerel $LN14
	DD	imagerel $LN14+47
	DD	imagerel $unwind$?ReleaseBufferSetLength@?$CSimpleStringT@_W$0A@@ATL@@QEAAXH@Z
pdata	ENDS
;	COMDAT pdata
pdata	SEGMENT
$pdata$?FormatV@?$CStringT@_WV?$StrTraitATL@_WV?$ChTraitsCRT@_W@ATL@@@ATL@@@ATL@@QEAAXPEB_WPEAD@Z DD imagerel $LN33
	DD	imagerel $LN33+234
	DD	imagerel $unwind$?FormatV@?$CStringT@_WV?$StrTraitATL@_WV?$ChTraitsCRT@_W@ATL@@@ATL@@@ATL@@QEAAXPEB_WPEAD@Z
pdata	ENDS
;	COMDAT pdata
pdata	SEGMENT
$pdata$??$?0P8Benchmark@@EAAHHH@ZPEAV0@HHX@thread@std@@QEAA@$$QEAP8Benchmark@@EAAHHH@Z$$QEAPEAV2@$$QEAH2@Z DD imagerel $LN116
	DD	imagerel $LN116+148
	DD	imagerel $unwind$??$?0P8Benchmark@@EAAHHH@ZPEAV0@HHX@thread@std@@QEAA@$$QEAP8Benchmark@@EAAHHH@Z$$QEAPEAV2@$$QEAH2@Z
pdata	ENDS
;	COMDAT pdata
pdata	SEGMENT
$pdata$??$?0P8Benchmark@@EAAHXZPEAV0@X@thread@std@@QEAA@$$QEAP8Benchmark@@EAAHXZ$$QEAPEAV2@@Z DD imagerel $LN78
	DD	imagerel $LN78+118
	DD	imagerel $unwind$??$?0P8Benchmark@@EAAHXZPEAV0@X@thread@std@@QEAA@$$QEAP8Benchmark@@EAAHXZ$$QEAPEAV2@@Z
pdata	ENDS
;	COMDAT pdata
pdata	SEGMENT
$pdata$?Format@?$CStringT@_WV?$StrTraitATL@_WV?$ChTraitsCRT@_W@ATL@@@ATL@@@ATL@@QEAAXPEB_WZZ DD imagerel $LN36
	DD	imagerel $LN36+224
	DD	imagerel $unwind$?Format@?$CStringT@_WV?$StrTraitATL@_WV?$ChTraitsCRT@_W@ATL@@@ATL@@@ATL@@QEAAXPEB_WZZ
pdata	ENDS
;	COMDAT pdata
pdata	SEGMENT
$pdata$??1?$CSimpleArray@GV?$CSimpleArrayEqualHelper@G@ATL@@@ATL@@QEAA@XZ DD imagerel $LN17
	DD	imagerel $LN17+50
	DD	imagerel $unwind$??1?$CSimpleArray@GV?$CSimpleArrayEqualHelper@G@ATL@@@ATL@@QEAA@XZ
pdata	ENDS
;	COMDAT pdata
pdata	SEGMENT
$pdata$??0?$CSimpleStringT@_W$0A@@ATL@@QEAA@PEAUIAtlStringMgr@1@@Z DD imagerel $LN17
	DD	imagerel $LN17+50
	DD	imagerel $unwind$??0?$CSimpleStringT@_W$0A@@ATL@@QEAA@PEAUIAtlStringMgr@1@@Z
pdata	ENDS
;	COMDAT pdata
pdata	SEGMENT
$pdata$?RemoveAll@?$CSimpleArray@GV?$CSimpleArrayEqualHelper@G@ATL@@@ATL@@QEAAXXZ DD imagerel $LN14
	DD	imagerel $LN14+50
	DD	imagerel $unwind$?RemoveAll@?$CSimpleArray@GV?$CSimpleArrayEqualHelper@G@ATL@@@ATL@@QEAAXXZ
pdata	ENDS
;	COMDAT pdata
pdata	SEGMENT
$pdata$??A?$CSimpleArray@GV?$CSimpleArrayEqualHelper@G@ATL@@@ATL@@QEAAAEAGH@Z DD imagerel $LN7
	DD	imagerel $LN7+44
	DD	imagerel $unwind$??A?$CSimpleArray@GV?$CSimpleArrayEqualHelper@G@ATL@@@ATL@@QEAAAEAGH@Z
pdata	ENDS
;	COMDAT pdata
pdata	SEGMENT
$pdata$??0?$CStringT@_WV?$StrTraitATL@_WV?$ChTraitsCRT@_W@ATL@@@ATL@@@ATL@@QEAA@XZ DD imagerel $LN23
	DD	imagerel $LN23+55
	DD	imagerel $unwind$??0?$CStringT@_WV?$StrTraitATL@_WV?$ChTraitsCRT@_W@ATL@@@ATL@@@ATL@@QEAA@XZ
pdata	ENDS
;	COMDAT pdata
pdata	SEGMENT
$pdata$?calc_primes@Benchmark@@AEAAXXZ DD imagerel $LN36
	DD	imagerel $LN36+229
	DD	imagerel $unwind$?calc_primes@Benchmark@@AEAAXXZ
pdata	ENDS
;	COMDAT pdata
pdata	SEGMENT
$pdata$?run@Benchmark@@AEAAHXZ DD imagerel $LN318
	DD	imagerel $LN318+808
	DD	imagerel $unwind$?run@Benchmark@@AEAAHXZ
pdata	ENDS
;	COMDAT pdata
pdata	SEGMENT
$pdata$?start_benchmark@Benchmark@@QEAAXXZ DD imagerel $LN97
	DD	imagerel $LN97+285
	DD	imagerel $unwind$?start_benchmark@Benchmark@@QEAAXXZ
pdata	ENDS
;	COMDAT pdata
pdata	SEGMENT
$pdata$??0Benchmark@@QEAA@PEAUHWND__@@PEAH@Z DD imagerel $LN26
	DD	imagerel $LN26+106
	DD	imagerel $unwind$??0Benchmark@@QEAA@PEAUHWND__@@PEAH@Z
pdata	ENDS
;	COMDAT pdata
pdata	SEGMENT
$pdata$?get_id@this_thread@std@@YA?AVid@thread@2@XZ DD imagerel $LN7
	DD	imagerel $LN7+26
	DD	imagerel $unwind$?get_id@this_thread@std@@YA?AVid@thread@2@XZ
pdata	ENDS
;	COMDAT pdata
pdata	SEGMENT
$pdata$?join@thread@std@@QEAAXXZ DD imagerel $LN23
	DD	imagerel $LN23+113
	DD	imagerel $unwind$?join@thread@std@@QEAAXXZ
pdata	ENDS
;	COMDAT pdata
pdata	SEGMENT
$pdata$?detach@thread@std@@QEAAXXZ DD imagerel $LN14
	DD	imagerel $LN14+71
	DD	imagerel $unwind$?detach@thread@std@@QEAAXXZ
pdata	ENDS
;	COMDAT pdata
pdata	SEGMENT
$pdata$??1thread@std@@QEAA@XZ DD imagerel $LN9
	DD	imagerel $LN9+22
	DD	imagerel $unwind$??1thread@std@@QEAA@XZ
pdata	ENDS
;	COMDAT pdata
pdata	SEGMENT
$pdata$?_Call_func@_Pad@std@@CAIPEAX@Z DD imagerel $LN4
	DD	imagerel $LN4+16
	DD	imagerel $unwind$?_Call_func@_Pad@std@@CAIPEAX@Z
pdata	ENDS
;	COMDAT pdata
pdata	SEGMENT
$pdata$?_Release@_Pad@std@@QEAAXXZ DD imagerel $LN19
	DD	imagerel $LN19+91
	DD	imagerel $unwind$?_Release@_Pad@std@@QEAAXXZ
pdata	ENDS
;	COMDAT pdata
pdata	SEGMENT
$pdata$?_Launch@_Pad@std@@QEAAXPEAU_Thrd_imp_t@@@Z DD imagerel $LN19
	DD	imagerel $LN19+102
	DD	imagerel $unwind$?_Launch@_Pad@std@@QEAAXPEAU_Thrd_imp_t@@@Z
pdata	ENDS
;	COMDAT pdata
pdata	SEGMENT
$pdata$??1_Pad@std@@QEAA@XZ DD imagerel $LN24
	DD	imagerel $LN24+81
	DD	imagerel $unwind$??1_Pad@std@@QEAA@XZ
pdata	ENDS
;	COMDAT pdata
pdata	SEGMENT
$pdata$??0_Pad@std@@QEAA@XZ DD imagerel $LN40
	DD	imagerel $LN40+178
	DD	imagerel $unwind$??0_Pad@std@@QEAA@XZ
pdata	ENDS
;	COMDAT pdata
pdata	SEGMENT
$pdata$?_Cnd_signalX@std@@YAHPEAU_Cnd_internal_imp_t@@@Z DD imagerel $LN8
	DD	imagerel $LN8+34
	DD	imagerel $unwind$?_Cnd_signalX@std@@YAHPEAU_Cnd_internal_imp_t@@@Z
pdata	ENDS
;	COMDAT pdata
pdata	SEGMENT
$pdata$?_Cnd_waitX@std@@YAHPEAU_Cnd_internal_imp_t@@PEAU_Mtx_internal_imp_t@@@Z DD imagerel $LN8
	DD	imagerel $LN8+34
	DD	imagerel $unwind$?_Cnd_waitX@std@@YAHPEAU_Cnd_internal_imp_t@@PEAU_Mtx_internal_imp_t@@@Z
pdata	ENDS
;	COMDAT pdata
pdata	SEGMENT
$pdata$?_Cnd_initX@std@@YAHPEAPEAU_Cnd_internal_imp_t@@@Z DD imagerel $LN8
	DD	imagerel $LN8+34
	DD	imagerel $unwind$?_Cnd_initX@std@@YAHPEAPEAU_Cnd_internal_imp_t@@@Z
pdata	ENDS
;	COMDAT pdata
pdata	SEGMENT
$pdata$?_Mtx_unlockX@std@@YAHPEAU_Mtx_internal_imp_t@@@Z DD imagerel $LN8
	DD	imagerel $LN8+34
	DD	imagerel $unwind$?_Mtx_unlockX@std@@YAHPEAU_Mtx_internal_imp_t@@@Z
pdata	ENDS
;	COMDAT pdata
pdata	SEGMENT
$pdata$?_Mtx_lockX@std@@YAHPEAU_Mtx_internal_imp_t@@@Z DD imagerel $LN8
	DD	imagerel $LN8+34
	DD	imagerel $unwind$?_Mtx_lockX@std@@YAHPEAU_Mtx_internal_imp_t@@@Z
pdata	ENDS
;	COMDAT pdata
pdata	SEGMENT
$pdata$?_Mtx_initX@std@@YAHPEAPEAU_Mtx_internal_imp_t@@H@Z DD imagerel $LN8
	DD	imagerel $LN8+39
	DD	imagerel $unwind$?_Mtx_initX@std@@YAHPEAPEAU_Mtx_internal_imp_t@@H@Z
pdata	ENDS
;	COMDAT pdata
pdata	SEGMENT
$pdata$?_Thrd_detachX@std@@YAHU_Thrd_imp_t@@@Z DD imagerel $LN8
	DD	imagerel $LN8+47
	DD	imagerel $unwind$?_Thrd_detachX@std@@YAHU_Thrd_imp_t@@@Z
pdata	ENDS
;	COMDAT pdata
pdata	SEGMENT
$pdata$?_Thrd_startX@std@@YAHPEAU_Thrd_imp_t@@P6AIPEAX@Z1@Z DD imagerel $LN8
	DD	imagerel $LN8+50
	DD	imagerel $unwind$?_Thrd_startX@std@@YAHPEAU_Thrd_imp_t@@P6AIPEAX@Z1@Z
pdata	ENDS
;	COMDAT pdata
pdata	SEGMENT
$pdata$?_Check_C_return@std@@YAHH@Z DD imagerel $LN6
	DD	imagerel $LN6+26
	DD	imagerel $unwind$?_Check_C_return@std@@YAHH@Z
pdata	ENDS
;	COMDAT pdata
pdata	SEGMENT
$pdata$??0CAtlStringMgrStaticInitializer@ATLImplementationDetails@ATL@@QEAA@XZ DD imagerel $LN4
	DD	imagerel $LN4+21
	DD	imagerel $unwind$??0CAtlStringMgrStaticInitializer@ATLImplementationDetails@ATL@@QEAA@XZ
pdata	ENDS
;	COMDAT pdata
pdata	SEGMENT
$pdata$??_GCAtlStringMgr@ATL@@UEAAPEAXI@Z DD imagerel $LN8
	DD	imagerel $LN8+33
	DD	imagerel $unwind$??_GCAtlStringMgr@ATL@@UEAAPEAXI@Z
pdata	ENDS
;	COMDAT pdata
pdata	SEGMENT
$pdata$?Reallocate@CAtlStringMgr@ATL@@UEAAPEAUCStringData@2@PEAU32@HH@Z DD imagerel $LN42
	DD	imagerel $LN42+106
	DD	imagerel $unwind$?Reallocate@CAtlStringMgr@ATL@@UEAAPEAUCStringData@2@PEAU32@HH@Z
pdata	ENDS
;	COMDAT pdata
pdata	SEGMENT
$pdata$?Allocate@CAtlStringMgr@ATL@@UEAAPEAUCStringData@2@HH@Z DD imagerel $LN43
	DD	imagerel $LN43+147
	DD	imagerel $unwind$?Allocate@CAtlStringMgr@ATL@@UEAAPEAUCStringData@2@HH@Z
pdata	ENDS
;	COMDAT pdata
pdata	SEGMENT
$pdata$?GetInstance@CAtlStringMgr@ATL@@SAPEAUIAtlStringMgr@2@XZ DD imagerel $LN21
	DD	imagerel $LN21+281
	DD	imagerel $unwind$?GetInstance@CAtlStringMgr@ATL@@SAPEAUIAtlStringMgr@2@XZ
pdata	ENDS
;	COMDAT pdata
pdata	SEGMENT
$pdata$?Format@?$ChTraitsCRT@_W@ATL@@SAHPEA_W_KPEB_WPEAD@Z DD imagerel $LN4
	DD	imagerel $LN4+104
	DD	imagerel $unwind$?Format@?$ChTraitsCRT@_W@ATL@@SAHPEA_W_KPEB_WPEAD@Z
pdata	ENDS
;	COMDAT pdata
pdata	SEGMENT
$pdata$?GetFormattedLength@?$ChTraitsCRT@_W@ATL@@SAHPEB_WPEAD@Z DD imagerel $LN4
	DD	imagerel $LN4+77
	DD	imagerel $unwind$?GetFormattedLength@?$ChTraitsCRT@_W@ATL@@SAHPEB_WPEAD@Z
pdata	ENDS
;	COMDAT pdata
pdata	SEGMENT
$pdata$??_GCWin32Heap@ATL@@UEAAPEAXI@Z DD imagerel $LN9
	DD	imagerel $LN9+79
	DD	imagerel $unwind$??_GCWin32Heap@ATL@@UEAAPEAXI@Z
pdata	ENDS
;	COMDAT pdata
pdata	SEGMENT
$pdata$?Reallocate@CWin32Heap@ATL@@UEAAPEAXPEAX_K@Z DD imagerel $LN6
	DD	imagerel $LN6+63
	DD	imagerel $unwind$?Reallocate@CWin32Heap@ATL@@UEAAPEAXPEAX_K@Z
pdata	ENDS
;	COMDAT pdata
pdata	SEGMENT
$pdata$?AtlWinModuleInit@ATL@@YAJPEAU_ATL_WIN_MODULE70@1@@Z DD imagerel $LN16
	DD	imagerel $LN16+23
	DD	imagerel $unwind$?AtlWinModuleInit@ATL@@YAJPEAU_ATL_WIN_MODULE70@1@@Z
pdata	ENDS
;	COMDAT pdata
pdata	SEGMENT
$pdata$0$?AtlWinModuleInit@ATL@@YAJPEAU_ATL_WIN_MODULE70@1@@Z DD imagerel $LN16+23
	DD	imagerel $LN16+81
	DD	imagerel $chain$0$?AtlWinModuleInit@ATL@@YAJPEAU_ATL_WIN_MODULE70@1@@Z
pdata	ENDS
;	COMDAT pdata
pdata	SEGMENT
$pdata$2$?AtlWinModuleInit@ATL@@YAJPEAU_ATL_WIN_MODULE70@1@@Z DD imagerel $LN16+81
	DD	imagerel $LN16+102
	DD	imagerel $chain$2$?AtlWinModuleInit@ATL@@YAJPEAU_ATL_WIN_MODULE70@1@@Z
pdata	ENDS
;	COMDAT pdata
pdata	SEGMENT
$pdata$?AtlWinModuleTerm@ATL@@YAJPEAU_ATL_WIN_MODULE70@1@PEAUHINSTANCE__@@@Z DD imagerel $LN39
	DD	imagerel $LN39+45
	DD	imagerel $unwind$?AtlWinModuleTerm@ATL@@YAJPEAU_ATL_WIN_MODULE70@1@PEAUHINSTANCE__@@@Z
pdata	ENDS
;	COMDAT pdata
pdata	SEGMENT
$pdata$2$?AtlWinModuleTerm@ATL@@YAJPEAU_ATL_WIN_MODULE70@1@PEAUHINSTANCE__@@@Z DD imagerel $LN39+45
	DD	imagerel $LN39+181
	DD	imagerel $chain$2$?AtlWinModuleTerm@ATL@@YAJPEAU_ATL_WIN_MODULE70@1@PEAUHINSTANCE__@@@Z
pdata	ENDS
;	COMDAT pdata
pdata	SEGMENT
$pdata$3$?AtlWinModuleTerm@ATL@@YAJPEAU_ATL_WIN_MODULE70@1@PEAUHINSTANCE__@@@Z DD imagerel $LN39+181
	DD	imagerel $LN39+189
	DD	imagerel $chain$3$?AtlWinModuleTerm@ATL@@YAJPEAU_ATL_WIN_MODULE70@1@PEAUHINSTANCE__@@@Z
pdata	ENDS
;	COMDAT pdata
pdata	SEGMENT
$pdata$4$?AtlWinModuleTerm@ATL@@YAJPEAU_ATL_WIN_MODULE70@1@PEAUHINSTANCE__@@@Z DD imagerel $LN39+189
	DD	imagerel $LN39+205
	DD	imagerel $chain$4$?AtlWinModuleTerm@ATL@@YAJPEAU_ATL_WIN_MODULE70@1@PEAUHINSTANCE__@@@Z
pdata	ENDS
;	COMDAT pdata
pdata	SEGMENT
$pdata$??__F_AtlWinModule@ATL@@YAXXZ DD imagerel ??__F_AtlWinModule@ATL@@YAXXZ
	DD	imagerel ??__F_AtlWinModule@ATL@@YAXXZ+225
	DD	imagerel $unwind$??__F_AtlWinModule@ATL@@YAXXZ
pdata	ENDS
;	COMDAT pdata
pdata	SEGMENT
$pdata$??__E_AtlWinModule@ATL@@YAXXZ DD imagerel ??__E_AtlWinModule@ATL@@YAXXZ
	DD	imagerel ??__E_AtlWinModule@ATL@@YAXXZ+150
	DD	imagerel $unwind$??__E_AtlWinModule@ATL@@YAXXZ
pdata	ENDS
;	COMDAT pdata
pdata	SEGMENT
$pdata$??1_ATL_WIN_MODULE70@ATL@@QEAA@XZ DD imagerel $LN21
	DD	imagerel $LN21+57
	DD	imagerel $unwind$??1_ATL_WIN_MODULE70@ATL@@QEAA@XZ
pdata	ENDS
;	COMDAT pdata
pdata	SEGMENT
$pdata$?Term@CAtlWinModule@ATL@@QEAAXXZ DD imagerel $LN44
	DD	imagerel $LN44+32
	DD	imagerel $unwind$?Term@CAtlWinModule@ATL@@QEAAXXZ
pdata	ENDS
;	COMDAT pdata
pdata	SEGMENT
$pdata$2$?Term@CAtlWinModule@ATL@@QEAAXXZ DD imagerel $LN44+32
	DD	imagerel $LN44+175
	DD	imagerel $chain$2$?Term@CAtlWinModule@ATL@@QEAAXXZ
pdata	ENDS
;	COMDAT pdata
pdata	SEGMENT
$pdata$3$?Term@CAtlWinModule@ATL@@QEAAXXZ DD imagerel $LN44+175
	DD	imagerel $LN44+181
	DD	imagerel $chain$3$?Term@CAtlWinModule@ATL@@QEAAXXZ
pdata	ENDS
;	COMDAT pdata
pdata	SEGMENT
$pdata$4$?Term@CAtlWinModule@ATL@@QEAAXXZ DD imagerel $LN44+181
	DD	imagerel $LN44+197
	DD	imagerel $chain$4$?Term@CAtlWinModule@ATL@@QEAAXXZ
pdata	ENDS
;	COMDAT pdata
pdata	SEGMENT
$pdata$??1CAtlWinModule@ATL@@QEAA@XZ DD imagerel $LN62
	DD	imagerel $LN62+225
	DD	imagerel $unwind$??1CAtlWinModule@ATL@@QEAA@XZ
pdata	ENDS
;	COMDAT pdata
pdata	SEGMENT
$pdata$??0CAtlWinModule@ATL@@QEAA@XZ DD imagerel $LN29
	DD	imagerel $LN29+159
	DD	imagerel $unwind$??0CAtlWinModule@ATL@@QEAA@XZ
pdata	ENDS
;	COMDAT pdata
pdata	SEGMENT
$pdata$??__F_AtlComModule@ATL@@YAXXZ DD imagerel ??__F_AtlComModule@ATL@@YAXXZ
	DD	imagerel ??__F_AtlComModule@ATL@@YAXXZ+144
	DD	imagerel $unwind$??__F_AtlComModule@ATL@@YAXXZ
pdata	ENDS
;	COMDAT pdata
pdata	SEGMENT
$pdata$??__E_AtlComModule@ATL@@YAXXZ DD imagerel ??__E_AtlComModule@ATL@@YAXXZ
	DD	imagerel ??__E_AtlComModule@ATL@@YAXXZ+182
	DD	imagerel $unwind$??__E_AtlComModule@ATL@@YAXXZ
pdata	ENDS
;	COMDAT pdata
pdata	SEGMENT
$pdata$?Term@CAtlComModule@ATL@@QEAAXXZ DD imagerel $LN16
	DD	imagerel $LN16+20
	DD	imagerel $unwind$?Term@CAtlComModule@ATL@@QEAAXXZ
pdata	ENDS
;	COMDAT pdata
pdata	SEGMENT
$pdata$1$?Term@CAtlComModule@ATL@@QEAAXXZ DD imagerel $LN16+20
	DD	imagerel $LN16+44
	DD	imagerel $chain$1$?Term@CAtlComModule@ATL@@QEAAXXZ
pdata	ENDS
;	COMDAT pdata
pdata	SEGMENT
$pdata$2$?Term@CAtlComModule@ATL@@QEAAXXZ DD imagerel $LN16+44
	DD	imagerel $LN16+108
	DD	imagerel $chain$2$?Term@CAtlComModule@ATL@@QEAAXXZ
pdata	ENDS
;	COMDAT pdata
pdata	SEGMENT
$pdata$3$?Term@CAtlComModule@ATL@@QEAAXXZ DD imagerel $LN16+108
	DD	imagerel $LN16+137
	DD	imagerel $chain$3$?Term@CAtlComModule@ATL@@QEAAXXZ
pdata	ENDS
;	COMDAT pdata
pdata	SEGMENT
$pdata$4$?Term@CAtlComModule@ATL@@QEAAXXZ DD imagerel $LN16+137
	DD	imagerel $LN16+142
	DD	imagerel $chain$4$?Term@CAtlComModule@ATL@@QEAAXXZ
pdata	ENDS
;	COMDAT pdata
pdata	SEGMENT
$pdata$??1CAtlComModule@ATL@@QEAA@XZ DD imagerel $LN24
	DD	imagerel $LN24+147
	DD	imagerel $unwind$??1CAtlComModule@ATL@@QEAA@XZ
pdata	ENDS
;	COMDAT pdata
pdata	SEGMENT
$pdata$??0CAtlComModule@ATL@@QEAA@XZ DD imagerel $LN22
	DD	imagerel $LN22+174
	DD	imagerel $unwind$??0CAtlComModule@ATL@@QEAA@XZ
pdata	ENDS
;	COMDAT pdata
pdata	SEGMENT
$pdata$?Term@CComCriticalSection@ATL@@QEAAJXZ DD imagerel $LN4
	DD	imagerel $LN4+17
	DD	imagerel $unwind$?Term@CComCriticalSection@ATL@@QEAAJXZ
pdata	ENDS
;	COMDAT pdata
pdata	SEGMENT
$pdata$?Init@CComCriticalSection@ATL@@QEAAJXZ DD imagerel $LN12
	DD	imagerel $LN12+49
	DD	imagerel $unwind$?Init@CComCriticalSection@ATL@@QEAAJXZ
pdata	ENDS
;	COMDAT pdata
pdata	SEGMENT
$pdata$?AtlThrowImpl@ATL@@YAXJ@Z DD imagerel $LN4
	DD	imagerel $LN4+34
	DD	imagerel $unwind$?AtlThrowImpl@ATL@@YAXJ@Z
pdata	ENDS
;	COMDAT CRT$XCU
CRT$XCU	SEGMENT
?_AtlComModule$initializer$@ATL@@3P6AXXZEA DQ FLAT:??__E_AtlComModule@ATL@@YAXXZ ; ATL::_AtlComModule$initializer$
;	COMDAT __xmm@000000000000006d0000000000000006
CONST	SEGMENT
__xmm@000000000000006d0000000000000006 DB 06H, 00H, 00H, 00H, 00H, 00H, 00H
	DB	00H, 'm', 00H, 00H, 00H, 00H, 00H, 00H, 00H
CONST	ENDS
;	COMDAT __xmm@000000000000000f0000000000000000
CONST	SEGMENT
__xmm@000000000000000f0000000000000000 DB 00H, 00H, 00H, 00H, 00H, 00H, 00H
	DB	00H, 0fH, 00H, 00H, 00H, 00H, 00H, 00H, 00H
CONST	ENDS
;	COMDAT __real@bf800000
CONST	SEGMENT
__real@bf800000 DD 0bf800000r			; -1
CONST	ENDS
;	COMDAT __real@5f800000
CONST	SEGMENT
__real@5f800000 DD 05f800000r			; 1.84467e+19
CONST	ENDS
;	COMDAT __real@42c80000
CONST	SEGMENT
__real@42c80000 DD 042c80000r			; 100
CONST	ENDS
;	COMDAT __real@412e848000000000
CONST	SEGMENT
__real@412e848000000000 DQ 0412e848000000000r	; 1e+06
CONST	ENDS
;	COMDAT __real@4000000000000000
CONST	SEGMENT
__real@4000000000000000 DQ 04000000000000000r	; 2
CONST	ENDS
;	COMDAT __real@3f800000
CONST	SEGMENT
__real@3f800000 DD 03f800000r			; 1
CONST	ENDS
;	COMDAT xdata
xdata	SEGMENT
$unwind$?AtlThrowImpl@ATL@@YAXJ@Z DD 010401H
	DD	04204H
xdata	ENDS
;	COMDAT xdata
xdata	SEGMENT
$unwind$?Init@CComCriticalSection@ATL@@QEAAJXZ DD 010401H
	DD	04204H
xdata	ENDS
;	COMDAT xdata
xdata	SEGMENT
$unwind$?Term@CComCriticalSection@ATL@@QEAAJXZ DD 010401H
	DD	04204H
xdata	ENDS
;	COMDAT xdata
xdata	SEGMENT
$unwind$??0CAtlComModule@ATL@@QEAA@XZ DD 010401H
	DD	04204H
xdata	ENDS
;	COMDAT xdata
xdata	SEGMENT
$ip2state$??1CAtlComModule@ATL@@QEAA@XZ DD imagerel ??1CAtlComModule@ATL@@QEAA@XZ+88
	DD	0ffffffffH
xdata	ENDS
;	COMDAT CONST
CONST	SEGMENT
$cppxdata$??1CAtlComModule@ATL@@QEAA@XZ DD 019930522H
	DD	00H
	DD	00H
	DD	00H
	DD	00H
	DD	01H
	DD	imagerel $ip2state$??1CAtlComModule@ATL@@QEAA@XZ
	DD	020H
	DD	00H
	DD	05H
CONST	ENDS
;	COMDAT xdata
xdata	SEGMENT
$unwind$??1CAtlComModule@ATL@@QEAA@XZ DD 061919H
	DD	096419H
	DD	083414H
	DD	070025206H
	DD	imagerel __CxxFrameHandler3
	DD	imagerel $cppxdata$??1CAtlComModule@ATL@@QEAA@XZ
xdata	ENDS
;	COMDAT xdata
xdata	SEGMENT
$chain$4$?Term@CAtlComModule@ATL@@QEAAXXZ DD 021H
	DD	imagerel $LN16
	DD	imagerel $LN16+20
	DD	imagerel $unwind$?Term@CAtlComModule@ATL@@QEAAXXZ
xdata	ENDS
;	COMDAT xdata
xdata	SEGMENT
$chain$3$?Term@CAtlComModule@ATL@@QEAAXXZ DD 021H
	DD	imagerel $LN16+20
	DD	imagerel $LN16+44
	DD	imagerel $chain$1$?Term@CAtlComModule@ATL@@QEAAXXZ
xdata	ENDS
;	COMDAT xdata
xdata	SEGMENT
$chain$2$?Term@CAtlComModule@ATL@@QEAAXXZ DD 020521H
	DD	047405H
	DD	imagerel $LN16+20
	DD	imagerel $LN16+44
	DD	imagerel $chain$1$?Term@CAtlComModule@ATL@@QEAAXXZ
xdata	ENDS
;	COMDAT xdata
xdata	SEGMENT
$chain$1$?Term@CAtlComModule@ATL@@QEAAXXZ DD 041121H
	DD	076411H
	DD	063405H
	DD	imagerel $LN16
	DD	imagerel $LN16+20
	DD	imagerel $unwind$?Term@CAtlComModule@ATL@@QEAAXXZ
xdata	ENDS
;	COMDAT xdata
xdata	SEGMENT
$unwind$?Term@CAtlComModule@ATL@@QEAAXXZ DD 010401H
	DD	04204H
xdata	ENDS
;	COMDAT xdata
xdata	SEGMENT
$unwind$??__E_AtlComModule@ATL@@YAXXZ DD 010401H
	DD	04204H
xdata	ENDS
;	COMDAT xdata
xdata	SEGMENT
$ip2state$??__F_AtlComModule@ATL@@YAXXZ DD imagerel ??__F_AtlComModule@ATL@@YAXXZ+87
	DD	00H
xdata	ENDS
;	COMDAT xdata
xdata	SEGMENT
$stateUnwindMap$??__F_AtlComModule@ATL@@YAXXZ DD 0ffffffffH
	DD	imagerel __imp___std_terminate
xdata	ENDS
;	COMDAT CONST
CONST	SEGMENT
$cppxdata$??__F_AtlComModule@ATL@@YAXXZ DD 019930522H
	DD	01H
	DD	imagerel $stateUnwindMap$??__F_AtlComModule@ATL@@YAXXZ
	DD	00H
	DD	00H
	DD	01H
	DD	imagerel $ip2state$??__F_AtlComModule@ATL@@YAXXZ
	DD	020H
	DD	00H
	DD	01H
CONST	ENDS
;	COMDAT xdata
xdata	SEGMENT
$unwind$??__F_AtlComModule@ATL@@YAXXZ DD 061911H
	DD	096419H
	DD	083414H
	DD	070025206H
	DD	imagerel __CxxFrameHandler3
	DD	imagerel $cppxdata$??__F_AtlComModule@ATL@@YAXXZ
xdata	ENDS
;	COMDAT xdata
xdata	SEGMENT
$unwind$??0CAtlWinModule@ATL@@QEAA@XZ DD 020601H
	DD	030023206H
xdata	ENDS
;	COMDAT xdata
xdata	SEGMENT
$unwind$??1CAtlWinModule@ATL@@QEAA@XZ DD 081401H
	DD	086414H
	DD	075414H
	DD	063414H
	DD	070103214H
xdata	ENDS
;	COMDAT xdata
xdata	SEGMENT
$chain$4$?Term@CAtlWinModule@ATL@@QEAAXXZ DD 060021H
	DD	087400H
	DD	075400H
	DD	063400H
	DD	imagerel $LN44
	DD	imagerel $LN44+32
	DD	imagerel $unwind$?Term@CAtlWinModule@ATL@@QEAAXXZ
xdata	ENDS
;	COMDAT xdata
xdata	SEGMENT
$chain$3$?Term@CAtlWinModule@ATL@@QEAAXXZ DD 021H
	DD	imagerel $LN44
	DD	imagerel $LN44+32
	DD	imagerel $unwind$?Term@CAtlWinModule@ATL@@QEAAXXZ
xdata	ENDS
;	COMDAT xdata
xdata	SEGMENT
$chain$2$?Term@CAtlWinModule@ATL@@QEAAXXZ DD 061121H
	DD	087411H
	DD	07540aH
	DD	063405H
	DD	imagerel $LN44
	DD	imagerel $LN44+32
	DD	imagerel $unwind$?Term@CAtlWinModule@ATL@@QEAAXXZ
xdata	ENDS
;	COMDAT xdata
xdata	SEGMENT
$unwind$?Term@CAtlWinModule@ATL@@QEAAXXZ DD 020601H
	DD	060023206H
xdata	ENDS
;	COMDAT xdata
xdata	SEGMENT
$unwind$??1_ATL_WIN_MODULE70@ATL@@QEAA@XZ DD 010401H
	DD	04204H
xdata	ENDS
;	COMDAT xdata
xdata	SEGMENT
$unwind$??__E_AtlWinModule@ATL@@YAXXZ DD 020601H
	DD	030023206H
xdata	ENDS
;	COMDAT xdata
xdata	SEGMENT
$unwind$??__F_AtlWinModule@ATL@@YAXXZ DD 081401H
	DD	086414H
	DD	075414H
	DD	063414H
	DD	070103214H
xdata	ENDS
;	COMDAT xdata
xdata	SEGMENT
$chain$4$?AtlWinModuleTerm@ATL@@YAJPEAU_ATL_WIN_MODULE70@1@PEAUHINSTANCE__@@@Z DD 060021H
	DD	087400H
	DD	075400H
	DD	063400H
	DD	imagerel $LN39
	DD	imagerel $LN39+45
	DD	imagerel $unwind$?AtlWinModuleTerm@ATL@@YAJPEAU_ATL_WIN_MODULE70@1@PEAUHINSTANCE__@@@Z
xdata	ENDS
;	COMDAT xdata
xdata	SEGMENT
$chain$3$?AtlWinModuleTerm@ATL@@YAJPEAU_ATL_WIN_MODULE70@1@PEAUHINSTANCE__@@@Z DD 021H
	DD	imagerel $LN39
	DD	imagerel $LN39+45
	DD	imagerel $unwind$?AtlWinModuleTerm@ATL@@YAJPEAU_ATL_WIN_MODULE70@1@PEAUHINSTANCE__@@@Z
xdata	ENDS
;	COMDAT xdata
xdata	SEGMENT
$chain$2$?AtlWinModuleTerm@ATL@@YAJPEAU_ATL_WIN_MODULE70@1@PEAUHINSTANCE__@@@Z DD 061121H
	DD	087411H
	DD	07540aH
	DD	063405H
	DD	imagerel $LN39
	DD	imagerel $LN39+45
	DD	imagerel $unwind$?AtlWinModuleTerm@ATL@@YAJPEAU_ATL_WIN_MODULE70@1@PEAUHINSTANCE__@@@Z
xdata	ENDS
;	COMDAT xdata
xdata	SEGMENT
$unwind$?AtlWinModuleTerm@ATL@@YAJPEAU_ATL_WIN_MODULE70@1@PEAUHINSTANCE__@@@Z DD 020601H
	DD	060023206H
xdata	ENDS
;	COMDAT xdata
xdata	SEGMENT
$chain$2$?AtlWinModuleInit@ATL@@YAJPEAU_ATL_WIN_MODULE70@1@@Z DD 020021H
	DD	043400H
	DD	imagerel $LN16
	DD	imagerel $LN16+23
	DD	imagerel $unwind$?AtlWinModuleInit@ATL@@YAJPEAU_ATL_WIN_MODULE70@1@@Z
xdata	ENDS
;	COMDAT xdata
xdata	SEGMENT
$chain$0$?AtlWinModuleInit@ATL@@YAJPEAU_ATL_WIN_MODULE70@1@@Z DD 020521H
	DD	043405H
	DD	imagerel $LN16
	DD	imagerel $LN16+23
	DD	imagerel $unwind$?AtlWinModuleInit@ATL@@YAJPEAU_ATL_WIN_MODULE70@1@@Z
xdata	ENDS
;	COMDAT xdata
xdata	SEGMENT
$unwind$?AtlWinModuleInit@ATL@@YAJPEAU_ATL_WIN_MODULE70@1@@Z DD 010401H
	DD	04204H
xdata	ENDS
;	COMDAT xdata
xdata	SEGMENT
$unwind$?Reallocate@CWin32Heap@ATL@@UEAAPEAXPEAX_K@Z DD 010401H
	DD	04204H
xdata	ENDS
;	COMDAT xdata
xdata	SEGMENT
$unwind$??_GCWin32Heap@ATL@@UEAAPEAXI@Z DD 040a01H
	DD	06340aH
	DD	07006320aH
xdata	ENDS
;	COMDAT xdata
xdata	SEGMENT
$unwind$?GetFormattedLength@?$ChTraitsCRT@_W@ATL@@SAHPEB_WPEAD@Z DD 040a01H
	DD	08340aH
	DD	07006520aH
xdata	ENDS
;	COMDAT xdata
xdata	SEGMENT
$unwind$?Format@?$ChTraitsCRT@_W@ATL@@SAHPEA_W_KPEB_WPEAD@Z DD 081401H
	DD	0a6414H
	DD	095414H
	DD	083414H
	DD	070105214H
xdata	ENDS
;	COMDAT xdata
xdata	SEGMENT
$unwind$?GetInstance@CAtlStringMgr@ATL@@SAPEAUIAtlStringMgr@2@XZ DD 020601H
	DD	030023206H
xdata	ENDS
;	COMDAT xdata
xdata	SEGMENT
$unwind$?Allocate@CAtlStringMgr@ATL@@UEAAPEAUCStringData@2@HH@Z DD 040a01H
	DD	09340aH
	DD	07006320aH
xdata	ENDS
;	COMDAT xdata
xdata	SEGMENT
$unwind$?Reallocate@CAtlStringMgr@ATL@@UEAAPEAUCStringData@2@PEAU32@HH@Z DD 020601H
	DD	030023206H
xdata	ENDS
;	COMDAT xdata
xdata	SEGMENT
$unwind$??_GCAtlStringMgr@ATL@@UEAAPEAXI@Z DD 020601H
	DD	030023206H
xdata	ENDS
;	COMDAT xdata
xdata	SEGMENT
$unwind$??0CAtlStringMgrStaticInitializer@ATLImplementationDetails@ATL@@QEAA@XZ DD 010401H
	DD	04204H
xdata	ENDS
;	COMDAT xdata
xdata	SEGMENT
$unwind$?_Check_C_return@std@@YAHH@Z DD 020601H
	DD	030023206H
xdata	ENDS
;	COMDAT xdata
xdata	SEGMENT
$unwind$?_Thrd_startX@std@@YAHPEAU_Thrd_imp_t@@P6AIPEAX@Z1@Z DD 020601H
	DD	030023206H
xdata	ENDS
;	COMDAT xdata
xdata	SEGMENT
$unwind$?_Thrd_detachX@std@@YAHU_Thrd_imp_t@@@Z DD 020601H
	DD	030025206H
xdata	ENDS
;	COMDAT xdata
xdata	SEGMENT
$unwind$?_Mtx_initX@std@@YAHPEAPEAU_Mtx_internal_imp_t@@H@Z DD 020601H
	DD	030023206H
xdata	ENDS
;	COMDAT xdata
xdata	SEGMENT
$unwind$?_Mtx_lockX@std@@YAHPEAU_Mtx_internal_imp_t@@@Z DD 020601H
	DD	030023206H
xdata	ENDS
;	COMDAT xdata
xdata	SEGMENT
$unwind$?_Mtx_unlockX@std@@YAHPEAU_Mtx_internal_imp_t@@@Z DD 020601H
	DD	030023206H
xdata	ENDS
;	COMDAT xdata
xdata	SEGMENT
$unwind$?_Cnd_initX@std@@YAHPEAPEAU_Cnd_internal_imp_t@@@Z DD 020601H
	DD	030023206H
xdata	ENDS
;	COMDAT xdata
xdata	SEGMENT
$unwind$?_Cnd_waitX@std@@YAHPEAU_Cnd_internal_imp_t@@PEAU_Mtx_internal_imp_t@@@Z DD 020601H
	DD	030023206H
xdata	ENDS
;	COMDAT xdata
xdata	SEGMENT
$unwind$?_Cnd_signalX@std@@YAHPEAU_Cnd_internal_imp_t@@@Z DD 020601H
	DD	030023206H
xdata	ENDS
;	COMDAT xdata
xdata	SEGMENT
$ip2state$??0_Pad@std@@QEAA@XZ DD imagerel ??0_Pad@std@@QEAA@XZ+54
	DD	0ffffffffH
	DD	imagerel ??0_Pad@std@@QEAA@XZ+102
	DD	00H
	DD	imagerel ??0_Pad@std@@QEAA@XZ+144
	DD	01H
	DD	imagerel ??0_Pad@std@@QEAA@XZ+162
	DD	0ffffffffH
xdata	ENDS
;	COMDAT xdata
xdata	SEGMENT
$stateUnwindMap$??0_Pad@std@@QEAA@XZ DD 0ffffffffH
	DD	imagerel ?dtor$0@?0???0_Pad@std@@QEAA@XZ@4HA
	DD	00H
	DD	imagerel ?dtor$1@?0???0_Pad@std@@QEAA@XZ@4HA
xdata	ENDS
;	COMDAT CONST
CONST	SEGMENT
$cppxdata$??0_Pad@std@@QEAA@XZ DD 019930522H
	DD	02H
	DD	imagerel $stateUnwindMap$??0_Pad@std@@QEAA@XZ
	DD	00H
	DD	00H
	DD	04H
	DD	imagerel $ip2state$??0_Pad@std@@QEAA@XZ
	DD	020H
	DD	00H
	DD	01H
CONST	ENDS
;	COMDAT xdata
xdata	SEGMENT
$unwind$??0_Pad@std@@QEAA@XZ DD 042319H
	DD	0d3414H
	DD	070029206H
	DD	imagerel __GSHandlerCheck_EH
	DD	imagerel $cppxdata$??0_Pad@std@@QEAA@XZ
	DD	04aH
xdata	ENDS
;	COMDAT xdata
xdata	SEGMENT
$ip2state$??1_Pad@std@@QEAA@XZ DD imagerel ??1_Pad@std@@QEAA@XZ+44
	DD	0ffffffffH
xdata	ENDS
;	COMDAT CONST
CONST	SEGMENT
$cppxdata$??1_Pad@std@@QEAA@XZ DD 019930522H
	DD	00H
	DD	00H
	DD	00H
	DD	00H
	DD	01H
	DD	imagerel $ip2state$??1_Pad@std@@QEAA@XZ
	DD	020H
	DD	00H
	DD	05H
CONST	ENDS
;	COMDAT xdata
xdata	SEGMENT
$unwind$??1_Pad@std@@QEAA@XZ DD 041419H
	DD	093414H
	DD	070025206H
	DD	imagerel __CxxFrameHandler3
	DD	imagerel $cppxdata$??1_Pad@std@@QEAA@XZ
xdata	ENDS
;	COMDAT xdata
xdata	SEGMENT
$unwind$?_Launch@_Pad@std@@QEAAXPEAU_Thrd_imp_t@@@Z DD 020601H
	DD	030023206H
xdata	ENDS
;	COMDAT xdata
xdata	SEGMENT
$unwind$?_Release@_Pad@std@@QEAAXXZ DD 020601H
	DD	030023206H
xdata	ENDS
;	COMDAT xdata
xdata	SEGMENT
$unwind$?_Call_func@_Pad@std@@CAIPEAX@Z DD 010401H
	DD	04204H
xdata	ENDS
;	COMDAT xdata
xdata	SEGMENT
$unwind$??1thread@std@@QEAA@XZ DD 010401H
	DD	04204H
xdata	ENDS
;	COMDAT xdata
xdata	SEGMENT
$unwind$?detach@thread@std@@QEAAXXZ DD 020601H
	DD	030025206H
xdata	ENDS
;	COMDAT xdata
xdata	SEGMENT
$unwind$?join@thread@std@@QEAAXXZ DD 020601H
	DD	030025206H
xdata	ENDS
;	COMDAT xdata
xdata	SEGMENT
$unwind$?get_id@this_thread@std@@YA?AVid@thread@2@XZ DD 020601H
	DD	030023206H
xdata	ENDS
;	COMDAT xdata
xdata	SEGMENT
$unwind$??0Benchmark@@QEAA@PEAUHWND__@@PEAH@Z DD 040a01H
	DD	06340aH
	DD	07006320aH
xdata	ENDS
;	COMDAT xdata
xdata	SEGMENT
$ip2state$?start_benchmark@Benchmark@@QEAAXXZ DD imagerel ?start_benchmark@Benchmark@@QEAAXXZ+48
	DD	0ffffffffH
	DD	imagerel ?start_benchmark@Benchmark@@QEAAXXZ+85
	DD	00H
	DD	imagerel ?start_benchmark@Benchmark@@QEAAXXZ+216
	DD	01H
	DD	imagerel ?start_benchmark@Benchmark@@QEAAXXZ+260
	DD	0ffffffffH
xdata	ENDS
;	COMDAT xdata
xdata	SEGMENT
$stateUnwindMap$?start_benchmark@Benchmark@@QEAAXXZ DD 0ffffffffH
	DD	imagerel ?dtor$1@?0??start_benchmark@Benchmark@@QEAAXXZ@4HA
	DD	0ffffffffH
	DD	imagerel ?dtor$0@?0??start_benchmark@Benchmark@@QEAAXXZ@4HA
xdata	ENDS
;	COMDAT CONST
CONST	SEGMENT
$cppxdata$?start_benchmark@Benchmark@@QEAAXXZ DD 019930522H
	DD	02H
	DD	imagerel $stateUnwindMap$?start_benchmark@Benchmark@@QEAAXXZ
	DD	00H
	DD	00H
	DD	04H
	DD	imagerel $ip2state$?start_benchmark@Benchmark@@QEAAXXZ
	DD	070H
	DD	00H
	DD	01H
CONST	ENDS
;	COMDAT xdata
xdata	SEGMENT
$unwind$?start_benchmark@Benchmark@@QEAAXXZ DD 032419H
	DD	0140109H
	DD	03002H
	DD	imagerel __GSHandlerCheck_EH
	DD	imagerel $cppxdata$?start_benchmark@Benchmark@@QEAAXXZ
	DD	092H
xdata	ENDS
;	COMDAT xdata
xdata	SEGMENT
$ip2state$?run@Benchmark@@AEAAHXZ DD imagerel ?run@Benchmark@@AEAAHXZ+261
	DD	0ffffffffH
	DD	imagerel ?run@Benchmark@@AEAAHXZ+298
	DD	00H
	DD	imagerel ?run@Benchmark@@AEAAHXZ+332
	DD	01H
	DD	imagerel ?run@Benchmark@@AEAAHXZ+481
	DD	02H
	DD	imagerel ?run@Benchmark@@AEAAHXZ+495
	DD	01H
	DD	imagerel ?run@Benchmark@@AEAAHXZ+525
	DD	03H
	DD	imagerel ?run@Benchmark@@AEAAHXZ+746
	DD	01H
	DD	imagerel ?run@Benchmark@@AEAAHXZ+781
	DD	0ffffffffH
xdata	ENDS
;	COMDAT xdata
xdata	SEGMENT
$stateUnwindMap$?run@Benchmark@@AEAAHXZ DD 0ffffffffH
	DD	imagerel ?dtor$2@?0??run@Benchmark@@AEAAHXZ@4HA
	DD	0ffffffffH
	DD	imagerel ?dtor$0@?0??run@Benchmark@@AEAAHXZ@4HA
	DD	01H
	DD	imagerel ?dtor$4@?0??run@Benchmark@@AEAAHXZ@4HA
	DD	01H
	DD	imagerel ?dtor$1@?0??run@Benchmark@@AEAAHXZ@4HA
xdata	ENDS
;	COMDAT CONST
CONST	SEGMENT
$cppxdata$?run@Benchmark@@AEAAHXZ DD 019930522H
	DD	04H
	DD	imagerel $stateUnwindMap$?run@Benchmark@@AEAAHXZ
	DD	00H
	DD	00H
	DD	08H
	DD	imagerel $ip2state$?run@Benchmark@@AEAAHXZ
	DD	030H
	DD	00H
	DD	01H
CONST	ENDS
;	COMDAT xdata
xdata	SEGMENT
$unwind$?run@Benchmark@@AEAAHXZ DD 082d19H
	DD	013741fH
	DD	012641bH
	DD	0113417H
	DD	05004d20bH
	DD	imagerel __GSHandlerCheck_EH
	DD	imagerel $cppxdata$?run@Benchmark@@AEAAHXZ
	DD	062H
xdata	ENDS
;	COMDAT xdata
xdata	SEGMENT
$unwind$?calc_primes@Benchmark@@AEAAXXZ DD 060f01H
	DD	07640fH
	DD	06340fH
	DD	0700b320fH
xdata	ENDS
;	COMDAT xdata
xdata	SEGMENT
$unwind$??0?$CStringT@_WV?$StrTraitATL@_WV?$ChTraitsCRT@_W@ATL@@@ATL@@@ATL@@QEAA@XZ DD 020601H
	DD	030023206H
xdata	ENDS
;	COMDAT xdata
xdata	SEGMENT
$unwind$??A?$CSimpleArray@GV?$CSimpleArrayEqualHelper@G@ATL@@@ATL@@QEAAAEAGH@Z DD 010401H
	DD	04204H
xdata	ENDS
;	COMDAT xdata
xdata	SEGMENT
$unwind$?RemoveAll@?$CSimpleArray@GV?$CSimpleArrayEqualHelper@G@ATL@@@ATL@@QEAAXXZ DD 020601H
	DD	030023206H
xdata	ENDS
;	COMDAT xdata
xdata	SEGMENT
$unwind$??0?$CSimpleStringT@_W$0A@@ATL@@QEAA@PEAUIAtlStringMgr@1@@Z DD 020601H
	DD	030023206H
xdata	ENDS
;	COMDAT xdata
xdata	SEGMENT
$unwind$??1?$CSimpleArray@GV?$CSimpleArrayEqualHelper@G@ATL@@@ATL@@QEAA@XZ DD 020601H
	DD	030023206H
xdata	ENDS
;	COMDAT xdata
xdata	SEGMENT
$unwind$?Format@?$CStringT@_WV?$StrTraitATL@_WV?$ChTraitsCRT@_W@ATL@@@ATL@@@ATL@@QEAAXPEB_WZZ DD 071b01H
	DD	0f017621bH
	DD	07013e015H
	DD	050116012H
	DD	03010H
xdata	ENDS
;	COMDAT xdata
xdata	SEGMENT
$ip2state$??$?0P8Benchmark@@EAAHXZPEAV0@X@thread@std@@QEAA@$$QEAP8Benchmark@@EAAHXZ$$QEAPEAV2@@Z DD imagerel ??$?0P8Benchmark@@EAAHXZPEAV0@X@thread@std@@QEAA@$$QEAP8Benchmark@@EAAHXZ$$QEAPEAV2@@Z+39
	DD	0ffffffffH
	DD	imagerel ??$?0P8Benchmark@@EAAHXZPEAV0@X@thread@std@@QEAA@$$QEAP8Benchmark@@EAAHXZ$$QEAPEAV2@@Z+73
	DD	00H
xdata	ENDS
;	COMDAT xdata
xdata	SEGMENT
$stateUnwindMap$??$?0P8Benchmark@@EAAHXZPEAV0@X@thread@std@@QEAA@$$QEAP8Benchmark@@EAAHXZ$$QEAPEAV2@@Z DD 0ffffffffH
	DD	imagerel ?dtor$0@?0???$?0P8Benchmark@@EAAHXZPEAV0@X@thread@std@@QEAA@$$QEAP8Benchmark@@EAAHXZ$$QEAPEAV2@@Z@4HA
xdata	ENDS
;	COMDAT CONST
CONST	SEGMENT
$cppxdata$??$?0P8Benchmark@@EAAHXZPEAV0@X@thread@std@@QEAA@$$QEAP8Benchmark@@EAAHXZ$$QEAPEAV2@@Z DD 019930522H
	DD	01H
	DD	imagerel $stateUnwindMap$??$?0P8Benchmark@@EAAHXZPEAV0@X@thread@std@@QEAA@$$QEAP8Benchmark@@EAAHXZ$$QEAPEAV2@@Z
	DD	00H
	DD	00H
	DD	02H
	DD	imagerel $ip2state$??$?0P8Benchmark@@EAAHXZPEAV0@X@thread@std@@QEAA@$$QEAP8Benchmark@@EAAHXZ$$QEAPEAV2@@Z
	DD	028H
	DD	00H
	DD	01H
CONST	ENDS
;	COMDAT xdata
xdata	SEGMENT
$unwind$??$?0P8Benchmark@@EAAHXZPEAV0@X@thread@std@@QEAA@$$QEAP8Benchmark@@EAAHXZ$$QEAPEAV2@@Z DD 061911H
	DD	0a6419H
	DD	093414H
	DD	070025206H
	DD	imagerel __CxxFrameHandler3
	DD	imagerel $cppxdata$??$?0P8Benchmark@@EAAHXZPEAV0@X@thread@std@@QEAA@$$QEAP8Benchmark@@EAAHXZ$$QEAPEAV2@@Z
xdata	ENDS
;	COMDAT xdata
xdata	SEGMENT
$ip2state$??$?0P8Benchmark@@EAAHHH@ZPEAV0@HHX@thread@std@@QEAA@$$QEAP8Benchmark@@EAAHHH@Z$$QEAPEAV2@$$QEAH2@Z DD imagerel ??$?0P8Benchmark@@EAAHHH@ZPEAV0@HHX@thread@std@@QEAA@$$QEAP8Benchmark@@EAAHHH@Z$$QEAPEAV2@$$QEAH2@Z+47
	DD	0ffffffffH
	DD	imagerel ??$?0P8Benchmark@@EAAHHH@ZPEAV0@HHX@thread@std@@QEAA@$$QEAP8Benchmark@@EAAHHH@Z$$QEAPEAV2@$$QEAH2@Z+98
	DD	00H
xdata	ENDS
;	COMDAT xdata
xdata	SEGMENT
$stateUnwindMap$??$?0P8Benchmark@@EAAHHH@ZPEAV0@HHX@thread@std@@QEAA@$$QEAP8Benchmark@@EAAHHH@Z$$QEAPEAV2@$$QEAH2@Z DD 0ffffffffH
	DD	imagerel ?dtor$0@?0???$?0P8Benchmark@@EAAHHH@ZPEAV0@HHX@thread@std@@QEAA@$$QEAP8Benchmark@@EAAHHH@Z$$QEAPEAV2@$$QEAH2@Z@4HA
xdata	ENDS
;	COMDAT CONST
CONST	SEGMENT
$cppxdata$??$?0P8Benchmark@@EAAHHH@ZPEAV0@HHX@thread@std@@QEAA@$$QEAP8Benchmark@@EAAHHH@Z$$QEAPEAV2@$$QEAH2@Z DD 019930522H
	DD	01H
	DD	imagerel $stateUnwindMap$??$?0P8Benchmark@@EAAHHH@ZPEAV0@HHX@thread@std@@QEAA@$$QEAP8Benchmark@@EAAHHH@Z$$QEAPEAV2@$$QEAH2@Z
	DD	00H
	DD	00H
	DD	02H
	DD	imagerel $ip2state$??$?0P8Benchmark@@EAAHHH@ZPEAV0@HHX@thread@std@@QEAA@$$QEAP8Benchmark@@EAAHHH@Z$$QEAPEAV2@$$QEAH2@Z
	DD	028H
	DD	00H
	DD	01H
CONST	ENDS
;	COMDAT xdata
xdata	SEGMENT
$unwind$??$?0P8Benchmark@@EAAHHH@ZPEAV0@HHX@thread@std@@QEAA@$$QEAP8Benchmark@@EAAHHH@Z$$QEAPEAV2@$$QEAH2@Z DD 081e11H
	DD	0b641eH
	DD	0a5419H
	DD	093414H
	DD	070025206H
	DD	imagerel __CxxFrameHandler3
	DD	imagerel $cppxdata$??$?0P8Benchmark@@EAAHHH@ZPEAV0@HHX@thread@std@@QEAA@$$QEAP8Benchmark@@EAAHHH@Z$$QEAPEAV2@$$QEAH2@Z
xdata	ENDS
;	COMDAT xdata
xdata	SEGMENT
$unwind$?FormatV@?$CStringT@_WV?$StrTraitATL@_WV?$ChTraitsCRT@_W@ATL@@@ATL@@@ATL@@QEAAXPEB_WPEAD@Z DD 0a1801H
	DD	0c6418H
	DD	0b5418H
	DD	0a3418H
	DD	0f0145218H
	DD	07010e012H
xdata	ENDS
;	COMDAT xdata
xdata	SEGMENT
$unwind$?ReleaseBufferSetLength@?$CSimpleStringT@_W$0A@@ATL@@QEAAXH@Z DD 010401H
	DD	04204H
xdata	ENDS
;	COMDAT xdata
xdata	SEGMENT
$unwind$?GetBuffer@?$CSimpleStringT@_W$0A@@ATL@@QEAAPEA_WH@Z DD 020601H
	DD	030023206H
xdata	ENDS
;	COMDAT xdata
xdata	SEGMENT
$unwind$?SetLength@?$CSimpleStringT@_W$0A@@ATL@@AEAAXH@Z DD 010401H
	DD	04204H
xdata	ENDS
;	COMDAT xdata
xdata	SEGMENT
$unwind$?PrepareWrite@?$CSimpleStringT@_W$0A@@ATL@@AEAAPEA_WH@Z DD 020601H
	DD	030023206H
xdata	ENDS
;	COMDAT xdata
xdata	SEGMENT
$unwind$?Reallocate@?$CSimpleStringT@_W$0A@@ATL@@AEAAXH@Z DD 020601H
	DD	030023206H
xdata	ENDS
;	COMDAT xdata
xdata	SEGMENT
$chain$1$?Fork@?$CSimpleStringT@_W$0A@@ATL@@AEAAXH@Z DD 021H
	DD	imagerel $LN20
	DD	imagerel $LN20+74
	DD	imagerel $unwind$?Fork@?$CSimpleStringT@_W$0A@@ATL@@AEAAXH@Z
xdata	ENDS
;	COMDAT xdata
xdata	SEGMENT
$chain$0$?Fork@?$CSimpleStringT@_W$0A@@ATL@@AEAAXH@Z DD 020521H
	DD	086405H
	DD	imagerel $LN20
	DD	imagerel $LN20+74
	DD	imagerel $unwind$?Fork@?$CSimpleStringT@_W$0A@@ATL@@AEAAXH@Z
xdata	ENDS
;	COMDAT xdata
xdata	SEGMENT
$unwind$?Fork@?$CSimpleStringT@_W$0A@@ATL@@AEAAXH@Z DD 0a1901H
	DD	0b7419H
	DD	0a5419H
	DD	093419H
	DD	0f0153219H
	DD	0d011e013H
xdata	ENDS
;	COMDAT xdata
xdata	SEGMENT
$unwind$?ThrowMemoryException@?$CSimpleStringT@_W$0A@@ATL@@KAXXZ DD 010401H
	DD	04204H
xdata	ENDS
;	COMDAT xdata
xdata	SEGMENT
$unwind$?CopyChars@?$CSimpleStringT@_W$0A@@ATL@@SAXPEA_W_KPEB_WH@Z DD 060f01H
	DD	07640fH
	DD	06340fH
	DD	0700b320fH
xdata	ENDS
;	COMDAT xdata
xdata	SEGMENT
$unwind$??$make_unique@V?$tuple@P8Benchmark@@EAAHXZPEAV1@@std@@P8Benchmark@@EAAHXZPEAV3@$0A@@std@@YA?AV?$unique_ptr@V?$tuple@P8Benchmark@@EAAHXZPEAV1@@std@@U?$default_delete@V?$tuple@P8Benchmark@@EAAHXZPEAV1@@std@@@2@@0@$$QEAP8Benchmark@@EAAHXZ$$QEAPEAV2@@Z DD 060f01H
	DD	0a640fH
	DD	09340fH
	DD	0700b520fH
xdata	ENDS
;	COMDAT xdata
xdata	SEGMENT
$ip2state$??$_Launch@V?$unique_ptr@V?$tuple@P8Benchmark@@EAAHXZPEAV1@@std@@U?$default_delete@V?$tuple@P8Benchmark@@EAAHXZPEAV1@@std@@@2@@std@@@std@@YAXPEAU_Thrd_imp_t@@$$QEAV?$unique_ptr@V?$tuple@P8Benchmark@@EAAHXZPEAV1@@std@@U?$default_delete@V?$tuple@P8Benchmark@@EAAHXZPEAV1@@std@@@2@@0@@Z DD imagerel ??$_Launch@V?$unique_ptr@V?$tuple@P8Benchmark@@EAAHXZPEAV1@@std@@U?$default_delete@V?$tuple@P8Benchmark@@EAAHXZPEAV1@@std@@@2@@std@@@std@@YAXPEAU_Thrd_imp_t@@$$QEAV?$unique_ptr@V?$tuple@P8Benchmark@@EAAHXZPEAV1@@std@@U?$default_delete@V?$tuple@P8Benchmark@@EAAHXZPEAV1@@std@@@2@@0@@Z+88
	DD	0ffffffffH
	DD	imagerel ??$_Launch@V?$unique_ptr@V?$tuple@P8Benchmark@@EAAHXZPEAV1@@std@@U?$default_delete@V?$tuple@P8Benchmark@@EAAHXZPEAV1@@std@@@2@@std@@@std@@YAXPEAU_Thrd_imp_t@@$$QEAV?$unique_ptr@V?$tuple@P8Benchmark@@EAAHXZPEAV1@@std@@U?$default_delete@V?$tuple@P8Benchmark@@EAAHXZPEAV1@@std@@@2@@0@@Z+135
	DD	00H
	DD	imagerel ??$_Launch@V?$unique_ptr@V?$tuple@P8Benchmark@@EAAHXZPEAV1@@std@@U?$default_delete@V?$tuple@P8Benchmark@@EAAHXZPEAV1@@std@@@2@@std@@@std@@YAXPEAU_Thrd_imp_t@@$$QEAV?$unique_ptr@V?$tuple@P8Benchmark@@EAAHXZPEAV1@@std@@U?$default_delete@V?$tuple@P8Benchmark@@EAAHXZPEAV1@@std@@@2@@0@@Z+173
	DD	01H
	DD	imagerel ??$_Launch@V?$unique_ptr@V?$tuple@P8Benchmark@@EAAHXZPEAV1@@std@@U?$default_delete@V?$tuple@P8Benchmark@@EAAHXZPEAV1@@std@@@2@@std@@@std@@YAXPEAU_Thrd_imp_t@@$$QEAV?$unique_ptr@V?$tuple@P8Benchmark@@EAAHXZPEAV1@@std@@U?$default_delete@V?$tuple@P8Benchmark@@EAAHXZPEAV1@@std@@@2@@0@@Z+237
	DD	02H
	DD	imagerel ??$_Launch@V?$unique_ptr@V?$tuple@P8Benchmark@@EAAHXZPEAV1@@std@@U?$default_delete@V?$tuple@P8Benchmark@@EAAHXZPEAV1@@std@@@2@@std@@@std@@YAXPEAU_Thrd_imp_t@@$$QEAV?$unique_ptr@V?$tuple@P8Benchmark@@EAAHXZPEAV1@@std@@U?$default_delete@V?$tuple@P8Benchmark@@EAAHXZPEAV1@@std@@@2@@0@@Z+288
	DD	0ffffffffH
	DD	imagerel ??$_Launch@V?$unique_ptr@V?$tuple@P8Benchmark@@EAAHXZPEAV1@@std@@U?$default_delete@V?$tuple@P8Benchmark@@EAAHXZPEAV1@@std@@@2@@std@@@std@@YAXPEAU_Thrd_imp_t@@$$QEAV?$unique_ptr@V?$tuple@P8Benchmark@@EAAHXZPEAV1@@std@@U?$default_delete@V?$tuple@P8Benchmark@@EAAHXZPEAV1@@std@@@2@@0@@Z+331
	DD	03H
	DD	imagerel ??$_Launch@V?$unique_ptr@V?$tuple@P8Benchmark@@EAAHXZPEAV1@@std@@U?$default_delete@V?$tuple@P8Benchmark@@EAAHXZPEAV1@@std@@@2@@std@@@std@@YAXPEAU_Thrd_imp_t@@$$QEAV?$unique_ptr@V?$tuple@P8Benchmark@@EAAHXZPEAV1@@std@@U?$default_delete@V?$tuple@P8Benchmark@@EAAHXZPEAV1@@std@@@2@@0@@Z+363
	DD	0ffffffffH
xdata	ENDS
;	COMDAT xdata
xdata	SEGMENT
$stateUnwindMap$??$_Launch@V?$unique_ptr@V?$tuple@P8Benchmark@@EAAHXZPEAV1@@std@@U?$default_delete@V?$tuple@P8Benchmark@@EAAHXZPEAV1@@std@@@2@@std@@@std@@YAXPEAU_Thrd_imp_t@@$$QEAV?$unique_ptr@V?$tuple@P8Benchmark@@EAAHXZPEAV1@@std@@U?$default_delete@V?$tuple@P8Benchmark@@EAAHXZPEAV1@@std@@@2@@0@@Z DD 0ffffffffH
	DD	imagerel ?dtor$3@?0???$_Launch@V?$unique_ptr@V?$tuple@P8Benchmark@@EAAHXZPEAV1@@std@@U?$default_delete@V?$tuple@P8Benchmark@@EAAHXZPEAV1@@std@@@2@@std@@@std@@YAXPEAU_Thrd_imp_t@@$$QEAV?$unique_ptr@V?$tuple@P8Benchmark@@EAAHXZPEAV1@@std@@U?$default_delete@V?$tuple@P8Benchmark@@EAAHXZPEAV1@@std@@@2@@0@@Z@4HA
	DD	00H
	DD	imagerel ?dtor$4@?0???$_Launch@V?$unique_ptr@V?$tuple@P8Benchmark@@EAAHXZPEAV1@@std@@U?$default_delete@V?$tuple@P8Benchmark@@EAAHXZPEAV1@@std@@@2@@std@@@std@@YAXPEAU_Thrd_imp_t@@$$QEAV?$unique_ptr@V?$tuple@P8Benchmark@@EAAHXZPEAV1@@std@@U?$default_delete@V?$tuple@P8Benchmark@@EAAHXZPEAV1@@std@@@2@@0@@Z@4HA
	DD	0ffffffffH
	DD	imagerel ?dtor$0@?0???$_Launch@V?$unique_ptr@V?$tuple@P8Benchmark@@EAAHXZPEAV1@@std@@U?$default_delete@V?$tuple@P8Benchmark@@EAAHXZPEAV1@@std@@@2@@std@@@std@@YAXPEAU_Thrd_imp_t@@$$QEAV?$unique_ptr@V?$tuple@P8Benchmark@@EAAHXZPEAV1@@std@@U?$default_delete@V?$tuple@P8Benchmark@@EAAHXZPEAV1@@std@@@2@@0@@Z@4HA
	DD	0ffffffffH
	DD	imagerel __imp___std_terminate
xdata	ENDS
;	COMDAT CONST
CONST	SEGMENT
$cppxdata$??$_Launch@V?$unique_ptr@V?$tuple@P8Benchmark@@EAAHXZPEAV1@@std@@U?$default_delete@V?$tuple@P8Benchmark@@EAAHXZPEAV1@@std@@@2@@std@@@std@@YAXPEAU_Thrd_imp_t@@$$QEAV?$unique_ptr@V?$tuple@P8Benchmark@@EAAHXZPEAV1@@std@@U?$default_delete@V?$tuple@P8Benchmark@@EAAHXZPEAV1@@std@@@2@@0@@Z DD 019930522H
	DD	04H
	DD	imagerel $stateUnwindMap$??$_Launch@V?$unique_ptr@V?$tuple@P8Benchmark@@EAAHXZPEAV1@@std@@U?$default_delete@V?$tuple@P8Benchmark@@EAAHXZPEAV1@@std@@@2@@std@@@std@@YAXPEAU_Thrd_imp_t@@$$QEAV?$unique_ptr@V?$tuple@P8Benchmark@@EAAHXZPEAV1@@std@@U?$default_delete@V?$tuple@P8Benchmark@@EAAHXZPEAV1@@std@@@2@@0@@Z
	DD	00H
	DD	00H
	DD	07H
	DD	imagerel $ip2state$??$_Launch@V?$unique_ptr@V?$tuple@P8Benchmark@@EAAHXZPEAV1@@std@@U?$default_delete@V?$tuple@P8Benchmark@@EAAHXZPEAV1@@std@@@2@@std@@@std@@YAXPEAU_Thrd_imp_t@@$$QEAV?$unique_ptr@V?$tuple@P8Benchmark@@EAAHXZPEAV1@@std@@U?$default_delete@V?$tuple@P8Benchmark@@EAAHXZPEAV1@@std@@@2@@0@@Z
	DD	020H
	DD	00H
	DD	01H
CONST	ENDS
;	COMDAT xdata
xdata	SEGMENT
$unwind$??$_Launch@V?$unique_ptr@V?$tuple@P8Benchmark@@EAAHXZPEAV1@@std@@U?$default_delete@V?$tuple@P8Benchmark@@EAAHXZPEAV1@@std@@@2@@std@@@std@@YAXPEAU_Thrd_imp_t@@$$QEAV?$unique_ptr@V?$tuple@P8Benchmark@@EAAHXZPEAV1@@std@@U?$default_delete@V?$tuple@P8Benchmark@@EAAHXZPEAV1@@std@@@2@@0@@Z DD 062c19H
	DD	016341eH
	DD	07004f20eH
	DD	050026003H
	DD	imagerel __GSHandlerCheck_EH
	DD	imagerel $cppxdata$??$_Launch@V?$unique_ptr@V?$tuple@P8Benchmark@@EAAHXZPEAV1@@std@@U?$default_delete@V?$tuple@P8Benchmark@@EAAHXZPEAV1@@std@@@2@@std@@@std@@YAXPEAU_Thrd_imp_t@@$$QEAV?$unique_ptr@V?$tuple@P8Benchmark@@EAAHXZPEAV1@@std@@U?$default_delete@V?$tuple@P8Benchmark@@EAAHXZPEAV1@@std@@@2@@0@@Z
	DD	072H
xdata	ENDS
;	COMDAT xdata
xdata	SEGMENT
$unwind$??$make_unique@V?$tuple@P8Benchmark@@EAAHHH@ZPEAV1@HH@std@@P8Benchmark@@EAAHHH@ZPEAV3@HH$0A@@std@@YA?AV?$unique_ptr@V?$tuple@P8Benchmark@@EAAHHH@ZPEAV1@HH@std@@U?$default_delete@V?$tuple@P8Benchmark@@EAAHHH@ZPEAV1@HH@std@@@2@@0@$$QEAP8Benchmark@@EAAHHH@Z$$QEAPEAV2@$$QEAH2@Z DD 081501H
	DD	0b7415H
	DD	0a6415H
	DD	093415H
	DD	0e0115215H
xdata	ENDS
;	COMDAT xdata
xdata	SEGMENT
$ip2state$??$_Launch@V?$unique_ptr@V?$tuple@P8Benchmark@@EAAHHH@ZPEAV1@HH@std@@U?$default_delete@V?$tuple@P8Benchmark@@EAAHHH@ZPEAV1@HH@std@@@2@@std@@@std@@YAXPEAU_Thrd_imp_t@@$$QEAV?$unique_ptr@V?$tuple@P8Benchmark@@EAAHHH@ZPEAV1@HH@std@@U?$default_delete@V?$tuple@P8Benchmark@@EAAHHH@ZPEAV1@HH@std@@@2@@0@@Z DD imagerel ??$_Launch@V?$unique_ptr@V?$tuple@P8Benchmark@@EAAHHH@ZPEAV1@HH@std@@U?$default_delete@V?$tuple@P8Benchmark@@EAAHHH@ZPEAV1@HH@std@@@2@@std@@@std@@YAXPEAU_Thrd_imp_t@@$$QEAV?$unique_ptr@V?$tuple@P8Benchmark@@EAAHHH@ZPEAV1@HH@std@@U?$default_delete@V?$tuple@P8Benchmark@@EAAHHH@ZPEAV1@HH@std@@@2@@0@@Z+88
	DD	0ffffffffH
	DD	imagerel ??$_Launch@V?$unique_ptr@V?$tuple@P8Benchmark@@EAAHHH@ZPEAV1@HH@std@@U?$default_delete@V?$tuple@P8Benchmark@@EAAHHH@ZPEAV1@HH@std@@@2@@std@@@std@@YAXPEAU_Thrd_imp_t@@$$QEAV?$unique_ptr@V?$tuple@P8Benchmark@@EAAHHH@ZPEAV1@HH@std@@U?$default_delete@V?$tuple@P8Benchmark@@EAAHHH@ZPEAV1@HH@std@@@2@@0@@Z+135
	DD	00H
	DD	imagerel ??$_Launch@V?$unique_ptr@V?$tuple@P8Benchmark@@EAAHHH@ZPEAV1@HH@std@@U?$default_delete@V?$tuple@P8Benchmark@@EAAHHH@ZPEAV1@HH@std@@@2@@std@@@std@@YAXPEAU_Thrd_imp_t@@$$QEAV?$unique_ptr@V?$tuple@P8Benchmark@@EAAHHH@ZPEAV1@HH@std@@U?$default_delete@V?$tuple@P8Benchmark@@EAAHHH@ZPEAV1@HH@std@@@2@@0@@Z+173
	DD	01H
	DD	imagerel ??$_Launch@V?$unique_ptr@V?$tuple@P8Benchmark@@EAAHHH@ZPEAV1@HH@std@@U?$default_delete@V?$tuple@P8Benchmark@@EAAHHH@ZPEAV1@HH@std@@@2@@std@@@std@@YAXPEAU_Thrd_imp_t@@$$QEAV?$unique_ptr@V?$tuple@P8Benchmark@@EAAHHH@ZPEAV1@HH@std@@U?$default_delete@V?$tuple@P8Benchmark@@EAAHHH@ZPEAV1@HH@std@@@2@@0@@Z+237
	DD	02H
	DD	imagerel ??$_Launch@V?$unique_ptr@V?$tuple@P8Benchmark@@EAAHHH@ZPEAV1@HH@std@@U?$default_delete@V?$tuple@P8Benchmark@@EAAHHH@ZPEAV1@HH@std@@@2@@std@@@std@@YAXPEAU_Thrd_imp_t@@$$QEAV?$unique_ptr@V?$tuple@P8Benchmark@@EAAHHH@ZPEAV1@HH@std@@U?$default_delete@V?$tuple@P8Benchmark@@EAAHHH@ZPEAV1@HH@std@@@2@@0@@Z+288
	DD	0ffffffffH
	DD	imagerel ??$_Launch@V?$unique_ptr@V?$tuple@P8Benchmark@@EAAHHH@ZPEAV1@HH@std@@U?$default_delete@V?$tuple@P8Benchmark@@EAAHHH@ZPEAV1@HH@std@@@2@@std@@@std@@YAXPEAU_Thrd_imp_t@@$$QEAV?$unique_ptr@V?$tuple@P8Benchmark@@EAAHHH@ZPEAV1@HH@std@@U?$default_delete@V?$tuple@P8Benchmark@@EAAHHH@ZPEAV1@HH@std@@@2@@0@@Z+331
	DD	03H
	DD	imagerel ??$_Launch@V?$unique_ptr@V?$tuple@P8Benchmark@@EAAHHH@ZPEAV1@HH@std@@U?$default_delete@V?$tuple@P8Benchmark@@EAAHHH@ZPEAV1@HH@std@@@2@@std@@@std@@YAXPEAU_Thrd_imp_t@@$$QEAV?$unique_ptr@V?$tuple@P8Benchmark@@EAAHHH@ZPEAV1@HH@std@@U?$default_delete@V?$tuple@P8Benchmark@@EAAHHH@ZPEAV1@HH@std@@@2@@0@@Z+363
	DD	0ffffffffH
xdata	ENDS
;	COMDAT xdata
xdata	SEGMENT
$stateUnwindMap$??$_Launch@V?$unique_ptr@V?$tuple@P8Benchmark@@EAAHHH@ZPEAV1@HH@std@@U?$default_delete@V?$tuple@P8Benchmark@@EAAHHH@ZPEAV1@HH@std@@@2@@std@@@std@@YAXPEAU_Thrd_imp_t@@$$QEAV?$unique_ptr@V?$tuple@P8Benchmark@@EAAHHH@ZPEAV1@HH@std@@U?$default_delete@V?$tuple@P8Benchmark@@EAAHHH@ZPEAV1@HH@std@@@2@@0@@Z DD 0ffffffffH
	DD	imagerel ?dtor$3@?0???$_Launch@V?$unique_ptr@V?$tuple@P8Benchmark@@EAAHHH@ZPEAV1@HH@std@@U?$default_delete@V?$tuple@P8Benchmark@@EAAHHH@ZPEAV1@HH@std@@@2@@std@@@std@@YAXPEAU_Thrd_imp_t@@$$QEAV?$unique_ptr@V?$tuple@P8Benchmark@@EAAHHH@ZPEAV1@HH@std@@U?$default_delete@V?$tuple@P8Benchmark@@EAAHHH@ZPEAV1@HH@std@@@2@@0@@Z@4HA
	DD	00H
	DD	imagerel ?dtor$4@?0???$_Launch@V?$unique_ptr@V?$tuple@P8Benchmark@@EAAHHH@ZPEAV1@HH@std@@U?$default_delete@V?$tuple@P8Benchmark@@EAAHHH@ZPEAV1@HH@std@@@2@@std@@@std@@YAXPEAU_Thrd_imp_t@@$$QEAV?$unique_ptr@V?$tuple@P8Benchmark@@EAAHHH@ZPEAV1@HH@std@@U?$default_delete@V?$tuple@P8Benchmark@@EAAHHH@ZPEAV1@HH@std@@@2@@0@@Z@4HA
	DD	0ffffffffH
	DD	imagerel ?dtor$0@?0???$_Launch@V?$unique_ptr@V?$tuple@P8Benchmark@@EAAHHH@ZPEAV1@HH@std@@U?$default_delete@V?$tuple@P8Benchmark@@EAAHHH@ZPEAV1@HH@std@@@2@@std@@@std@@YAXPEAU_Thrd_imp_t@@$$QEAV?$unique_ptr@V?$tuple@P8Benchmark@@EAAHHH@ZPEAV1@HH@std@@U?$default_delete@V?$tuple@P8Benchmark@@EAAHHH@ZPEAV1@HH@std@@@2@@0@@Z@4HA
	DD	0ffffffffH
	DD	imagerel __imp___std_terminate
xdata	ENDS
;	COMDAT CONST
CONST	SEGMENT
$cppxdata$??$_Launch@V?$unique_ptr@V?$tuple@P8Benchmark@@EAAHHH@ZPEAV1@HH@std@@U?$default_delete@V?$tuple@P8Benchmark@@EAAHHH@ZPEAV1@HH@std@@@2@@std@@@std@@YAXPEAU_Thrd_imp_t@@$$QEAV?$unique_ptr@V?$tuple@P8Benchmark@@EAAHHH@ZPEAV1@HH@std@@U?$default_delete@V?$tuple@P8Benchmark@@EAAHHH@ZPEAV1@HH@std@@@2@@0@@Z DD 019930522H
	DD	04H
	DD	imagerel $stateUnwindMap$??$_Launch@V?$unique_ptr@V?$tuple@P8Benchmark@@EAAHHH@ZPEAV1@HH@std@@U?$default_delete@V?$tuple@P8Benchmark@@EAAHHH@ZPEAV1@HH@std@@@2@@std@@@std@@YAXPEAU_Thrd_imp_t@@$$QEAV?$unique_ptr@V?$tuple@P8Benchmark@@EAAHHH@ZPEAV1@HH@std@@U?$default_delete@V?$tuple@P8Benchmark@@EAAHHH@ZPEAV1@HH@std@@@2@@0@@Z
	DD	00H
	DD	00H
	DD	07H
	DD	imagerel $ip2state$??$_Launch@V?$unique_ptr@V?$tuple@P8Benchmark@@EAAHHH@ZPEAV1@HH@std@@U?$default_delete@V?$tuple@P8Benchmark@@EAAHHH@ZPEAV1@HH@std@@@2@@std@@@std@@YAXPEAU_Thrd_imp_t@@$$QEAV?$unique_ptr@V?$tuple@P8Benchmark@@EAAHHH@ZPEAV1@HH@std@@U?$default_delete@V?$tuple@P8Benchmark@@EAAHHH@ZPEAV1@HH@std@@@2@@0@@Z
	DD	020H
	DD	00H
	DD	01H
CONST	ENDS
;	COMDAT xdata
xdata	SEGMENT
$unwind$??$_Launch@V?$unique_ptr@V?$tuple@P8Benchmark@@EAAHHH@ZPEAV1@HH@std@@U?$default_delete@V?$tuple@P8Benchmark@@EAAHHH@ZPEAV1@HH@std@@@2@@std@@@std@@YAXPEAU_Thrd_imp_t@@$$QEAV?$unique_ptr@V?$tuple@P8Benchmark@@EAAHHH@ZPEAV1@HH@std@@U?$default_delete@V?$tuple@P8Benchmark@@EAAHHH@ZPEAV1@HH@std@@@2@@0@@Z DD 062c19H
	DD	016341eH
	DD	07004f20eH
	DD	050026003H
	DD	imagerel __GSHandlerCheck_EH
	DD	imagerel $cppxdata$??$_Launch@V?$unique_ptr@V?$tuple@P8Benchmark@@EAAHHH@ZPEAV1@HH@std@@U?$default_delete@V?$tuple@P8Benchmark@@EAAHHH@ZPEAV1@HH@std@@@2@@std@@@std@@YAXPEAU_Thrd_imp_t@@$$QEAV?$unique_ptr@V?$tuple@P8Benchmark@@EAAHHH@ZPEAV1@HH@std@@U?$default_delete@V?$tuple@P8Benchmark@@EAAHHH@ZPEAV1@HH@std@@@2@@0@@Z
	DD	072H
xdata	ENDS
;	COMDAT xdata
xdata	SEGMENT
$ip2state$??1?$_LaunchPad@V?$unique_ptr@V?$tuple@P8Benchmark@@EAAHXZPEAV1@@std@@U?$default_delete@V?$tuple@P8Benchmark@@EAAHXZPEAV1@@std@@@2@@std@@@std@@QEAA@XZ DD imagerel ??1?$_LaunchPad@V?$unique_ptr@V?$tuple@P8Benchmark@@EAAHXZPEAV1@@std@@U?$default_delete@V?$tuple@P8Benchmark@@EAAHXZPEAV1@@std@@@2@@std@@@std@@QEAA@XZ+67
	DD	00H
xdata	ENDS
;	COMDAT xdata
xdata	SEGMENT
$stateUnwindMap$??1?$_LaunchPad@V?$unique_ptr@V?$tuple@P8Benchmark@@EAAHXZPEAV1@@std@@U?$default_delete@V?$tuple@P8Benchmark@@EAAHXZPEAV1@@std@@@2@@std@@@std@@QEAA@XZ DD 0ffffffffH
	DD	imagerel __imp___std_terminate
xdata	ENDS
;	COMDAT CONST
CONST	SEGMENT
$cppxdata$??1?$_LaunchPad@V?$unique_ptr@V?$tuple@P8Benchmark@@EAAHXZPEAV1@@std@@U?$default_delete@V?$tuple@P8Benchmark@@EAAHXZPEAV1@@std@@@2@@std@@@std@@QEAA@XZ DD 019930522H
	DD	01H
	DD	imagerel $stateUnwindMap$??1?$_LaunchPad@V?$unique_ptr@V?$tuple@P8Benchmark@@EAAHXZPEAV1@@std@@U?$default_delete@V?$tuple@P8Benchmark@@EAAHXZPEAV1@@std@@@2@@std@@@std@@QEAA@XZ
	DD	00H
	DD	00H
	DD	01H
	DD	imagerel $ip2state$??1?$_LaunchPad@V?$unique_ptr@V?$tuple@P8Benchmark@@EAAHXZPEAV1@@std@@U?$default_delete@V?$tuple@P8Benchmark@@EAAHXZPEAV1@@std@@@2@@std@@@std@@QEAA@XZ
	DD	020H
	DD	00H
	DD	05H
CONST	ENDS
;	COMDAT xdata
xdata	SEGMENT
$unwind$??1?$_LaunchPad@V?$unique_ptr@V?$tuple@P8Benchmark@@EAAHXZPEAV1@@std@@U?$default_delete@V?$tuple@P8Benchmark@@EAAHXZPEAV1@@std@@@2@@std@@@std@@QEAA@XZ DD 041419H
	DD	093414H
	DD	070025206H
	DD	imagerel __CxxFrameHandler3
	DD	imagerel $cppxdata$??1?$_LaunchPad@V?$unique_ptr@V?$tuple@P8Benchmark@@EAAHXZPEAV1@@std@@U?$default_delete@V?$tuple@P8Benchmark@@EAAHXZPEAV1@@std@@@2@@std@@@std@@QEAA@XZ
xdata	ENDS
;	COMDAT xdata
xdata	SEGMENT
$ip2state$??1?$_LaunchPad@V?$unique_ptr@V?$tuple@P8Benchmark@@EAAHHH@ZPEAV1@HH@std@@U?$default_delete@V?$tuple@P8Benchmark@@EAAHHH@ZPEAV1@HH@std@@@2@@std@@@std@@QEAA@XZ DD imagerel ??1?$_LaunchPad@V?$unique_ptr@V?$tuple@P8Benchmark@@EAAHHH@ZPEAV1@HH@std@@U?$default_delete@V?$tuple@P8Benchmark@@EAAHHH@ZPEAV1@HH@std@@@2@@std@@@std@@QEAA@XZ+67
	DD	00H
xdata	ENDS
;	COMDAT xdata
xdata	SEGMENT
$stateUnwindMap$??1?$_LaunchPad@V?$unique_ptr@V?$tuple@P8Benchmark@@EAAHHH@ZPEAV1@HH@std@@U?$default_delete@V?$tuple@P8Benchmark@@EAAHHH@ZPEAV1@HH@std@@@2@@std@@@std@@QEAA@XZ DD 0ffffffffH
	DD	imagerel __imp___std_terminate
xdata	ENDS
;	COMDAT CONST
CONST	SEGMENT
$cppxdata$??1?$_LaunchPad@V?$unique_ptr@V?$tuple@P8Benchmark@@EAAHHH@ZPEAV1@HH@std@@U?$default_delete@V?$tuple@P8Benchmark@@EAAHHH@ZPEAV1@HH@std@@@2@@std@@@std@@QEAA@XZ DD 019930522H
	DD	01H
	DD	imagerel $stateUnwindMap$??1?$_LaunchPad@V?$unique_ptr@V?$tuple@P8Benchmark@@EAAHHH@ZPEAV1@HH@std@@U?$default_delete@V?$tuple@P8Benchmark@@EAAHHH@ZPEAV1@HH@std@@@2@@std@@@std@@QEAA@XZ
	DD	00H
	DD	00H
	DD	01H
	DD	imagerel $ip2state$??1?$_LaunchPad@V?$unique_ptr@V?$tuple@P8Benchmark@@EAAHHH@ZPEAV1@HH@std@@U?$default_delete@V?$tuple@P8Benchmark@@EAAHHH@ZPEAV1@HH@std@@@2@@std@@@std@@QEAA@XZ
	DD	020H
	DD	00H
	DD	05H
CONST	ENDS
;	COMDAT xdata
xdata	SEGMENT
$unwind$??1?$_LaunchPad@V?$unique_ptr@V?$tuple@P8Benchmark@@EAAHHH@ZPEAV1@HH@std@@U?$default_delete@V?$tuple@P8Benchmark@@EAAHHH@ZPEAV1@HH@std@@@2@@std@@@std@@QEAA@XZ DD 041419H
	DD	093414H
	DD	070025206H
	DD	imagerel __CxxFrameHandler3
	DD	imagerel $cppxdata$??1?$_LaunchPad@V?$unique_ptr@V?$tuple@P8Benchmark@@EAAHHH@ZPEAV1@HH@std@@U?$default_delete@V?$tuple@P8Benchmark@@EAAHHH@ZPEAV1@HH@std@@@2@@std@@@std@@QEAA@XZ
xdata	ENDS
;	COMDAT xdata
xdata	SEGMENT
$ip2state$?_Go@?$_LaunchPad@V?$unique_ptr@V?$tuple@P8Benchmark@@EAAHHH@ZPEAV1@HH@std@@U?$default_delete@V?$tuple@P8Benchmark@@EAAHHH@ZPEAV1@HH@std@@@2@@std@@@std@@UEAAXXZ DD imagerel ?_Go@?$_LaunchPad@V?$unique_ptr@V?$tuple@P8Benchmark@@EAAHHH@ZPEAV1@HH@std@@U?$default_delete@V?$tuple@P8Benchmark@@EAAHHH@ZPEAV1@HH@std@@@2@@std@@@std@@UEAAXXZ+51
	DD	00H
	DD	imagerel ?_Go@?$_LaunchPad@V?$unique_ptr@V?$tuple@P8Benchmark@@EAAHHH@ZPEAV1@HH@std@@U?$default_delete@V?$tuple@P8Benchmark@@EAAHHH@ZPEAV1@HH@std@@@2@@std@@@std@@UEAAXXZ+141
	DD	0ffffffffH
xdata	ENDS
;	COMDAT xdata
xdata	SEGMENT
$stateUnwindMap$?_Go@?$_LaunchPad@V?$unique_ptr@V?$tuple@P8Benchmark@@EAAHHH@ZPEAV1@HH@std@@U?$default_delete@V?$tuple@P8Benchmark@@EAAHHH@ZPEAV1@HH@std@@@2@@std@@@std@@UEAAXXZ DD 0ffffffffH
	DD	imagerel __imp___std_terminate
xdata	ENDS
;	COMDAT CONST
CONST	SEGMENT
$cppxdata$?_Go@?$_LaunchPad@V?$unique_ptr@V?$tuple@P8Benchmark@@EAAHHH@ZPEAV1@HH@std@@U?$default_delete@V?$tuple@P8Benchmark@@EAAHHH@ZPEAV1@HH@std@@@2@@std@@@std@@UEAAXXZ DD 019930522H
	DD	01H
	DD	imagerel $stateUnwindMap$?_Go@?$_LaunchPad@V?$unique_ptr@V?$tuple@P8Benchmark@@EAAHHH@ZPEAV1@HH@std@@U?$default_delete@V?$tuple@P8Benchmark@@EAAHHH@ZPEAV1@HH@std@@@2@@std@@@std@@UEAAXXZ
	DD	00H
	DD	00H
	DD	02H
	DD	imagerel $ip2state$?_Go@?$_LaunchPad@V?$unique_ptr@V?$tuple@P8Benchmark@@EAAHHH@ZPEAV1@HH@std@@U?$default_delete@V?$tuple@P8Benchmark@@EAAHHH@ZPEAV1@HH@std@@@2@@std@@@std@@UEAAXXZ
	DD	020H
	DD	00H
	DD	01H
CONST	ENDS
;	COMDAT xdata
xdata	SEGMENT
$unwind$?_Go@?$_LaunchPad@V?$unique_ptr@V?$tuple@P8Benchmark@@EAAHHH@ZPEAV1@HH@std@@U?$default_delete@V?$tuple@P8Benchmark@@EAAHHH@ZPEAV1@HH@std@@@2@@std@@@std@@UEAAXXZ DD 041411H
	DD	093414H
	DD	070025206H
	DD	imagerel __CxxFrameHandler3
	DD	imagerel $cppxdata$?_Go@?$_LaunchPad@V?$unique_ptr@V?$tuple@P8Benchmark@@EAAHHH@ZPEAV1@HH@std@@U?$default_delete@V?$tuple@P8Benchmark@@EAAHHH@ZPEAV1@HH@std@@@2@@std@@@std@@UEAAXXZ
xdata	ENDS
;	COMDAT xdata
xdata	SEGMENT
$ip2state$?_Go@?$_LaunchPad@V?$unique_ptr@V?$tuple@P8Benchmark@@EAAHXZPEAV1@@std@@U?$default_delete@V?$tuple@P8Benchmark@@EAAHXZPEAV1@@std@@@2@@std@@@std@@UEAAXXZ DD imagerel ?_Go@?$_LaunchPad@V?$unique_ptr@V?$tuple@P8Benchmark@@EAAHXZPEAV1@@std@@U?$default_delete@V?$tuple@P8Benchmark@@EAAHXZPEAV1@@std@@@2@@std@@@std@@UEAAXXZ+51
	DD	00H
	DD	imagerel ?_Go@?$_LaunchPad@V?$unique_ptr@V?$tuple@P8Benchmark@@EAAHXZPEAV1@@std@@U?$default_delete@V?$tuple@P8Benchmark@@EAAHXZPEAV1@@std@@@2@@std@@@std@@UEAAXXZ+134
	DD	0ffffffffH
xdata	ENDS
;	COMDAT xdata
xdata	SEGMENT
$stateUnwindMap$?_Go@?$_LaunchPad@V?$unique_ptr@V?$tuple@P8Benchmark@@EAAHXZPEAV1@@std@@U?$default_delete@V?$tuple@P8Benchmark@@EAAHXZPEAV1@@std@@@2@@std@@@std@@UEAAXXZ DD 0ffffffffH
	DD	imagerel __imp___std_terminate
xdata	ENDS
;	COMDAT CONST
CONST	SEGMENT
$cppxdata$?_Go@?$_LaunchPad@V?$unique_ptr@V?$tuple@P8Benchmark@@EAAHXZPEAV1@@std@@U?$default_delete@V?$tuple@P8Benchmark@@EAAHXZPEAV1@@std@@@2@@std@@@std@@UEAAXXZ DD 019930522H
	DD	01H
	DD	imagerel $stateUnwindMap$?_Go@?$_LaunchPad@V?$unique_ptr@V?$tuple@P8Benchmark@@EAAHXZPEAV1@@std@@U?$default_delete@V?$tuple@P8Benchmark@@EAAHXZPEAV1@@std@@@2@@std@@@std@@UEAAXXZ
	DD	00H
	DD	00H
	DD	02H
	DD	imagerel $ip2state$?_Go@?$_LaunchPad@V?$unique_ptr@V?$tuple@P8Benchmark@@EAAHXZPEAV1@@std@@U?$default_delete@V?$tuple@P8Benchmark@@EAAHXZPEAV1@@std@@@2@@std@@@std@@UEAAXXZ
	DD	020H
	DD	00H
	DD	01H
CONST	ENDS
;	COMDAT xdata
xdata	SEGMENT
$unwind$?_Go@?$_LaunchPad@V?$unique_ptr@V?$tuple@P8Benchmark@@EAAHXZPEAV1@@std@@U?$default_delete@V?$tuple@P8Benchmark@@EAAHXZPEAV1@@std@@@2@@std@@@std@@UEAAXXZ DD 041411H
	DD	093414H
	DD	070025206H
	DD	imagerel __CxxFrameHandler3
	DD	imagerel $cppxdata$?_Go@?$_LaunchPad@V?$unique_ptr@V?$tuple@P8Benchmark@@EAAHXZPEAV1@@std@@U?$default_delete@V?$tuple@P8Benchmark@@EAAHXZPEAV1@@std@@@2@@std@@@std@@UEAAXXZ
xdata	ENDS
;	COMDAT xdata
xdata	SEGMENT
$ip2state$?_Run@?$_LaunchPad@V?$unique_ptr@V?$tuple@P8Benchmark@@EAAHHH@ZPEAV1@HH@std@@U?$default_delete@V?$tuple@P8Benchmark@@EAAHHH@ZPEAV1@HH@std@@@2@@std@@@std@@CAXPEAV12@@Z DD imagerel ?_Run@?$_LaunchPad@V?$unique_ptr@V?$tuple@P8Benchmark@@EAAHHH@ZPEAV1@HH@std@@U?$default_delete@V?$tuple@P8Benchmark@@EAAHHH@ZPEAV1@HH@std@@@2@@std@@@std@@CAXPEAV12@@Z+52
	DD	0ffffffffH
xdata	ENDS
;	COMDAT CONST
CONST	SEGMENT
$cppxdata$?_Run@?$_LaunchPad@V?$unique_ptr@V?$tuple@P8Benchmark@@EAAHHH@ZPEAV1@HH@std@@U?$default_delete@V?$tuple@P8Benchmark@@EAAHHH@ZPEAV1@HH@std@@@2@@std@@@std@@CAXPEAV12@@Z DD 019930522H
	DD	00H
	DD	00H
	DD	00H
	DD	00H
	DD	01H
	DD	imagerel $ip2state$?_Run@?$_LaunchPad@V?$unique_ptr@V?$tuple@P8Benchmark@@EAAHHH@ZPEAV1@HH@std@@U?$default_delete@V?$tuple@P8Benchmark@@EAAHHH@ZPEAV1@HH@std@@@2@@std@@@std@@CAXPEAV12@@Z
	DD	020H
	DD	00H
	DD	05H
CONST	ENDS
;	COMDAT xdata
xdata	SEGMENT
$unwind$?_Run@?$_LaunchPad@V?$unique_ptr@V?$tuple@P8Benchmark@@EAAHHH@ZPEAV1@HH@std@@U?$default_delete@V?$tuple@P8Benchmark@@EAAHHH@ZPEAV1@HH@std@@@2@@std@@@std@@CAXPEAV12@@Z DD 041419H
	DD	093414H
	DD	070025206H
	DD	imagerel __CxxFrameHandler3
	DD	imagerel $cppxdata$?_Run@?$_LaunchPad@V?$unique_ptr@V?$tuple@P8Benchmark@@EAAHHH@ZPEAV1@HH@std@@U?$default_delete@V?$tuple@P8Benchmark@@EAAHHH@ZPEAV1@HH@std@@@2@@std@@@std@@CAXPEAV12@@Z
xdata	ENDS
;	COMDAT xdata
xdata	SEGMENT
$ip2state$?_Run@?$_LaunchPad@V?$unique_ptr@V?$tuple@P8Benchmark@@EAAHXZPEAV1@@std@@U?$default_delete@V?$tuple@P8Benchmark@@EAAHXZPEAV1@@std@@@2@@std@@@std@@CAXPEAV12@@Z DD imagerel ?_Run@?$_LaunchPad@V?$unique_ptr@V?$tuple@P8Benchmark@@EAAHXZPEAV1@@std@@U?$default_delete@V?$tuple@P8Benchmark@@EAAHXZPEAV1@@std@@@2@@std@@@std@@CAXPEAV12@@Z+52
	DD	0ffffffffH
xdata	ENDS
;	COMDAT CONST
CONST	SEGMENT
$cppxdata$?_Run@?$_LaunchPad@V?$unique_ptr@V?$tuple@P8Benchmark@@EAAHXZPEAV1@@std@@U?$default_delete@V?$tuple@P8Benchmark@@EAAHXZPEAV1@@std@@@2@@std@@@std@@CAXPEAV12@@Z DD 019930522H
	DD	00H
	DD	00H
	DD	00H
	DD	00H
	DD	01H
	DD	imagerel $ip2state$?_Run@?$_LaunchPad@V?$unique_ptr@V?$tuple@P8Benchmark@@EAAHXZPEAV1@@std@@U?$default_delete@V?$tuple@P8Benchmark@@EAAHXZPEAV1@@std@@@2@@std@@@std@@CAXPEAV12@@Z
	DD	020H
	DD	00H
	DD	05H
CONST	ENDS
;	COMDAT xdata
xdata	SEGMENT
$unwind$?_Run@?$_LaunchPad@V?$unique_ptr@V?$tuple@P8Benchmark@@EAAHXZPEAV1@@std@@U?$default_delete@V?$tuple@P8Benchmark@@EAAHXZPEAV1@@std@@@2@@std@@@std@@CAXPEAV12@@Z DD 041419H
	DD	093414H
	DD	070025206H
	DD	imagerel __CxxFrameHandler3
	DD	imagerel $cppxdata$?_Run@?$_LaunchPad@V?$unique_ptr@V?$tuple@P8Benchmark@@EAAHXZPEAV1@@std@@U?$default_delete@V?$tuple@P8Benchmark@@EAAHXZPEAV1@@std@@@2@@std@@@std@@CAXPEAV12@@Z
xdata	ENDS
;	COMDAT xdata
xdata	SEGMENT
$ip2state$??$?0V?$unique_ptr@V?$tuple@P8Benchmark@@EAAHXZPEAV1@@std@@U?$default_delete@V?$tuple@P8Benchmark@@EAAHXZPEAV1@@std@@@2@@std@@@?$_LaunchPad@V?$unique_ptr@V?$tuple@P8Benchmark@@EAAHXZPEAV1@@std@@U?$default_delete@V?$tuple@P8Benchmark@@EAAHXZPEAV1@@std@@@2@@std@@@std@@QEAA@$$QEAV?$unique_ptr@V?$tuple@P8Benchmark@@EAAHXZPEAV1@@std@@U?$default_delete@V?$tuple@P8Benchmark@@EAAHXZPEAV1@@std@@@2@@1@@Z DD imagerel ??$?0V?$unique_ptr@V?$tuple@P8Benchmark@@EAAHXZPEAV1@@std@@U?$default_delete@V?$tuple@P8Benchmark@@EAAHXZPEAV1@@std@@@2@@std@@@?$_LaunchPad@V?$unique_ptr@V?$tuple@P8Benchmark@@EAAHXZPEAV1@@std@@U?$default_delete@V?$tuple@P8Benchmark@@EAAHXZPEAV1@@std@@@2@@std@@@std@@QEAA@$$QEAV?$unique_ptr@V?$tuple@P8Benchmark@@EAAHXZPEAV1@@std@@U?$default_delete@V?$tuple@P8Benchmark@@EAAHXZPEAV1@@std@@@2@@1@@Z+67
	DD	0ffffffffH
	DD	imagerel ??$?0V?$unique_ptr@V?$tuple@P8Benchmark@@EAAHXZPEAV1@@std@@U?$default_delete@V?$tuple@P8Benchmark@@EAAHXZPEAV1@@std@@@2@@std@@@?$_LaunchPad@V?$unique_ptr@V?$tuple@P8Benchmark@@EAAHXZPEAV1@@std@@U?$default_delete@V?$tuple@P8Benchmark@@EAAHXZPEAV1@@std@@@2@@std@@@std@@QEAA@$$QEAV?$unique_ptr@V?$tuple@P8Benchmark@@EAAHXZPEAV1@@std@@U?$default_delete@V?$tuple@P8Benchmark@@EAAHXZPEAV1@@std@@@2@@1@@Z+115
	DD	00H
	DD	imagerel ??$?0V?$unique_ptr@V?$tuple@P8Benchmark@@EAAHXZPEAV1@@std@@U?$default_delete@V?$tuple@P8Benchmark@@EAAHXZPEAV1@@std@@@2@@std@@@?$_LaunchPad@V?$unique_ptr@V?$tuple@P8Benchmark@@EAAHXZPEAV1@@std@@U?$default_delete@V?$tuple@P8Benchmark@@EAAHXZPEAV1@@std@@@2@@std@@@std@@QEAA@$$QEAV?$unique_ptr@V?$tuple@P8Benchmark@@EAAHXZPEAV1@@std@@U?$default_delete@V?$tuple@P8Benchmark@@EAAHXZPEAV1@@std@@@2@@1@@Z+157
	DD	01H
	DD	imagerel ??$?0V?$unique_ptr@V?$tuple@P8Benchmark@@EAAHXZPEAV1@@std@@U?$default_delete@V?$tuple@P8Benchmark@@EAAHXZPEAV1@@std@@@2@@std@@@?$_LaunchPad@V?$unique_ptr@V?$tuple@P8Benchmark@@EAAHXZPEAV1@@std@@U?$default_delete@V?$tuple@P8Benchmark@@EAAHXZPEAV1@@std@@@2@@std@@@std@@QEAA@$$QEAV?$unique_ptr@V?$tuple@P8Benchmark@@EAAHXZPEAV1@@std@@U?$default_delete@V?$tuple@P8Benchmark@@EAAHXZPEAV1@@std@@@2@@1@@Z+199
	DD	0ffffffffH
xdata	ENDS
;	COMDAT xdata
xdata	SEGMENT
$stateUnwindMap$??$?0V?$unique_ptr@V?$tuple@P8Benchmark@@EAAHXZPEAV1@@std@@U?$default_delete@V?$tuple@P8Benchmark@@EAAHXZPEAV1@@std@@@2@@std@@@?$_LaunchPad@V?$unique_ptr@V?$tuple@P8Benchmark@@EAAHXZPEAV1@@std@@U?$default_delete@V?$tuple@P8Benchmark@@EAAHXZPEAV1@@std@@@2@@std@@@std@@QEAA@$$QEAV?$unique_ptr@V?$tuple@P8Benchmark@@EAAHXZPEAV1@@std@@U?$default_delete@V?$tuple@P8Benchmark@@EAAHXZPEAV1@@std@@@2@@1@@Z DD 0ffffffffH
	DD	imagerel ?dtor$2@?0???$?0V?$unique_ptr@V?$tuple@P8Benchmark@@EAAHXZPEAV1@@std@@U?$default_delete@V?$tuple@P8Benchmark@@EAAHXZPEAV1@@std@@@2@@std@@@?$_LaunchPad@V?$unique_ptr@V?$tuple@P8Benchmark@@EAAHXZPEAV1@@std@@U?$default_delete@V?$tuple@P8Benchmark@@EAAHXZPEAV1@@std@@@2@@std@@@std@@QEAA@$$QEAV?$unique_ptr@V?$tuple@P8Benchmark@@EAAHXZPEAV1@@std@@U?$default_delete@V?$tuple@P8Benchmark@@EAAHXZPEAV1@@std@@@2@@1@@Z@4HA
	DD	00H
	DD	imagerel ?dtor$3@?0???$?0V?$unique_ptr@V?$tuple@P8Benchmark@@EAAHXZPEAV1@@std@@U?$default_delete@V?$tuple@P8Benchmark@@EAAHXZPEAV1@@std@@@2@@std@@@?$_LaunchPad@V?$unique_ptr@V?$tuple@P8Benchmark@@EAAHXZPEAV1@@std@@U?$default_delete@V?$tuple@P8Benchmark@@EAAHXZPEAV1@@std@@@2@@std@@@std@@QEAA@$$QEAV?$unique_ptr@V?$tuple@P8Benchmark@@EAAHXZPEAV1@@std@@U?$default_delete@V?$tuple@P8Benchmark@@EAAHXZPEAV1@@std@@@2@@1@@Z@4HA
xdata	ENDS
;	COMDAT CONST
CONST	SEGMENT
$cppxdata$??$?0V?$unique_ptr@V?$tuple@P8Benchmark@@EAAHXZPEAV1@@std@@U?$default_delete@V?$tuple@P8Benchmark@@EAAHXZPEAV1@@std@@@2@@std@@@?$_LaunchPad@V?$unique_ptr@V?$tuple@P8Benchmark@@EAAHXZPEAV1@@std@@U?$default_delete@V?$tuple@P8Benchmark@@EAAHXZPEAV1@@std@@@2@@std@@@std@@QEAA@$$QEAV?$unique_ptr@V?$tuple@P8Benchmark@@EAAHXZPEAV1@@std@@U?$default_delete@V?$tuple@P8Benchmark@@EAAHXZPEAV1@@std@@@2@@1@@Z DD 019930522H
	DD	02H
	DD	imagerel $stateUnwindMap$??$?0V?$unique_ptr@V?$tuple@P8Benchmark@@EAAHXZPEAV1@@std@@U?$default_delete@V?$tuple@P8Benchmark@@EAAHXZPEAV1@@std@@@2@@std@@@?$_LaunchPad@V?$unique_ptr@V?$tuple@P8Benchmark@@EAAHXZPEAV1@@std@@U?$default_delete@V?$tuple@P8Benchmark@@EAAHXZPEAV1@@std@@@2@@std@@@std@@QEAA@$$QEAV?$unique_ptr@V?$tuple@P8Benchmark@@EAAHXZPEAV1@@std@@U?$default_delete@V?$tuple@P8Benchmark@@EAAHXZPEAV1@@std@@@2@@1@@Z
	DD	00H
	DD	00H
	DD	04H
	DD	imagerel $ip2state$??$?0V?$unique_ptr@V?$tuple@P8Benchmark@@EAAHXZPEAV1@@std@@U?$default_delete@V?$tuple@P8Benchmark@@EAAHXZPEAV1@@std@@@2@@std@@@?$_LaunchPad@V?$unique_ptr@V?$tuple@P8Benchmark@@EAAHXZPEAV1@@std@@U?$default_delete@V?$tuple@P8Benchmark@@EAAHXZPEAV1@@std@@@2@@std@@@std@@QEAA@$$QEAV?$unique_ptr@V?$tuple@P8Benchmark@@EAAHXZPEAV1@@std@@U?$default_delete@V?$tuple@P8Benchmark@@EAAHXZPEAV1@@std@@@2@@1@@Z
	DD	020H
	DD	00H
	DD	01H
CONST	ENDS
;	COMDAT xdata
xdata	SEGMENT
$unwind$??$?0V?$unique_ptr@V?$tuple@P8Benchmark@@EAAHXZPEAV1@@std@@U?$default_delete@V?$tuple@P8Benchmark@@EAAHXZPEAV1@@std@@@2@@std@@@?$_LaunchPad@V?$unique_ptr@V?$tuple@P8Benchmark@@EAAHXZPEAV1@@std@@U?$default_delete@V?$tuple@P8Benchmark@@EAAHXZPEAV1@@std@@@2@@std@@@std@@QEAA@$$QEAV?$unique_ptr@V?$tuple@P8Benchmark@@EAAHXZPEAV1@@std@@U?$default_delete@V?$tuple@P8Benchmark@@EAAHXZPEAV1@@std@@@2@@1@@Z DD 062819H
	DD	0f6419H
	DD	0e3414H
	DD	070029206H
	DD	imagerel __GSHandlerCheck_EH
	DD	imagerel $cppxdata$??$?0V?$unique_ptr@V?$tuple@P8Benchmark@@EAAHXZPEAV1@@std@@U?$default_delete@V?$tuple@P8Benchmark@@EAAHXZPEAV1@@std@@@2@@std@@@?$_LaunchPad@V?$unique_ptr@V?$tuple@P8Benchmark@@EAAHXZPEAV1@@std@@U?$default_delete@V?$tuple@P8Benchmark@@EAAHXZPEAV1@@std@@@2@@std@@@std@@QEAA@$$QEAV?$unique_ptr@V?$tuple@P8Benchmark@@EAAHXZPEAV1@@std@@U?$default_delete@V?$tuple@P8Benchmark@@EAAHXZPEAV1@@std@@@2@@1@@Z
	DD	04aH
xdata	ENDS
;	COMDAT xdata
xdata	SEGMENT
$ip2state$??$?0V?$unique_ptr@V?$tuple@P8Benchmark@@EAAHHH@ZPEAV1@HH@std@@U?$default_delete@V?$tuple@P8Benchmark@@EAAHHH@ZPEAV1@HH@std@@@2@@std@@@?$_LaunchPad@V?$unique_ptr@V?$tuple@P8Benchmark@@EAAHHH@ZPEAV1@HH@std@@U?$default_delete@V?$tuple@P8Benchmark@@EAAHHH@ZPEAV1@HH@std@@@2@@std@@@std@@QEAA@$$QEAV?$unique_ptr@V?$tuple@P8Benchmark@@EAAHHH@ZPEAV1@HH@std@@U?$default_delete@V?$tuple@P8Benchmark@@EAAHHH@ZPEAV1@HH@std@@@2@@1@@Z DD imagerel ??$?0V?$unique_ptr@V?$tuple@P8Benchmark@@EAAHHH@ZPEAV1@HH@std@@U?$default_delete@V?$tuple@P8Benchmark@@EAAHHH@ZPEAV1@HH@std@@@2@@std@@@?$_LaunchPad@V?$unique_ptr@V?$tuple@P8Benchmark@@EAAHHH@ZPEAV1@HH@std@@U?$default_delete@V?$tuple@P8Benchmark@@EAAHHH@ZPEAV1@HH@std@@@2@@std@@@std@@QEAA@$$QEAV?$unique_ptr@V?$tuple@P8Benchmark@@EAAHHH@ZPEAV1@HH@std@@U?$default_delete@V?$tuple@P8Benchmark@@EAAHHH@ZPEAV1@HH@std@@@2@@1@@Z+67
	DD	0ffffffffH
	DD	imagerel ??$?0V?$unique_ptr@V?$tuple@P8Benchmark@@EAAHHH@ZPEAV1@HH@std@@U?$default_delete@V?$tuple@P8Benchmark@@EAAHHH@ZPEAV1@HH@std@@@2@@std@@@?$_LaunchPad@V?$unique_ptr@V?$tuple@P8Benchmark@@EAAHHH@ZPEAV1@HH@std@@U?$default_delete@V?$tuple@P8Benchmark@@EAAHHH@ZPEAV1@HH@std@@@2@@std@@@std@@QEAA@$$QEAV?$unique_ptr@V?$tuple@P8Benchmark@@EAAHHH@ZPEAV1@HH@std@@U?$default_delete@V?$tuple@P8Benchmark@@EAAHHH@ZPEAV1@HH@std@@@2@@1@@Z+115
	DD	00H
	DD	imagerel ??$?0V?$unique_ptr@V?$tuple@P8Benchmark@@EAAHHH@ZPEAV1@HH@std@@U?$default_delete@V?$tuple@P8Benchmark@@EAAHHH@ZPEAV1@HH@std@@@2@@std@@@?$_LaunchPad@V?$unique_ptr@V?$tuple@P8Benchmark@@EAAHHH@ZPEAV1@HH@std@@U?$default_delete@V?$tuple@P8Benchmark@@EAAHHH@ZPEAV1@HH@std@@@2@@std@@@std@@QEAA@$$QEAV?$unique_ptr@V?$tuple@P8Benchmark@@EAAHHH@ZPEAV1@HH@std@@U?$default_delete@V?$tuple@P8Benchmark@@EAAHHH@ZPEAV1@HH@std@@@2@@1@@Z+157
	DD	01H
	DD	imagerel ??$?0V?$unique_ptr@V?$tuple@P8Benchmark@@EAAHHH@ZPEAV1@HH@std@@U?$default_delete@V?$tuple@P8Benchmark@@EAAHHH@ZPEAV1@HH@std@@@2@@std@@@?$_LaunchPad@V?$unique_ptr@V?$tuple@P8Benchmark@@EAAHHH@ZPEAV1@HH@std@@U?$default_delete@V?$tuple@P8Benchmark@@EAAHHH@ZPEAV1@HH@std@@@2@@std@@@std@@QEAA@$$QEAV?$unique_ptr@V?$tuple@P8Benchmark@@EAAHHH@ZPEAV1@HH@std@@U?$default_delete@V?$tuple@P8Benchmark@@EAAHHH@ZPEAV1@HH@std@@@2@@1@@Z+199
	DD	0ffffffffH
xdata	ENDS
;	COMDAT xdata
xdata	SEGMENT
$stateUnwindMap$??$?0V?$unique_ptr@V?$tuple@P8Benchmark@@EAAHHH@ZPEAV1@HH@std@@U?$default_delete@V?$tuple@P8Benchmark@@EAAHHH@ZPEAV1@HH@std@@@2@@std@@@?$_LaunchPad@V?$unique_ptr@V?$tuple@P8Benchmark@@EAAHHH@ZPEAV1@HH@std@@U?$default_delete@V?$tuple@P8Benchmark@@EAAHHH@ZPEAV1@HH@std@@@2@@std@@@std@@QEAA@$$QEAV?$unique_ptr@V?$tuple@P8Benchmark@@EAAHHH@ZPEAV1@HH@std@@U?$default_delete@V?$tuple@P8Benchmark@@EAAHHH@ZPEAV1@HH@std@@@2@@1@@Z DD 0ffffffffH
	DD	imagerel ?dtor$2@?0???$?0V?$unique_ptr@V?$tuple@P8Benchmark@@EAAHHH@ZPEAV1@HH@std@@U?$default_delete@V?$tuple@P8Benchmark@@EAAHHH@ZPEAV1@HH@std@@@2@@std@@@?$_LaunchPad@V?$unique_ptr@V?$tuple@P8Benchmark@@EAAHHH@ZPEAV1@HH@std@@U?$default_delete@V?$tuple@P8Benchmark@@EAAHHH@ZPEAV1@HH@std@@@2@@std@@@std@@QEAA@$$QEAV?$unique_ptr@V?$tuple@P8Benchmark@@EAAHHH@ZPEAV1@HH@std@@U?$default_delete@V?$tuple@P8Benchmark@@EAAHHH@ZPEAV1@HH@std@@@2@@1@@Z@4HA
	DD	00H
	DD	imagerel ?dtor$3@?0???$?0V?$unique_ptr@V?$tuple@P8Benchmark@@EAAHHH@ZPEAV1@HH@std@@U?$default_delete@V?$tuple@P8Benchmark@@EAAHHH@ZPEAV1@HH@std@@@2@@std@@@?$_LaunchPad@V?$unique_ptr@V?$tuple@P8Benchmark@@EAAHHH@ZPEAV1@HH@std@@U?$default_delete@V?$tuple@P8Benchmark@@EAAHHH@ZPEAV1@HH@std@@@2@@std@@@std@@QEAA@$$QEAV?$unique_ptr@V?$tuple@P8Benchmark@@EAAHHH@ZPEAV1@HH@std@@U?$default_delete@V?$tuple@P8Benchmark@@EAAHHH@ZPEAV1@HH@std@@@2@@1@@Z@4HA
xdata	ENDS
;	COMDAT CONST
CONST	SEGMENT
$cppxdata$??$?0V?$unique_ptr@V?$tuple@P8Benchmark@@EAAHHH@ZPEAV1@HH@std@@U?$default_delete@V?$tuple@P8Benchmark@@EAAHHH@ZPEAV1@HH@std@@@2@@std@@@?$_LaunchPad@V?$unique_ptr@V?$tuple@P8Benchmark@@EAAHHH@ZPEAV1@HH@std@@U?$default_delete@V?$tuple@P8Benchmark@@EAAHHH@ZPEAV1@HH@std@@@2@@std@@@std@@QEAA@$$QEAV?$unique_ptr@V?$tuple@P8Benchmark@@EAAHHH@ZPEAV1@HH@std@@U?$default_delete@V?$tuple@P8Benchmark@@EAAHHH@ZPEAV1@HH@std@@@2@@1@@Z DD 019930522H
	DD	02H
	DD	imagerel $stateUnwindMap$??$?0V?$unique_ptr@V?$tuple@P8Benchmark@@EAAHHH@ZPEAV1@HH@std@@U?$default_delete@V?$tuple@P8Benchmark@@EAAHHH@ZPEAV1@HH@std@@@2@@std@@@?$_LaunchPad@V?$unique_ptr@V?$tuple@P8Benchmark@@EAAHHH@ZPEAV1@HH@std@@U?$default_delete@V?$tuple@P8Benchmark@@EAAHHH@ZPEAV1@HH@std@@@2@@std@@@std@@QEAA@$$QEAV?$unique_ptr@V?$tuple@P8Benchmark@@EAAHHH@ZPEAV1@HH@std@@U?$default_delete@V?$tuple@P8Benchmark@@EAAHHH@ZPEAV1@HH@std@@@2@@1@@Z
	DD	00H
	DD	00H
	DD	04H
	DD	imagerel $ip2state$??$?0V?$unique_ptr@V?$tuple@P8Benchmark@@EAAHHH@ZPEAV1@HH@std@@U?$default_delete@V?$tuple@P8Benchmark@@EAAHHH@ZPEAV1@HH@std@@@2@@std@@@?$_LaunchPad@V?$unique_ptr@V?$tuple@P8Benchmark@@EAAHHH@ZPEAV1@HH@std@@U?$default_delete@V?$tuple@P8Benchmark@@EAAHHH@ZPEAV1@HH@std@@@2@@std@@@std@@QEAA@$$QEAV?$unique_ptr@V?$tuple@P8Benchmark@@EAAHHH@ZPEAV1@HH@std@@U?$default_delete@V?$tuple@P8Benchmark@@EAAHHH@ZPEAV1@HH@std@@@2@@1@@Z
	DD	020H
	DD	00H
	DD	01H
CONST	ENDS
;	COMDAT xdata
xdata	SEGMENT
$unwind$??$?0V?$unique_ptr@V?$tuple@P8Benchmark@@EAAHHH@ZPEAV1@HH@std@@U?$default_delete@V?$tuple@P8Benchmark@@EAAHHH@ZPEAV1@HH@std@@@2@@std@@@?$_LaunchPad@V?$unique_ptr@V?$tuple@P8Benchmark@@EAAHHH@ZPEAV1@HH@std@@U?$default_delete@V?$tuple@P8Benchmark@@EAAHHH@ZPEAV1@HH@std@@@2@@std@@@std@@QEAA@$$QEAV?$unique_ptr@V?$tuple@P8Benchmark@@EAAHHH@ZPEAV1@HH@std@@U?$default_delete@V?$tuple@P8Benchmark@@EAAHHH@ZPEAV1@HH@std@@@2@@1@@Z DD 062819H
	DD	0f6419H
	DD	0e3414H
	DD	070029206H
	DD	imagerel __GSHandlerCheck_EH
	DD	imagerel $cppxdata$??$?0V?$unique_ptr@V?$tuple@P8Benchmark@@EAAHHH@ZPEAV1@HH@std@@U?$default_delete@V?$tuple@P8Benchmark@@EAAHHH@ZPEAV1@HH@std@@@2@@std@@@?$_LaunchPad@V?$unique_ptr@V?$tuple@P8Benchmark@@EAAHHH@ZPEAV1@HH@std@@U?$default_delete@V?$tuple@P8Benchmark@@EAAHHH@ZPEAV1@HH@std@@@2@@std@@@std@@QEAA@$$QEAV?$unique_ptr@V?$tuple@P8Benchmark@@EAAHHH@ZPEAV1@HH@std@@U?$default_delete@V?$tuple@P8Benchmark@@EAAHHH@ZPEAV1@HH@std@@@2@@1@@Z
	DD	04aH
xdata	ENDS
;	COMDAT xdata
xdata	SEGMENT
$unwind$memcpy_s DD 060f01H
	DD	07640fH
	DD	06340fH
	DD	0700b320fH
xdata	ENDS
;	COMDAT CRT$XCU
CRT$XCU	SEGMENT
?_AtlWinModule$initializer$@ATL@@3P6AXXZEA DQ FLAT:??__E_AtlWinModule@ATL@@YAXXZ ; ATL::_AtlWinModule$initializer$
CRT$XCU	ENDS
;	COMDAT CRT$XCU
CRT$XCU	SEGMENT
?InitializeCAtlStringMgr$initializer$@ATLImplementationDetails@ATL@@3P6AXXZEA DQ FLAT:??__EInitializeCAtlStringMgr@ATLImplementationDetails@ATL@@YAXXZ ; ATL::ATLImplementationDetails::InitializeCAtlStringMgr$initializer$
CRT$XCU	ENDS
; Function compile flags: /Ogtpy
;	COMDAT ??$AtlMultiply@K@ATL@@YAJPEAKKK@Z
_TEXT	SEGMENT
piResult$ = 8
iLeft$ = 16
iRight$ = 24
??$AtlMultiply@K@ATL@@YAJPEAKKK@Z PROC			; ATL::AtlMultiply<unsigned long>, COMDAT
; File c:\program files (x86)\microsoft visual studio\2017\community\vc\tools\msvc\14.15.26726\atlmfc\include\atlalloc.h
; Line 166
  00000	41 8b c0	 mov	 eax, r8d
  00003	44 8b ca	 mov	 r9d, edx
  00006	4c 0f af c8	 imul	 r9, rax
; Line 167
  0000a	b8 ff ff ff ff	 mov	 eax, -1			; ffffffffH
  0000f	4c 3b c8	 cmp	 r9, rax
  00012	76 06		 jbe	 SHORT $LN2@AtlMultipl
; Line 169
  00014	b8 16 02 07 80	 mov	 eax, -2147024362	; ffffffff80070216H
; Line 173
  00019	c3		 ret	 0
$LN2@AtlMultipl:
; Line 171
  0001a	44 89 09	 mov	 DWORD PTR [rcx], r9d
; Line 172
  0001d	33 c0		 xor	 eax, eax
; Line 173
  0001f	c3		 ret	 0
??$AtlMultiply@K@ATL@@YAJPEAKKK@Z ENDP			; ATL::AtlMultiply<unsigned long>
_TEXT	ENDS
; Function compile flags: /Ogtpy
;	COMDAT ?_AtlRaiseException@ATL@@YAXKK@Z
_TEXT	SEGMENT
dwExceptionCode$ = 8
dwExceptionFlags$ = 16
?_AtlRaiseException@ATL@@YAXKK@Z PROC			; ATL::_AtlRaiseException, COMDAT
; File c:\program files (x86)\microsoft visual studio\2017\community\vc\tools\msvc\14.15.26726\atlmfc\include\atlexcept.h
; Line 31
  00000	45 33 c9	 xor	 r9d, r9d
  00003	45 33 c0	 xor	 r8d, r8d
  00006	48 ff 25 00 00
	00 00		 rex_jmp QWORD PTR __imp_RaiseException
?_AtlRaiseException@ATL@@YAXKK@Z ENDP			; ATL::_AtlRaiseException
_TEXT	ENDS
; Function compile flags: /Ogtpy
;	COMDAT ??0CAtlException@ATL@@QEAA@J@Z
_TEXT	SEGMENT
this$ = 8
hr$ = 16
??0CAtlException@ATL@@QEAA@J@Z PROC			; ATL::CAtlException::CAtlException, COMDAT
; File c:\program files (x86)\microsoft visual studio\2017\community\vc\tools\msvc\14.15.26726\atlmfc\include\atlexcept.h
; Line 43
  00000	89 11		 mov	 DWORD PTR [rcx], edx
; Line 45
  00002	48 8b c1	 mov	 rax, rcx
  00005	c3		 ret	 0
??0CAtlException@ATL@@QEAA@J@Z ENDP			; ATL::CAtlException::CAtlException
_TEXT	ENDS
; Function compile flags: /Ogtpy
;	COMDAT ?AtlThrowImpl@ATL@@YAXJ@Z
_TEXT	SEGMENT
hr$ = 48
$T1 = 56
?AtlThrowImpl@ATL@@YAXJ@Z PROC				; ATL::AtlThrowImpl, COMDAT
; File c:\program files (x86)\microsoft visual studio\2017\community\vc\tools\msvc\14.15.26726\atlmfc\include\atlexcept.h
; Line 65
$LN4:
  00000	48 83 ec 28	 sub	 rsp, 40			; 00000028H
; Line 77
  00004	8b d1		 mov	 edx, ecx
  00006	48 8d 4c 24 38	 lea	 rcx, QWORD PTR $T1[rsp]
  0000b	e8 00 00 00 00	 call	 ??0CAtlException@ATL@@QEAA@J@Z ; ATL::CAtlException::CAtlException
  00010	48 8d 15 00 00
	00 00		 lea	 rdx, OFFSET FLAT:_TI1?AVCAtlException@ATL@@
  00017	48 8d 4c 24 38	 lea	 rcx, QWORD PTR $T1[rsp]
  0001c	e8 00 00 00 00	 call	 _CxxThrowException
  00021	cc		 int	 3
$LN3@AtlThrowIm:
?AtlThrowImpl@ATL@@YAXJ@Z ENDP				; ATL::AtlThrowImpl
_TEXT	ENDS
; Function compile flags: /Ogtpy
;	COMDAT ?_AtlInitializeCriticalSectionEx@ATL@@YAHPEAU_RTL_CRITICAL_SECTION@@KK@Z
_TEXT	SEGMENT
lpCriticalSection$ = 8
dwSpinCount$ = 16
Flags$ = 24
?_AtlInitializeCriticalSectionEx@ATL@@YAHPEAU_RTL_CRITICAL_SECTION@@KK@Z PROC ; ATL::_AtlInitializeCriticalSectionEx, COMDAT
; File c:\program files (x86)\microsoft visual studio\2017\community\vc\tools\msvc\14.15.26726\atlmfc\include\atlwinverapi.h
; Line 730
  00000	48 ff 25 00 00
	00 00		 rex_jmp QWORD PTR __imp_InitializeCriticalSectionEx
?_AtlInitializeCriticalSectionEx@ATL@@YAHPEAU_RTL_CRITICAL_SECTION@@KK@Z ENDP ; ATL::_AtlInitializeCriticalSectionEx
_TEXT	ENDS
; Function compile flags: /Ogtpy
;	COMDAT ??0CComCriticalSection@ATL@@QEAA@XZ
_TEXT	SEGMENT
this$ = 8
??0CComCriticalSection@ATL@@QEAA@XZ PROC		; ATL::CComCriticalSection::CComCriticalSection, COMDAT
; File c:\program files (x86)\microsoft visual studio\2017\community\vc\tools\msvc\14.15.26726\atlmfc\include\atlcore.h
; Line 125
  00000	33 c0		 xor	 eax, eax
  00002	48 89 01	 mov	 QWORD PTR [rcx], rax
  00005	48 89 41 08	 mov	 QWORD PTR [rcx+8], rax
  00009	48 89 41 10	 mov	 QWORD PTR [rcx+16], rax
  0000d	48 89 41 18	 mov	 QWORD PTR [rcx+24], rax
  00011	48 89 41 20	 mov	 QWORD PTR [rcx+32], rax
; Line 126
  00015	48 8b c1	 mov	 rax, rcx
  00018	c3		 ret	 0
??0CComCriticalSection@ATL@@QEAA@XZ ENDP		; ATL::CComCriticalSection::CComCriticalSection
_TEXT	ENDS
; Function compile flags: /Ogtpy
;	COMDAT ??1CComCriticalSection@ATL@@QEAA@XZ
_TEXT	SEGMENT
this$ = 8
??1CComCriticalSection@ATL@@QEAA@XZ PROC		; ATL::CComCriticalSection::~CComCriticalSection, COMDAT
; File c:\program files (x86)\microsoft visual studio\2017\community\vc\tools\msvc\14.15.26726\atlmfc\include\atlcore.h
; Line 130
  00000	c2 00 00	 ret	 0
??1CComCriticalSection@ATL@@QEAA@XZ ENDP		; ATL::CComCriticalSection::~CComCriticalSection
_TEXT	ENDS
; Function compile flags: /Ogtpy
;	COMDAT ?Init@CComCriticalSection@ATL@@QEAAJXZ
_TEXT	SEGMENT
this$ = 48
?Init@CComCriticalSection@ATL@@QEAAJXZ PROC		; ATL::CComCriticalSection::Init, COMDAT
; File c:\program files (x86)\microsoft visual studio\2017\community\vc\tools\msvc\14.15.26726\atlmfc\include\atlcore.h
; Line 143
$LN12:
  00000	48 83 ec 28	 sub	 rsp, 40			; 00000028H
; File c:\program files (x86)\microsoft visual studio\2017\community\vc\tools\msvc\14.15.26726\atlmfc\include\atlwinverapi.h
; Line 730
  00004	45 33 c0	 xor	 r8d, r8d
  00007	33 d2		 xor	 edx, edx
  00009	ff 15 00 00 00
	00		 call	 QWORD PTR __imp_InitializeCriticalSectionEx
; File c:\program files (x86)\microsoft visual studio\2017\community\vc\tools\msvc\14.15.26726\atlmfc\include\atlcore.h
; Line 145
  0000f	85 c0		 test	 eax, eax
  00011	75 17		 jne	 SHORT $LN10@Init
; Line 147
  00013	ff 15 00 00 00
	00		 call	 QWORD PTR __imp_GetLastError
; File c:\program files (x86)\windows kits\10\include\10.0.17134.0\shared\winerror.h
; Line 28504
  00019	85 c0		 test	 eax, eax
  0001b	7e 0f		 jle	 SHORT $LN9@Init
  0001d	0f b7 c0	 movzx	 eax, ax
  00020	0d 00 00 07 80	 or	 eax, -2147024896	; ffffffff80070000H
; File c:\program files (x86)\microsoft visual studio\2017\community\vc\tools\msvc\14.15.26726\atlmfc\include\atlcore.h
; Line 151
  00025	48 83 c4 28	 add	 rsp, 40			; 00000028H
  00029	c3		 ret	 0
$LN10@Init:
; Line 150
  0002a	33 c0		 xor	 eax, eax
$LN9@Init:
; Line 151
  0002c	48 83 c4 28	 add	 rsp, 40			; 00000028H
  00030	c3		 ret	 0
?Init@CComCriticalSection@ATL@@QEAAJXZ ENDP		; ATL::CComCriticalSection::Init
_TEXT	ENDS
; Function compile flags: /Ogtpy
;	COMDAT ?Term@CComCriticalSection@ATL@@QEAAJXZ
_TEXT	SEGMENT
this$ = 48
?Term@CComCriticalSection@ATL@@QEAAJXZ PROC		; ATL::CComCriticalSection::Term, COMDAT
; File c:\program files (x86)\microsoft visual studio\2017\community\vc\tools\msvc\14.15.26726\atlmfc\include\atlcore.h
; Line 154
$LN4:
  00000	48 83 ec 28	 sub	 rsp, 40			; 00000028H
; Line 155
  00004	ff 15 00 00 00
	00		 call	 QWORD PTR __imp_DeleteCriticalSection
; Line 156
  0000a	33 c0		 xor	 eax, eax
; Line 157
  0000c	48 83 c4 28	 add	 rsp, 40			; 00000028H
  00010	c3		 ret	 0
?Term@CComCriticalSection@ATL@@QEAAJXZ ENDP		; ATL::CComCriticalSection::Term
_TEXT	ENDS
; Function compile flags: /Ogtpy
;	COMDAT ?GetModuleInstance@CAtlBaseModule@ATL@@QEAAPEAUHINSTANCE__@@XZ
_TEXT	SEGMENT
this$dead$ = 8
?GetModuleInstance@CAtlBaseModule@ATL@@QEAAPEAUHINSTANCE__@@XZ PROC ; ATL::CAtlBaseModule::GetModuleInstance, COMDAT
; File c:\program files (x86)\microsoft visual studio\2017\community\vc\tools\msvc\14.15.26726\atlmfc\include\atlcore.h
; Line 290
  00000	48 8b 05 08 00
	00 00		 mov	 rax, QWORD PTR ?_AtlBaseModule@ATL@@3VCAtlBaseModule@1@A+8
; Line 291
  00007	c3		 ret	 0
?GetModuleInstance@CAtlBaseModule@ATL@@QEAAPEAUHINSTANCE__@@XZ ENDP ; ATL::CAtlBaseModule::GetModuleInstance
_TEXT	ENDS
; Function compile flags: /Ogtpy
;	COMDAT ??0CAtlComModule@ATL@@QEAA@XZ
_TEXT	SEGMENT
this$dead$ = 48
??0CAtlComModule@ATL@@QEAA@XZ PROC			; ATL::CAtlComModule::CAtlComModule, COMDAT
; File c:\program files (x86)\microsoft visual studio\2017\community\vc\tools\msvc\14.15.26726\atlmfc\include\atlbase.h
; Line 2586
$LN22:
  00000	48 83 ec 28	 sub	 rsp, 40			; 00000028H
; File c:\program files (x86)\microsoft visual studio\2017\community\vc\tools\msvc\14.15.26726\atlmfc\include\atlcore.h
; Line 125
  00004	33 c0		 xor	 eax, eax
; File c:\program files (x86)\microsoft visual studio\2017\community\vc\tools\msvc\14.15.26726\atlmfc\include\atlwinverapi.h
; Line 730
  00006	48 8d 0d 20 00
	00 00		 lea	 rcx, OFFSET FLAT:?_AtlComModule@ATL@@3VCAtlComModule@1@A+32
; File c:\program files (x86)\microsoft visual studio\2017\community\vc\tools\msvc\14.15.26726\atlmfc\include\atlcore.h
; Line 125
  0000d	48 89 05 20 00
	00 00		 mov	 QWORD PTR ?_AtlComModule@ATL@@3VCAtlComModule@1@A+32, rax
; File c:\program files (x86)\microsoft visual studio\2017\community\vc\tools\msvc\14.15.26726\atlmfc\include\atlwinverapi.h
; Line 730
  00014	45 33 c0	 xor	 r8d, r8d
; File c:\program files (x86)\microsoft visual studio\2017\community\vc\tools\msvc\14.15.26726\atlmfc\include\atlcore.h
; Line 125
  00017	48 89 05 28 00
	00 00		 mov	 QWORD PTR ?_AtlComModule@ATL@@3VCAtlComModule@1@A+40, rax
; File c:\program files (x86)\microsoft visual studio\2017\community\vc\tools\msvc\14.15.26726\atlmfc\include\atlwinverapi.h
; Line 730
  0001e	33 d2		 xor	 edx, edx
; File c:\program files (x86)\microsoft visual studio\2017\community\vc\tools\msvc\14.15.26726\atlmfc\include\atlcore.h
; Line 125
  00020	48 89 05 30 00
	00 00		 mov	 QWORD PTR ?_AtlComModule@ATL@@3VCAtlComModule@1@A+48, rax
  00027	48 89 05 38 00
	00 00		 mov	 QWORD PTR ?_AtlComModule@ATL@@3VCAtlComModule@1@A+56, rax
  0002e	48 89 05 40 00
	00 00		 mov	 QWORD PTR ?_AtlComModule@ATL@@3VCAtlComModule@1@A+64, rax
; File c:\program files (x86)\microsoft visual studio\2017\community\vc\tools\msvc\14.15.26726\atlmfc\include\atlbase.h
; Line 2588
  00035	89 05 00 00 00
	00		 mov	 DWORD PTR ?_AtlComModule@ATL@@3VCAtlComModule@1@A, eax
; Line 2590
  0003b	48 8d 05 00 00
	00 00		 lea	 rax, OFFSET FLAT:__ImageBase
  00042	48 89 05 08 00
	00 00		 mov	 QWORD PTR ?_AtlComModule@ATL@@3VCAtlComModule@1@A+8, rax
; Line 2592
  00049	48 8d 05 08 00
	00 00		 lea	 rax, OFFSET FLAT:__pobjMapEntryFirst+8
  00050	48 89 05 10 00
	00 00		 mov	 QWORD PTR ?_AtlComModule@ATL@@3VCAtlComModule@1@A+16, rax
; Line 2593
  00057	48 8d 05 00 00
	00 00		 lea	 rax, OFFSET FLAT:__pobjMapEntryLast
  0005e	48 89 05 18 00
	00 00		 mov	 QWORD PTR ?_AtlComModule@ATL@@3VCAtlComModule@1@A+24, rax
; File c:\program files (x86)\microsoft visual studio\2017\community\vc\tools\msvc\14.15.26726\atlmfc\include\atlwinverapi.h
; Line 730
  00065	ff 15 00 00 00
	00		 call	 QWORD PTR __imp_InitializeCriticalSectionEx
; File c:\program files (x86)\microsoft visual studio\2017\community\vc\tools\msvc\14.15.26726\atlmfc\include\atlcore.h
; Line 145
  0006b	85 c0		 test	 eax, eax
  0006d	75 29		 jne	 SHORT $LN2@CAtlComMod
; Line 147
  0006f	ff 15 00 00 00
	00		 call	 QWORD PTR __imp_GetLastError
; File c:\program files (x86)\windows kits\10\include\10.0.17134.0\shared\winerror.h
; Line 28504
  00075	85 c0		 test	 eax, eax
  00077	7e 0a		 jle	 SHORT $LN18@CAtlComMod
  00079	0f b7 c0	 movzx	 eax, ax
  0007c	0d 00 00 07 80	 or	 eax, -2147024896	; ffffffff80070000H
; File c:\program files (x86)\microsoft visual studio\2017\community\vc\tools\msvc\14.15.26726\atlmfc\include\atlbase.h
; Line 2595
  00081	85 c0		 test	 eax, eax
$LN18@CAtlComMod:
  00083	79 13		 jns	 SHORT $LN2@CAtlComMod
; Line 2599
  00085	c6 05 00 00 00
	00 01		 mov	 BYTE PTR ?m_bInitFailed@CAtlBaseModule@ATL@@2_NA, 1 ; ATL::CAtlBaseModule::m_bInitFailed
; Line 2604
  0008c	48 8d 05 00 00
	00 00		 lea	 rax, OFFSET FLAT:?_AtlComModule@ATL@@3VCAtlComModule@1@A ; ATL::_AtlComModule
  00093	48 83 c4 28	 add	 rsp, 40			; 00000028H
  00097	c3		 ret	 0
$LN2@CAtlComMod:
; Line 2603
  00098	c7 05 00 00 00
	00 48 00 00 00	 mov	 DWORD PTR ?_AtlComModule@ATL@@3VCAtlComModule@1@A, 72 ; 00000048H
; Line 2604
  000a2	48 8d 05 00 00
	00 00		 lea	 rax, OFFSET FLAT:?_AtlComModule@ATL@@3VCAtlComModule@1@A ; ATL::_AtlComModule
  000a9	48 83 c4 28	 add	 rsp, 40			; 00000028H
  000ad	c3		 ret	 0
??0CAtlComModule@ATL@@QEAA@XZ ENDP			; ATL::CAtlComModule::CAtlComModule
_TEXT	ENDS
; Function compile flags: /Ogtpy
;	COMDAT ??1CAtlComModule@ATL@@QEAA@XZ
_TEXT	SEGMENT
$T1 = 32
this$dead$ = 64
??1CAtlComModule@ATL@@QEAA@XZ PROC			; ATL::CAtlComModule::~CAtlComModule, COMDAT
; File c:\program files (x86)\microsoft visual studio\2017\community\vc\tools\msvc\14.15.26726\atlmfc\include\atlbase.h
; Line 2607
$LN24:
  00000	40 57		 push	 rdi
  00002	48 83 ec 30	 sub	 rsp, 48			; 00000030H
  00006	48 c7 44 24 20
	fe ff ff ff	 mov	 QWORD PTR $T1[rsp], -2
  0000f	48 89 5c 24 40	 mov	 QWORD PTR [rsp+64], rbx
  00014	48 89 74 24 48	 mov	 QWORD PTR [rsp+72], rsi
; Line 2614
  00019	83 3d 00 00 00
	00 00		 cmp	 DWORD PTR ?_AtlComModule@ATL@@3VCAtlComModule@1@A, 0
  00020	74 61		 je	 SHORT $LN3@CAtlComMod
; Line 2617
  00022	48 8b 1d 10 00
	00 00		 mov	 rbx, QWORD PTR ?_AtlComModule@ATL@@3VCAtlComModule@1@A+16
  00029	33 f6		 xor	 esi, esi
  0002b	48 8b 15 18 00
	00 00		 mov	 rdx, QWORD PTR ?_AtlComModule@ATL@@3VCAtlComModule@1@A+24
  00032	48 3b da	 cmp	 rbx, rdx
  00035	73 38		 jae	 SHORT $LN5@CAtlComMod
$LL6@CAtlComMod:
; Line 2619
  00037	48 8b 03	 mov	 rax, QWORD PTR [rbx]
  0003a	48 85 c0	 test	 rax, rax
  0003d	74 27		 je	 SHORT $LN4@CAtlComMod
; Line 2621
  0003f	48 8b 78 20	 mov	 rdi, QWORD PTR [rax+32]
; Line 2623
  00043	48 8b 0f	 mov	 rcx, QWORD PTR [rdi]
  00046	48 85 c9	 test	 rcx, rcx
  00049	74 1b		 je	 SHORT $LN4@CAtlComMod
; Line 2626
  0004b	ff 15 00 00 00
	00		 call	 QWORD PTR __imp_DecodePointer
  00051	90		 npad	 1
; Line 2628
  00052	48 8b 10	 mov	 rdx, QWORD PTR [rax]
  00055	48 8b c8	 mov	 rcx, rax
  00058	ff 52 10	 call	 QWORD PTR [rdx+16]
  0005b	90		 npad	 1
; Line 2629
  0005c	48 89 37	 mov	 QWORD PTR [rdi], rsi
  0005f	48 8b 15 18 00
	00 00		 mov	 rdx, QWORD PTR ?_AtlComModule@ATL@@3VCAtlComModule@1@A+24
$LN4@CAtlComMod:
; Line 2617
  00066	48 83 c3 08	 add	 rbx, 8
  0006a	48 3b da	 cmp	 rbx, rdx
  0006d	72 c8		 jb	 SHORT $LL6@CAtlComMod
$LN5@CAtlComMod:
; File c:\program files (x86)\microsoft visual studio\2017\community\vc\tools\msvc\14.15.26726\atlmfc\include\atlcore.h
; Line 155
  0006f	48 8d 0d 20 00
	00 00		 lea	 rcx, OFFSET FLAT:?_AtlComModule@ATL@@3VCAtlComModule@1@A+32
  00076	ff 15 00 00 00
	00		 call	 QWORD PTR __imp_DeleteCriticalSection
  0007c	90		 npad	 1
; File c:\program files (x86)\microsoft visual studio\2017\community\vc\tools\msvc\14.15.26726\atlmfc\include\atlbase.h
; Line 2637
  0007d	89 35 00 00 00
	00		 mov	 DWORD PTR ?_AtlComModule@ATL@@3VCAtlComModule@1@A, esi
$LN3@CAtlComMod:
; Line 2609
  00083	48 8b 5c 24 40	 mov	 rbx, QWORD PTR [rsp+64]
  00088	48 8b 74 24 48	 mov	 rsi, QWORD PTR [rsp+72]
  0008d	48 83 c4 30	 add	 rsp, 48			; 00000030H
  00091	5f		 pop	 rdi
  00092	c3		 ret	 0
??1CAtlComModule@ATL@@QEAA@XZ ENDP			; ATL::CAtlComModule::~CAtlComModule
_TEXT	ENDS
; Function compile flags: /Ogtpy
;	COMDAT ?Term@CAtlComModule@ATL@@QEAAXXZ
_TEXT	SEGMENT
this$dead$ = 48
?Term@CAtlComModule@ATL@@QEAAXXZ PROC			; ATL::CAtlComModule::Term, COMDAT
; File c:\program files (x86)\microsoft visual studio\2017\community\vc\tools\msvc\14.15.26726\atlmfc\include\atlbase.h
; Line 2613
$LN16:
  00000	48 83 ec 28	 sub	 rsp, 40			; 00000028H
; Line 2614
  00004	83 3d 00 00 00
	00 00		 cmp	 DWORD PTR ?_AtlComModule@ATL@@3VCAtlComModule@1@A, 0
  0000b	74 7c		 je	 SHORT $LN1@Term
; Line 2617
  0000d	48 8b 15 18 00
	00 00		 mov	 rdx, QWORD PTR ?_AtlComModule@ATL@@3VCAtlComModule@1@A+24
  00014	48 89 5c 24 30	 mov	 QWORD PTR [rsp+48], rbx
  00019	48 8b 1d 10 00
	00 00		 mov	 rbx, QWORD PTR ?_AtlComModule@ATL@@3VCAtlComModule@1@A+16
  00020	48 89 74 24 38	 mov	 QWORD PTR [rsp+56], rsi
  00025	33 f6		 xor	 esi, esi
  00027	48 3b da	 cmp	 rbx, rdx
  0002a	73 40		 jae	 SHORT $LN3@Term
  0002c	48 89 7c 24 20	 mov	 QWORD PTR [rsp+32], rdi
$LL4@Term:
; Line 2619
  00031	48 8b 03	 mov	 rax, QWORD PTR [rbx]
  00034	48 85 c0	 test	 rax, rax
  00037	74 25		 je	 SHORT $LN2@Term
; Line 2621
  00039	48 8b 78 20	 mov	 rdi, QWORD PTR [rax+32]
; Line 2623
  0003d	48 8b 0f	 mov	 rcx, QWORD PTR [rdi]
  00040	48 85 c9	 test	 rcx, rcx
  00043	74 19		 je	 SHORT $LN2@Term
; Line 2626
  00045	ff 15 00 00 00
	00		 call	 QWORD PTR __imp_DecodePointer
; Line 2628
  0004b	48 8b c8	 mov	 rcx, rax
  0004e	48 8b 10	 mov	 rdx, QWORD PTR [rax]
  00051	ff 52 10	 call	 QWORD PTR [rdx+16]
; Line 2629
  00054	48 89 37	 mov	 QWORD PTR [rdi], rsi
  00057	48 8b 15 18 00
	00 00		 mov	 rdx, QWORD PTR ?_AtlComModule@ATL@@3VCAtlComModule@1@A+24
$LN2@Term:
; Line 2617
  0005e	48 83 c3 08	 add	 rbx, 8
  00062	48 3b da	 cmp	 rbx, rdx
  00065	72 ca		 jb	 SHORT $LL4@Term
  00067	48 8b 7c 24 20	 mov	 rdi, QWORD PTR [rsp+32]
$LN3@Term:
; File c:\program files (x86)\microsoft visual studio\2017\community\vc\tools\msvc\14.15.26726\atlmfc\include\atlcore.h
; Line 155
  0006c	48 8d 0d 20 00
	00 00		 lea	 rcx, OFFSET FLAT:?_AtlComModule@ATL@@3VCAtlComModule@1@A+32
  00073	ff 15 00 00 00
	00		 call	 QWORD PTR __imp_DeleteCriticalSection
; File c:\program files (x86)\microsoft visual studio\2017\community\vc\tools\msvc\14.15.26726\atlmfc\include\atlbase.h
; Line 2637
  00079	48 8b 5c 24 30	 mov	 rbx, QWORD PTR [rsp+48]
  0007e	89 35 00 00 00
	00		 mov	 DWORD PTR ?_AtlComModule@ATL@@3VCAtlComModule@1@A, esi
  00084	48 8b 74 24 38	 mov	 rsi, QWORD PTR [rsp+56]
$LN1@Term:
; Line 2638
  00089	48 83 c4 28	 add	 rsp, 40			; 00000028H
  0008d	c3		 ret	 0
?Term@CAtlComModule@ATL@@QEAAXXZ ENDP			; ATL::CAtlComModule::Term
_TEXT	ENDS
; Function compile flags: /Ogtpy
;	COMDAT ??0_ATL_COM_MODULE70@ATL@@QEAA@XZ
_TEXT	SEGMENT
this$dead$ = 8
??0_ATL_COM_MODULE70@ATL@@QEAA@XZ PROC			; ATL::_ATL_COM_MODULE70::_ATL_COM_MODULE70, COMDAT
; File c:\program files (x86)\microsoft visual studio\2017\community\vc\tools\msvc\14.15.26726\atlmfc\include\atlcore.h
; Line 125
  00000	33 c0		 xor	 eax, eax
  00002	48 89 05 20 00
	00 00		 mov	 QWORD PTR ?_AtlComModule@ATL@@3VCAtlComModule@1@A+32, rax
  00009	48 89 05 28 00
	00 00		 mov	 QWORD PTR ?_AtlComModule@ATL@@3VCAtlComModule@1@A+40, rax
  00010	48 89 05 30 00
	00 00		 mov	 QWORD PTR ?_AtlComModule@ATL@@3VCAtlComModule@1@A+48, rax
  00017	48 89 05 38 00
	00 00		 mov	 QWORD PTR ?_AtlComModule@ATL@@3VCAtlComModule@1@A+56, rax
  0001e	48 89 05 40 00
	00 00		 mov	 QWORD PTR ?_AtlComModule@ATL@@3VCAtlComModule@1@A+64, rax
  00025	48 8d 05 00 00
	00 00		 lea	 rax, OFFSET FLAT:?_AtlComModule@ATL@@3VCAtlComModule@1@A ; ATL::_AtlComModule
  0002c	c3		 ret	 0
??0_ATL_COM_MODULE70@ATL@@QEAA@XZ ENDP			; ATL::_ATL_COM_MODULE70::_ATL_COM_MODULE70
_TEXT	ENDS
; Function compile flags: /Ogtpy
;	COMDAT ??1_ATL_COM_MODULE70@ATL@@QEAA@XZ
_TEXT	SEGMENT
this$dead$ = 8
??1_ATL_COM_MODULE70@ATL@@QEAA@XZ PROC			; ATL::_ATL_COM_MODULE70::~_ATL_COM_MODULE70, COMDAT
  00000	c2 00 00	 ret	 0
??1_ATL_COM_MODULE70@ATL@@QEAA@XZ ENDP			; ATL::_ATL_COM_MODULE70::~_ATL_COM_MODULE70
_TEXT	ENDS
; Function compile flags: /Ogtpy
;	COMDAT ??__E_AtlComModule@ATL@@YAXXZ
text$di	SEGMENT
??__E_AtlComModule@ATL@@YAXXZ PROC			; ATL::`dynamic initializer for '_AtlComModule'', COMDAT
; File c:\program files (x86)\microsoft visual studio\2017\community\vc\tools\msvc\14.15.26726\atlmfc\include\atlbase.h
; Line 2716
  00000	48 83 ec 28	 sub	 rsp, 40			; 00000028H
; File c:\program files (x86)\microsoft visual studio\2017\community\vc\tools\msvc\14.15.26726\atlmfc\include\atlcore.h
; Line 125
  00004	33 c0		 xor	 eax, eax
; File c:\program files (x86)\microsoft visual studio\2017\community\vc\tools\msvc\14.15.26726\atlmfc\include\atlwinverapi.h
; Line 730
  00006	48 8d 0d 20 00
	00 00		 lea	 rcx, OFFSET FLAT:?_AtlComModule@ATL@@3VCAtlComModule@1@A+32
; File c:\program files (x86)\microsoft visual studio\2017\community\vc\tools\msvc\14.15.26726\atlmfc\include\atlcore.h
; Line 125
  0000d	48 89 05 20 00
	00 00		 mov	 QWORD PTR ?_AtlComModule@ATL@@3VCAtlComModule@1@A+32, rax
; File c:\program files (x86)\microsoft visual studio\2017\community\vc\tools\msvc\14.15.26726\atlmfc\include\atlwinverapi.h
; Line 730
  00014	45 33 c0	 xor	 r8d, r8d
; File c:\program files (x86)\microsoft visual studio\2017\community\vc\tools\msvc\14.15.26726\atlmfc\include\atlcore.h
; Line 125
  00017	48 89 05 28 00
	00 00		 mov	 QWORD PTR ?_AtlComModule@ATL@@3VCAtlComModule@1@A+40, rax
; File c:\program files (x86)\microsoft visual studio\2017\community\vc\tools\msvc\14.15.26726\atlmfc\include\atlwinverapi.h
; Line 730
  0001e	33 d2		 xor	 edx, edx
; File c:\program files (x86)\microsoft visual studio\2017\community\vc\tools\msvc\14.15.26726\atlmfc\include\atlcore.h
; Line 125
  00020	48 89 05 30 00
	00 00		 mov	 QWORD PTR ?_AtlComModule@ATL@@3VCAtlComModule@1@A+48, rax
  00027	48 89 05 38 00
	00 00		 mov	 QWORD PTR ?_AtlComModule@ATL@@3VCAtlComModule@1@A+56, rax
  0002e	48 89 05 40 00
	00 00		 mov	 QWORD PTR ?_AtlComModule@ATL@@3VCAtlComModule@1@A+64, rax
; File c:\program files (x86)\microsoft visual studio\2017\community\vc\tools\msvc\14.15.26726\atlmfc\include\atlbase.h
; Line 2588
  00035	89 05 00 00 00
	00		 mov	 DWORD PTR ?_AtlComModule@ATL@@3VCAtlComModule@1@A, eax
; Line 2590
  0003b	48 8d 05 00 00
	00 00		 lea	 rax, OFFSET FLAT:__ImageBase
  00042	48 89 05 08 00
	00 00		 mov	 QWORD PTR ?_AtlComModule@ATL@@3VCAtlComModule@1@A+8, rax
; Line 2592
  00049	48 8d 05 08 00
	00 00		 lea	 rax, OFFSET FLAT:__pobjMapEntryFirst+8
  00050	48 89 05 10 00
	00 00		 mov	 QWORD PTR ?_AtlComModule@ATL@@3VCAtlComModule@1@A+16, rax
; Line 2593
  00057	48 8d 05 00 00
	00 00		 lea	 rax, OFFSET FLAT:__pobjMapEntryLast
  0005e	48 89 05 18 00
	00 00		 mov	 QWORD PTR ?_AtlComModule@ATL@@3VCAtlComModule@1@A+24, rax
; File c:\program files (x86)\microsoft visual studio\2017\community\vc\tools\msvc\14.15.26726\atlmfc\include\atlwinverapi.h
; Line 730
  00065	ff 15 00 00 00
	00		 call	 QWORD PTR __imp_InitializeCriticalSectionEx
; File c:\program files (x86)\microsoft visual studio\2017\community\vc\tools\msvc\14.15.26726\atlmfc\include\atlcore.h
; Line 145
  0006b	85 c0		 test	 eax, eax
  0006d	75 2d		 jne	 SHORT $LN4@dynamic
; Line 147
  0006f	ff 15 00 00 00
	00		 call	 QWORD PTR __imp_GetLastError
; File c:\program files (x86)\windows kits\10\include\10.0.17134.0\shared\winerror.h
; Line 28504
  00075	85 c0		 test	 eax, eax
  00077	7e 0a		 jle	 SHORT $LN20@dynamic
  00079	0f b7 c0	 movzx	 eax, ax
  0007c	0d 00 00 07 80	 or	 eax, -2147024896	; ffffffff80070000H
; File c:\program files (x86)\microsoft visual studio\2017\community\vc\tools\msvc\14.15.26726\atlmfc\include\atlbase.h
; Line 2595
  00081	85 c0		 test	 eax, eax
$LN20@dynamic:
  00083	79 17		 jns	 SHORT $LN4@dynamic
; Line 2716
  00085	48 8d 0d 00 00
	00 00		 lea	 rcx, OFFSET FLAT:??__F_AtlComModule@ATL@@YAXXZ ; ATL::`dynamic atexit destructor for '_AtlComModule''
; Line 2599
  0008c	c6 05 00 00 00
	00 01		 mov	 BYTE PTR ?m_bInitFailed@CAtlBaseModule@ATL@@2_NA, 1 ; ATL::CAtlBaseModule::m_bInitFailed
; Line 2716
  00093	48 83 c4 28	 add	 rsp, 40			; 00000028H
  00097	e9 00 00 00 00	 jmp	 atexit
$LN4@dynamic:
  0009c	48 8d 0d 00 00
	00 00		 lea	 rcx, OFFSET FLAT:??__F_AtlComModule@ATL@@YAXXZ ; ATL::`dynamic atexit destructor for '_AtlComModule''
; Line 2603
  000a3	c7 05 00 00 00
	00 48 00 00 00	 mov	 DWORD PTR ?_AtlComModule@ATL@@3VCAtlComModule@1@A, 72 ; 00000048H
; Line 2716
  000ad	48 83 c4 28	 add	 rsp, 40			; 00000028H
  000b1	e9 00 00 00 00	 jmp	 atexit
??__E_AtlComModule@ATL@@YAXXZ ENDP			; ATL::`dynamic initializer for '_AtlComModule''
text$di	ENDS
; Function compile flags: /Ogtpy
;	COMDAT ??__F_AtlComModule@ATL@@YAXXZ
text$yd	SEGMENT
$T1 = 32
??__F_AtlComModule@ATL@@YAXXZ PROC			; ATL::`dynamic atexit destructor for '_AtlComModule'', COMDAT
  00000	40 57		 push	 rdi
  00002	48 83 ec 30	 sub	 rsp, 48			; 00000030H
  00006	48 c7 44 24 20
	fe ff ff ff	 mov	 QWORD PTR $T1[rsp], -2
  0000f	48 89 5c 24 40	 mov	 QWORD PTR [rsp+64], rbx
  00014	48 89 74 24 48	 mov	 QWORD PTR [rsp+72], rsi
; File c:\program files (x86)\microsoft visual studio\2017\community\vc\tools\msvc\14.15.26726\atlmfc\include\atlbase.h
; Line 2614
  00019	83 3d 00 00 00
	00 00		 cmp	 DWORD PTR ?_AtlComModule@ATL@@3VCAtlComModule@1@A, 0
  00020	74 5e		 je	 SHORT $LN25@dynamic
; Line 2617
  00022	48 8b 1d 10 00
	00 00		 mov	 rbx, QWORD PTR ?_AtlComModule@ATL@@3VCAtlComModule@1@A+16
  00029	33 f6		 xor	 esi, esi
  0002b	48 8b 15 18 00
	00 00		 mov	 rdx, QWORD PTR ?_AtlComModule@ATL@@3VCAtlComModule@1@A+24
  00032	48 3b da	 cmp	 rbx, rdx
  00035	73 36		 jae	 SHORT $LN8@dynamic
$LL9@dynamic:
; Line 2619
  00037	48 8b 03	 mov	 rax, QWORD PTR [rbx]
  0003a	48 85 c0	 test	 rax, rax
  0003d	74 25		 je	 SHORT $LN7@dynamic
; Line 2621
  0003f	48 8b 78 20	 mov	 rdi, QWORD PTR [rax+32]
; Line 2623
  00043	48 8b 0f	 mov	 rcx, QWORD PTR [rdi]
  00046	48 85 c9	 test	 rcx, rcx
  00049	74 19		 je	 SHORT $LN7@dynamic
; Line 2626
  0004b	ff 15 00 00 00
	00		 call	 QWORD PTR __imp_DecodePointer
; Line 2628
  00051	48 8b 10	 mov	 rdx, QWORD PTR [rax]
  00054	48 8b c8	 mov	 rcx, rax
  00057	ff 52 10	 call	 QWORD PTR [rdx+16]
; Line 2629
  0005a	48 89 37	 mov	 QWORD PTR [rdi], rsi
  0005d	48 8b 15 18 00
	00 00		 mov	 rdx, QWORD PTR ?_AtlComModule@ATL@@3VCAtlComModule@1@A+24
$LN7@dynamic:
; Line 2617
  00064	48 83 c3 08	 add	 rbx, 8
  00068	48 3b da	 cmp	 rbx, rdx
  0006b	72 ca		 jb	 SHORT $LL9@dynamic
$LN8@dynamic:
; File c:\program files (x86)\microsoft visual studio\2017\community\vc\tools\msvc\14.15.26726\atlmfc\include\atlcore.h
; Line 155
  0006d	48 8d 0d 20 00
	00 00		 lea	 rcx, OFFSET FLAT:?_AtlComModule@ATL@@3VCAtlComModule@1@A+32
  00074	ff 15 00 00 00
	00		 call	 QWORD PTR __imp_DeleteCriticalSection
; File c:\program files (x86)\microsoft visual studio\2017\community\vc\tools\msvc\14.15.26726\atlmfc\include\atlbase.h
; Line 2637
  0007a	89 35 00 00 00
	00		 mov	 DWORD PTR ?_AtlComModule@ATL@@3VCAtlComModule@1@A, esi
$LN25@dynamic:
  00080	48 8b 5c 24 40	 mov	 rbx, QWORD PTR [rsp+64]
  00085	48 8b 74 24 48	 mov	 rsi, QWORD PTR [rsp+72]
  0008a	48 83 c4 30	 add	 rsp, 48			; 00000030H
  0008e	5f		 pop	 rdi
  0008f	c3		 ret	 0
??__F_AtlComModule@ATL@@YAXXZ ENDP			; ATL::`dynamic atexit destructor for '_AtlComModule''
text$yd	ENDS
; Function compile flags: /Ogtpy
;	COMDAT ??0CAtlWinModule@ATL@@QEAA@XZ
_TEXT	SEGMENT
this$dead$ = 48
??0CAtlWinModule@ATL@@QEAA@XZ PROC			; ATL::CAtlWinModule::CAtlWinModule, COMDAT
; File c:\program files (x86)\microsoft visual studio\2017\community\vc\tools\msvc\14.15.26726\atlmfc\include\atlbase.h
; Line 2937
$LN29:
  00000	40 53		 push	 rbx
  00002	48 83 ec 20	 sub	 rsp, 32			; 00000020H
; File c:\program files (x86)\microsoft visual studio\2017\community\vc\tools\msvc\14.15.26726\atlmfc\include\atlcore.h
; Line 125
  00006	33 c0		 xor	 eax, eax
; File c:\program files (x86)\microsoft visual studio\2017\community\vc\tools\msvc\14.15.26726\atlmfc\include\atlbase.h
; Line 2939
  00008	c7 05 00 00 00
	00 48 00 00 00	 mov	 DWORD PTR ?_AtlWinModule@ATL@@3VCAtlWinModule@1@A, 72 ; 00000048H
; File c:\program files (x86)\microsoft visual studio\2017\community\vc\tools\msvc\14.15.26726\atlmfc\include\atlsimpcoll.h
; Line 119
  00012	33 db		 xor	 ebx, ebx
; File c:\program files (x86)\microsoft visual studio\2017\community\vc\tools\msvc\14.15.26726\atlmfc\include\atlcore.h
; Line 125
  00014	48 89 05 08 00
	00 00		 mov	 QWORD PTR ?_AtlWinModule@ATL@@3VCAtlWinModule@1@A+8, rax
; File c:\program files (x86)\microsoft visual studio\2017\community\vc\tools\msvc\14.15.26726\atlmfc\include\atlwinverapi.h
; Line 730
  0001b	45 33 c0	 xor	 r8d, r8d
; File c:\program files (x86)\microsoft visual studio\2017\community\vc\tools\msvc\14.15.26726\atlmfc\include\atlcore.h
; Line 125
  0001e	48 89 05 10 00
	00 00		 mov	 QWORD PTR ?_AtlWinModule@ATL@@3VCAtlWinModule@1@A+16, rax
; File c:\program files (x86)\microsoft visual studio\2017\community\vc\tools\msvc\14.15.26726\atlmfc\include\atlwinverapi.h
; Line 730
  00025	33 d2		 xor	 edx, edx
; File c:\program files (x86)\microsoft visual studio\2017\community\vc\tools\msvc\14.15.26726\atlmfc\include\atlcore.h
; Line 125
  00027	48 89 05 18 00
	00 00		 mov	 QWORD PTR ?_AtlWinModule@ATL@@3VCAtlWinModule@1@A+24, rax
; File c:\program files (x86)\microsoft visual studio\2017\community\vc\tools\msvc\14.15.26726\atlmfc\include\atlwinverapi.h
; Line 730
  0002e	48 8d 0d 08 00
	00 00		 lea	 rcx, OFFSET FLAT:?_AtlWinModule@ATL@@3VCAtlWinModule@1@A+8
; File c:\program files (x86)\microsoft visual studio\2017\community\vc\tools\msvc\14.15.26726\atlmfc\include\atlcore.h
; Line 125
  00035	48 89 05 20 00
	00 00		 mov	 QWORD PTR ?_AtlWinModule@ATL@@3VCAtlWinModule@1@A+32, rax
  0003c	48 89 05 28 00
	00 00		 mov	 QWORD PTR ?_AtlWinModule@ATL@@3VCAtlWinModule@1@A+40, rax
; File c:\program files (x86)\microsoft visual studio\2017\community\vc\tools\msvc\14.15.26726\atlmfc\include\atlsimpcoll.h
; Line 119
  00043	48 89 1d 38 00
	00 00		 mov	 QWORD PTR ?_AtlWinModule@ATL@@3VCAtlWinModule@1@A+56, rbx
  0004a	48 89 1d 40 00
	00 00		 mov	 QWORD PTR ?_AtlWinModule@ATL@@3VCAtlWinModule@1@A+64, rbx
; File c:\program files (x86)\microsoft visual studio\2017\community\vc\tools\msvc\14.15.26726\atlmfc\include\atlbase.h
; Line 8404
  00051	48 89 1d 30 00
	00 00		 mov	 QWORD PTR ?_AtlWinModule@ATL@@3VCAtlWinModule@1@A+48, rbx
; File c:\program files (x86)\microsoft visual studio\2017\community\vc\tools\msvc\14.15.26726\atlmfc\include\atlwinverapi.h
; Line 730
  00058	ff 15 00 00 00
	00		 call	 QWORD PTR __imp_InitializeCriticalSectionEx
; File c:\program files (x86)\microsoft visual studio\2017\community\vc\tools\msvc\14.15.26726\atlmfc\include\atlcore.h
; Line 145
  0005e	85 c0		 test	 eax, eax
  00060	75 30		 jne	 SHORT $LN25@CAtlWinMod
; Line 147
  00062	ff 15 00 00 00
	00		 call	 QWORD PTR __imp_GetLastError
; File c:\program files (x86)\windows kits\10\include\10.0.17134.0\shared\winerror.h
; Line 28504
  00068	85 c0		 test	 eax, eax
  0006a	7e 0a		 jle	 SHORT $LN26@CAtlWinMod
  0006c	0f b7 c0	 movzx	 eax, ax
  0006f	0d 00 00 07 80	 or	 eax, -2147024896	; ffffffff80070000H
; File c:\program files (x86)\microsoft visual studio\2017\community\vc\tools\msvc\14.15.26726\atlmfc\include\atlbase.h
; Line 2941
  00074	85 c0		 test	 eax, eax
$LN26@CAtlWinMod:
  00076	48 8d 05 00 00
	00 00		 lea	 rax, OFFSET FLAT:?_AtlWinModule@ATL@@3VCAtlWinModule@1@A ; ATL::_AtlWinModule
  0007d	79 1a		 jns	 SHORT $LN2@CAtlWinMod
; Line 2944
  0007f	c6 05 00 00 00
	00 01		 mov	 BYTE PTR ?m_bInitFailed@CAtlBaseModule@ATL@@2_NA, 1 ; ATL::CAtlBaseModule::m_bInitFailed
; Line 2945
  00086	89 1d 00 00 00
	00		 mov	 DWORD PTR ?_AtlWinModule@ATL@@3VCAtlWinModule@1@A, ebx
; Line 2948
  0008c	48 83 c4 20	 add	 rsp, 32			; 00000020H
  00090	5b		 pop	 rbx
  00091	c3		 ret	 0
$LN25@CAtlWinMod:
  00092	48 8d 05 00 00
	00 00		 lea	 rax, OFFSET FLAT:?_AtlWinModule@ATL@@3VCAtlWinModule@1@A ; ATL::_AtlWinModule
$LN2@CAtlWinMod:
  00099	48 83 c4 20	 add	 rsp, 32			; 00000020H
  0009d	5b		 pop	 rbx
  0009e	c3		 ret	 0
??0CAtlWinModule@ATL@@QEAA@XZ ENDP			; ATL::CAtlWinModule::CAtlWinModule
_TEXT	ENDS
; Function compile flags: /Ogtpy
;	COMDAT ??1CAtlWinModule@ATL@@QEAA@XZ
_TEXT	SEGMENT
this$dead$ = 48
??1CAtlWinModule@ATL@@QEAA@XZ PROC			; ATL::CAtlWinModule::~CAtlWinModule, COMDAT
; File c:\program files (x86)\microsoft visual studio\2017\community\vc\tools\msvc\14.15.26726\atlmfc\include\atlbase.h
; Line 2951
$LN62:
  00000	48 89 5c 24 08	 mov	 QWORD PTR [rsp+8], rbx
  00005	48 89 6c 24 10	 mov	 QWORD PTR [rsp+16], rbp
  0000a	48 89 74 24 18	 mov	 QWORD PTR [rsp+24], rsi
  0000f	57		 push	 rdi
  00010	48 83 ec 20	 sub	 rsp, 32			; 00000020H
; File c:\program files (x86)\microsoft visual studio\2017\community\vc\tools\msvc\14.15.26726\atlmfc\include\atlcore.h
; Line 290
  00014	48 8b 35 08 00
	00 00		 mov	 rsi, QWORD PTR ?_AtlBaseModule@ATL@@3VCAtlBaseModule@1@A+8
; File c:\program files (x86)\microsoft visual studio\2017\community\vc\tools\msvc\14.15.26726\atlmfc\include\atlbase.h
; Line 7655
  0001b	33 ed		 xor	 ebp, ebp
  0001d	83 3d 00 00 00
	00 48		 cmp	 DWORD PTR ?_AtlWinModule@ATL@@3VCAtlWinModule@1@A, 72 ; 00000048H
  00024	75 76		 jne	 SHORT $LN7@CAtlWinMod
; Line 7660
  00026	8b 05 40 00 00
	00		 mov	 eax, DWORD PTR ?_AtlWinModule@ATL@@3VCAtlWinModule@1@A+64
  0002c	8b dd		 mov	 ebx, ebp
  0002e	85 c0		 test	 eax, eax
  00030	7e 37		 jle	 SHORT $LN9@CAtlWinMod
  00032	8b fd		 mov	 edi, ebp
$LL10@CAtlWinMod:
; File c:\program files (x86)\microsoft visual studio\2017\community\vc\tools\msvc\14.15.26726\atlmfc\include\atlsimpcoll.h
; Line 238
  00034	48 85 ff	 test	 rdi, rdi
  00037	0f 88 94 00 00
	00		 js	 $LN48@CAtlWinMod
  0003d	3b d8		 cmp	 ebx, eax
  0003f	0f 8d 8c 00 00
	00		 jge	 $LN48@CAtlWinMod
; File c:\program files (x86)\microsoft visual studio\2017\community\vc\tools\msvc\14.15.26726\atlmfc\include\atlbase.h
; Line 7661
  00045	48 8b 05 38 00
	00 00		 mov	 rax, QWORD PTR ?_AtlWinModule@ATL@@3VCAtlWinModule@1@A+56
  0004c	48 8b d6	 mov	 rdx, rsi
  0004f	0f b7 0c 07	 movzx	 ecx, WORD PTR [rdi+rax]
  00053	ff 15 00 00 00
	00		 call	 QWORD PTR __imp_UnregisterClassW
  00059	8b 05 40 00 00
	00		 mov	 eax, DWORD PTR ?_AtlWinModule@ATL@@3VCAtlWinModule@1@A+64
  0005f	ff c3		 inc	 ebx
  00061	48 83 c7 02	 add	 rdi, 2
  00065	3b d8		 cmp	 ebx, eax
  00067	7c cb		 jl	 SHORT $LL10@CAtlWinMod
$LN9@CAtlWinMod:
; File c:\program files (x86)\microsoft visual studio\2017\community\vc\tools\msvc\14.15.26726\atlmfc\include\atlsimpcoll.h
; Line 216
  00069	48 8b 0d 38 00
	00 00		 mov	 rcx, QWORD PTR ?_AtlWinModule@ATL@@3VCAtlWinModule@1@A+56
  00070	48 85 c9	 test	 rcx, rcx
  00073	74 0d		 je	 SHORT $LN26@CAtlWinMod
; Line 220
  00075	ff 15 00 00 00
	00		 call	 QWORD PTR __imp_free
; Line 221
  0007b	48 89 2d 38 00
	00 00		 mov	 QWORD PTR ?_AtlWinModule@ATL@@3VCAtlWinModule@1@A+56, rbp
$LN26@CAtlWinMod:
; File c:\program files (x86)\microsoft visual studio\2017\community\vc\tools\msvc\14.15.26726\atlmfc\include\atlcore.h
; Line 155
  00082	48 8d 0d 08 00
	00 00		 lea	 rcx, OFFSET FLAT:?_AtlWinModule@ATL@@3VCAtlWinModule@1@A+8
; File c:\program files (x86)\microsoft visual studio\2017\community\vc\tools\msvc\14.15.26726\atlmfc\include\atlsimpcoll.h
; Line 223
  00089	48 89 2d 40 00
	00 00		 mov	 QWORD PTR ?_AtlWinModule@ATL@@3VCAtlWinModule@1@A+64, rbp
; File c:\program files (x86)\microsoft visual studio\2017\community\vc\tools\msvc\14.15.26726\atlmfc\include\atlcore.h
; Line 155
  00090	ff 15 00 00 00
	00		 call	 QWORD PTR __imp_DeleteCriticalSection
; File c:\program files (x86)\microsoft visual studio\2017\community\vc\tools\msvc\14.15.26726\atlmfc\include\atlbase.h
; Line 7664
  00096	89 2d 00 00 00
	00		 mov	 DWORD PTR ?_AtlWinModule@ATL@@3VCAtlWinModule@1@A, ebp
$LN7@CAtlWinMod:
; File c:\program files (x86)\microsoft visual studio\2017\community\vc\tools\msvc\14.15.26726\atlmfc\include\atlsimpcoll.h
; Line 216
  0009c	48 8b 0d 38 00
	00 00		 mov	 rcx, QWORD PTR ?_AtlWinModule@ATL@@3VCAtlWinModule@1@A+56
  000a3	48 85 c9	 test	 rcx, rcx
  000a6	74 0d		 je	 SHORT $LN41@CAtlWinMod
; Line 220
  000a8	ff 15 00 00 00
	00		 call	 QWORD PTR __imp_free
; Line 221
  000ae	48 89 2d 38 00
	00 00		 mov	 QWORD PTR ?_AtlWinModule@ATL@@3VCAtlWinModule@1@A+56, rbp
$LN41@CAtlWinMod:
; File c:\program files (x86)\microsoft visual studio\2017\community\vc\tools\msvc\14.15.26726\atlmfc\include\atlbase.h
; Line 2953
  000b5	48 8b 5c 24 30	 mov	 rbx, QWORD PTR [rsp+48]
  000ba	48 8b 74 24 40	 mov	 rsi, QWORD PTR [rsp+64]
; File c:\program files (x86)\microsoft visual studio\2017\community\vc\tools\msvc\14.15.26726\atlmfc\include\atlsimpcoll.h
; Line 223
  000bf	48 89 2d 40 00
	00 00		 mov	 QWORD PTR ?_AtlWinModule@ATL@@3VCAtlWinModule@1@A+64, rbp
; File c:\program files (x86)\microsoft visual studio\2017\community\vc\tools\msvc\14.15.26726\atlmfc\include\atlbase.h
; Line 2953
  000c6	48 8b 6c 24 38	 mov	 rbp, QWORD PTR [rsp+56]
  000cb	48 83 c4 20	 add	 rsp, 32			; 00000020H
  000cf	5f		 pop	 rdi
  000d0	c3		 ret	 0
$LN48@CAtlWinMod:
; File c:\program files (x86)\microsoft visual studio\2017\community\vc\tools\msvc\14.15.26726\atlmfc\include\atlsimpcoll.h
; Line 240
  000d1	ba 01 00 00 00	 mov	 edx, 1
  000d6	b9 8c 00 00 c0	 mov	 ecx, -1073741684	; c000008cH
  000db	e8 00 00 00 00	 call	 ?_AtlRaiseException@ATL@@YAXKK@Z ; ATL::_AtlRaiseException
  000e0	cc		 int	 3
$LN59@CAtlWinMod:
??1CAtlWinModule@ATL@@QEAA@XZ ENDP			; ATL::CAtlWinModule::~CAtlWinModule
_TEXT	ENDS
; Function compile flags: /Ogtpy
;	COMDAT ?Term@CAtlWinModule@ATL@@QEAAXXZ
_TEXT	SEGMENT
this$dead$ = 48
?Term@CAtlWinModule@ATL@@QEAAXXZ PROC			; ATL::CAtlWinModule::Term, COMDAT
; File c:\program files (x86)\microsoft visual studio\2017\community\vc\tools\msvc\14.15.26726\atlmfc\include\atlbase.h
; Line 2956
$LN44:
  00000	40 56		 push	 rsi
  00002	48 83 ec 20	 sub	 rsp, 32			; 00000020H
; Line 7655
  00006	83 3d 00 00 00
	00 48		 cmp	 DWORD PTR ?_AtlWinModule@ATL@@3VCAtlWinModule@1@A, 72 ; 00000048H
; File c:\program files (x86)\microsoft visual studio\2017\community\vc\tools\msvc\14.15.26726\atlmfc\include\atlcore.h
; Line 290
  0000d	48 8b 35 08 00
	00 00		 mov	 rsi, QWORD PTR ?_AtlBaseModule@ATL@@3VCAtlBaseModule@1@A+8
; File c:\program files (x86)\microsoft visual studio\2017\community\vc\tools\msvc\14.15.26726\atlmfc\include\atlbase.h
; Line 7655
  00014	0f 85 95 00 00
	00		 jne	 $LN5@Term
; Line 7660
  0001a	8b 05 40 00 00
	00		 mov	 eax, DWORD PTR ?_AtlWinModule@ATL@@3VCAtlWinModule@1@A+64
  00020	48 89 5c 24 30	 mov	 QWORD PTR [rsp+48], rbx
  00025	48 89 6c 24 38	 mov	 QWORD PTR [rsp+56], rbp
  0002a	33 ed		 xor	 ebp, ebp
  0002c	48 89 7c 24 40	 mov	 QWORD PTR [rsp+64], rdi
  00031	8b dd		 mov	 ebx, ebp
  00033	85 c0		 test	 eax, eax
  00035	7e 36		 jle	 SHORT $LN7@Term
  00037	8b fd		 mov	 edi, ebp
  00039	0f 1f 80 00 00
	00 00		 npad	 7
$LL8@Term:
; File c:\program files (x86)\microsoft visual studio\2017\community\vc\tools\msvc\14.15.26726\atlmfc\include\atlsimpcoll.h
; Line 238
  00040	48 85 ff	 test	 rdi, rdi
  00043	78 70		 js	 SHORT $LN31@Term
  00045	3b d8		 cmp	 ebx, eax
  00047	7d 6c		 jge	 SHORT $LN31@Term
; File c:\program files (x86)\microsoft visual studio\2017\community\vc\tools\msvc\14.15.26726\atlmfc\include\atlbase.h
; Line 7661
  00049	48 8b 05 38 00
	00 00		 mov	 rax, QWORD PTR ?_AtlWinModule@ATL@@3VCAtlWinModule@1@A+56
  00050	48 8b d6	 mov	 rdx, rsi
  00053	0f b7 0c 07	 movzx	 ecx, WORD PTR [rdi+rax]
  00057	ff 15 00 00 00
	00		 call	 QWORD PTR __imp_UnregisterClassW
  0005d	8b 05 40 00 00
	00		 mov	 eax, DWORD PTR ?_AtlWinModule@ATL@@3VCAtlWinModule@1@A+64
  00063	ff c3		 inc	 ebx
  00065	48 83 c7 02	 add	 rdi, 2
  00069	3b d8		 cmp	 ebx, eax
  0006b	7c d3		 jl	 SHORT $LL8@Term
$LN7@Term:
; File c:\program files (x86)\microsoft visual studio\2017\community\vc\tools\msvc\14.15.26726\atlmfc\include\atlsimpcoll.h
; Line 216
  0006d	48 8b 0d 38 00
	00 00		 mov	 rcx, QWORD PTR ?_AtlWinModule@ATL@@3VCAtlWinModule@1@A+56
  00074	48 85 c9	 test	 rcx, rcx
  00077	74 0d		 je	 SHORT $LN24@Term
; Line 220
  00079	ff 15 00 00 00
	00		 call	 QWORD PTR __imp_free
; Line 221
  0007f	48 89 2d 38 00
	00 00		 mov	 QWORD PTR ?_AtlWinModule@ATL@@3VCAtlWinModule@1@A+56, rbp
$LN24@Term:
; File c:\program files (x86)\microsoft visual studio\2017\community\vc\tools\msvc\14.15.26726\atlmfc\include\atlcore.h
; Line 155
  00086	48 8d 0d 08 00
	00 00		 lea	 rcx, OFFSET FLAT:?_AtlWinModule@ATL@@3VCAtlWinModule@1@A+8
; File c:\program files (x86)\microsoft visual studio\2017\community\vc\tools\msvc\14.15.26726\atlmfc\include\atlsimpcoll.h
; Line 223
  0008d	48 89 2d 40 00
	00 00		 mov	 QWORD PTR ?_AtlWinModule@ATL@@3VCAtlWinModule@1@A+64, rbp
; File c:\program files (x86)\microsoft visual studio\2017\community\vc\tools\msvc\14.15.26726\atlmfc\include\atlcore.h
; Line 155
  00094	ff 15 00 00 00
	00		 call	 QWORD PTR __imp_DeleteCriticalSection
  0009a	48 8b 5c 24 30	 mov	 rbx, QWORD PTR [rsp+48]
  0009f	48 8b 7c 24 40	 mov	 rdi, QWORD PTR [rsp+64]
; File c:\program files (x86)\microsoft visual studio\2017\community\vc\tools\msvc\14.15.26726\atlmfc\include\atlbase.h
; Line 7664
  000a4	89 2d 00 00 00
	00		 mov	 DWORD PTR ?_AtlWinModule@ATL@@3VCAtlWinModule@1@A, ebp
  000aa	48 8b 6c 24 38	 mov	 rbp, QWORD PTR [rsp+56]
$LN5@Term:
; Line 2958
  000af	48 83 c4 20	 add	 rsp, 32			; 00000020H
  000b3	5e		 pop	 rsi
  000b4	c3		 ret	 0
$LN31@Term:
; File c:\program files (x86)\microsoft visual studio\2017\community\vc\tools\msvc\14.15.26726\atlmfc\include\atlsimpcoll.h
; Line 240
  000b5	ba 01 00 00 00	 mov	 edx, 1
  000ba	b9 8c 00 00 c0	 mov	 ecx, -1073741684	; c000008cH
  000bf	e8 00 00 00 00	 call	 ?_AtlRaiseException@ATL@@YAXKK@Z ; ATL::_AtlRaiseException
  000c4	cc		 int	 3
$LN42@Term:
?Term@CAtlWinModule@ATL@@QEAAXXZ ENDP			; ATL::CAtlWinModule::Term
_TEXT	ENDS
; Function compile flags: /Ogtpy
;	COMDAT ??0_ATL_WIN_MODULE70@ATL@@QEAA@XZ
_TEXT	SEGMENT
this$dead$ = 8
??0_ATL_WIN_MODULE70@ATL@@QEAA@XZ PROC			; ATL::_ATL_WIN_MODULE70::_ATL_WIN_MODULE70, COMDAT
; File c:\program files (x86)\microsoft visual studio\2017\community\vc\tools\msvc\14.15.26726\atlmfc\include\atlcore.h
; Line 125
  00000	33 c0		 xor	 eax, eax
  00002	48 89 05 08 00
	00 00		 mov	 QWORD PTR ?_AtlWinModule@ATL@@3VCAtlWinModule@1@A+8, rax
  00009	48 89 05 10 00
	00 00		 mov	 QWORD PTR ?_AtlWinModule@ATL@@3VCAtlWinModule@1@A+16, rax
  00010	48 89 05 18 00
	00 00		 mov	 QWORD PTR ?_AtlWinModule@ATL@@3VCAtlWinModule@1@A+24, rax
  00017	48 89 05 20 00
	00 00		 mov	 QWORD PTR ?_AtlWinModule@ATL@@3VCAtlWinModule@1@A+32, rax
  0001e	48 89 05 28 00
	00 00		 mov	 QWORD PTR ?_AtlWinModule@ATL@@3VCAtlWinModule@1@A+40, rax
; File c:\program files (x86)\microsoft visual studio\2017\community\vc\tools\msvc\14.15.26726\atlmfc\include\atlsimpcoll.h
; Line 119
  00025	48 89 05 38 00
	00 00		 mov	 QWORD PTR ?_AtlWinModule@ATL@@3VCAtlWinModule@1@A+56, rax
  0002c	48 89 05 40 00
	00 00		 mov	 QWORD PTR ?_AtlWinModule@ATL@@3VCAtlWinModule@1@A+64, rax
  00033	48 8d 05 00 00
	00 00		 lea	 rax, OFFSET FLAT:?_AtlWinModule@ATL@@3VCAtlWinModule@1@A ; ATL::_AtlWinModule
  0003a	c3		 ret	 0
??0_ATL_WIN_MODULE70@ATL@@QEAA@XZ ENDP			; ATL::_ATL_WIN_MODULE70::_ATL_WIN_MODULE70
_TEXT	ENDS
; Function compile flags: /Ogtpy
;	COMDAT ??1_ATL_WIN_MODULE70@ATL@@QEAA@XZ
_TEXT	SEGMENT
this$dead$ = 48
??1_ATL_WIN_MODULE70@ATL@@QEAA@XZ PROC			; ATL::_ATL_WIN_MODULE70::~_ATL_WIN_MODULE70, COMDAT
$LN21:
  00000	48 83 ec 28	 sub	 rsp, 40			; 00000028H
; File c:\program files (x86)\microsoft visual studio\2017\community\vc\tools\msvc\14.15.26726\atlmfc\include\atlsimpcoll.h
; Line 216
  00004	48 8b 0d 38 00
	00 00		 mov	 rcx, QWORD PTR ?_AtlWinModule@ATL@@3VCAtlWinModule@1@A+56
  0000b	48 85 c9	 test	 rcx, rcx
  0000e	74 1b		 je	 SHORT $LN17@ATL_WIN_MO
; Line 220
  00010	ff 15 00 00 00
	00		 call	 QWORD PTR __imp_free
; Line 221
  00016	33 c0		 xor	 eax, eax
  00018	48 89 05 38 00
	00 00		 mov	 QWORD PTR ?_AtlWinModule@ATL@@3VCAtlWinModule@1@A+56, rax
; Line 223
  0001f	48 89 05 40 00
	00 00		 mov	 QWORD PTR ?_AtlWinModule@ATL@@3VCAtlWinModule@1@A+64, rax
  00026	48 83 c4 28	 add	 rsp, 40			; 00000028H
  0002a	c3		 ret	 0
$LN17@ATL_WIN_MO:
  0002b	33 c0		 xor	 eax, eax
  0002d	48 89 05 40 00
	00 00		 mov	 QWORD PTR ?_AtlWinModule@ATL@@3VCAtlWinModule@1@A+64, rax
  00034	48 83 c4 28	 add	 rsp, 40			; 00000028H
  00038	c3		 ret	 0
??1_ATL_WIN_MODULE70@ATL@@QEAA@XZ ENDP			; ATL::_ATL_WIN_MODULE70::~_ATL_WIN_MODULE70
_TEXT	ENDS
; Function compile flags: /Ogtpy
;	COMDAT ??__E_AtlWinModule@ATL@@YAXXZ
text$di	SEGMENT
??__E_AtlWinModule@ATL@@YAXXZ PROC			; ATL::`dynamic initializer for '_AtlWinModule'', COMDAT
; File c:\program files (x86)\microsoft visual studio\2017\community\vc\tools\msvc\14.15.26726\atlmfc\include\atlbase.h
; Line 2972
  00000	40 53		 push	 rbx
  00002	48 83 ec 20	 sub	 rsp, 32			; 00000020H
; File c:\program files (x86)\microsoft visual studio\2017\community\vc\tools\msvc\14.15.26726\atlmfc\include\atlcore.h
; Line 125
  00006	33 c0		 xor	 eax, eax
; File c:\program files (x86)\microsoft visual studio\2017\community\vc\tools\msvc\14.15.26726\atlmfc\include\atlbase.h
; Line 2939
  00008	c7 05 00 00 00
	00 48 00 00 00	 mov	 DWORD PTR ?_AtlWinModule@ATL@@3VCAtlWinModule@1@A, 72 ; 00000048H
; File c:\program files (x86)\microsoft visual studio\2017\community\vc\tools\msvc\14.15.26726\atlmfc\include\atlsimpcoll.h
; Line 119
  00012	33 db		 xor	 ebx, ebx
; File c:\program files (x86)\microsoft visual studio\2017\community\vc\tools\msvc\14.15.26726\atlmfc\include\atlcore.h
; Line 125
  00014	48 89 05 08 00
	00 00		 mov	 QWORD PTR ?_AtlWinModule@ATL@@3VCAtlWinModule@1@A+8, rax
; File c:\program files (x86)\microsoft visual studio\2017\community\vc\tools\msvc\14.15.26726\atlmfc\include\atlwinverapi.h
; Line 730
  0001b	45 33 c0	 xor	 r8d, r8d
; File c:\program files (x86)\microsoft visual studio\2017\community\vc\tools\msvc\14.15.26726\atlmfc\include\atlcore.h
; Line 125
  0001e	48 89 05 10 00
	00 00		 mov	 QWORD PTR ?_AtlWinModule@ATL@@3VCAtlWinModule@1@A+16, rax
; File c:\program files (x86)\microsoft visual studio\2017\community\vc\tools\msvc\14.15.26726\atlmfc\include\atlwinverapi.h
; Line 730
  00025	33 d2		 xor	 edx, edx
; File c:\program files (x86)\microsoft visual studio\2017\community\vc\tools\msvc\14.15.26726\atlmfc\include\atlcore.h
; Line 125
  00027	48 89 05 18 00
	00 00		 mov	 QWORD PTR ?_AtlWinModule@ATL@@3VCAtlWinModule@1@A+24, rax
; File c:\program files (x86)\microsoft visual studio\2017\community\vc\tools\msvc\14.15.26726\atlmfc\include\atlwinverapi.h
; Line 730
  0002e	48 8d 0d 08 00
	00 00		 lea	 rcx, OFFSET FLAT:?_AtlWinModule@ATL@@3VCAtlWinModule@1@A+8
; File c:\program files (x86)\microsoft visual studio\2017\community\vc\tools\msvc\14.15.26726\atlmfc\include\atlcore.h
; Line 125
  00035	48 89 05 20 00
	00 00		 mov	 QWORD PTR ?_AtlWinModule@ATL@@3VCAtlWinModule@1@A+32, rax
  0003c	48 89 05 28 00
	00 00		 mov	 QWORD PTR ?_AtlWinModule@ATL@@3VCAtlWinModule@1@A+40, rax
; File c:\program files (x86)\microsoft visual studio\2017\community\vc\tools\msvc\14.15.26726\atlmfc\include\atlsimpcoll.h
; Line 119
  00043	48 89 1d 38 00
	00 00		 mov	 QWORD PTR ?_AtlWinModule@ATL@@3VCAtlWinModule@1@A+56, rbx
  0004a	48 89 1d 40 00
	00 00		 mov	 QWORD PTR ?_AtlWinModule@ATL@@3VCAtlWinModule@1@A+64, rbx
; File c:\program files (x86)\microsoft visual studio\2017\community\vc\tools\msvc\14.15.26726\atlmfc\include\atlbase.h
; Line 8404
  00051	48 89 1d 30 00
	00 00		 mov	 QWORD PTR ?_AtlWinModule@ATL@@3VCAtlWinModule@1@A+48, rbx
; File c:\program files (x86)\microsoft visual studio\2017\community\vc\tools\msvc\14.15.26726\atlmfc\include\atlwinverapi.h
; Line 730
  00058	ff 15 00 00 00
	00		 call	 QWORD PTR __imp_InitializeCriticalSectionEx
; File c:\program files (x86)\microsoft visual studio\2017\community\vc\tools\msvc\14.15.26726\atlmfc\include\atlcore.h
; Line 145
  0005e	85 c0		 test	 eax, eax
  00060	75 23		 jne	 SHORT $LN4@dynamic
; Line 147
  00062	ff 15 00 00 00
	00		 call	 QWORD PTR __imp_GetLastError
; File c:\program files (x86)\windows kits\10\include\10.0.17134.0\shared\winerror.h
; Line 28504
  00068	85 c0		 test	 eax, eax
  0006a	7e 0a		 jle	 SHORT $LN26@dynamic
  0006c	0f b7 c0	 movzx	 eax, ax
  0006f	0d 00 00 07 80	 or	 eax, -2147024896	; ffffffff80070000H
; File c:\program files (x86)\microsoft visual studio\2017\community\vc\tools\msvc\14.15.26726\atlmfc\include\atlbase.h
; Line 2941
  00074	85 c0		 test	 eax, eax
$LN26@dynamic:
  00076	79 0d		 jns	 SHORT $LN4@dynamic
; Line 2944
  00078	c6 05 00 00 00
	00 01		 mov	 BYTE PTR ?m_bInitFailed@CAtlBaseModule@ATL@@2_NA, 1 ; ATL::CAtlBaseModule::m_bInitFailed
; Line 2945
  0007f	89 1d 00 00 00
	00		 mov	 DWORD PTR ?_AtlWinModule@ATL@@3VCAtlWinModule@1@A, ebx
$LN4@dynamic:
; Line 2972
  00085	48 8d 0d 00 00
	00 00		 lea	 rcx, OFFSET FLAT:??__F_AtlWinModule@ATL@@YAXXZ ; ATL::`dynamic atexit destructor for '_AtlWinModule''
  0008c	48 83 c4 20	 add	 rsp, 32			; 00000020H
  00090	5b		 pop	 rbx
  00091	e9 00 00 00 00	 jmp	 atexit
??__E_AtlWinModule@ATL@@YAXXZ ENDP			; ATL::`dynamic initializer for '_AtlWinModule''
text$di	ENDS
; Function compile flags: /Ogtpy
;	COMDAT ??__F_AtlWinModule@ATL@@YAXXZ
text$yd	SEGMENT
??__F_AtlWinModule@ATL@@YAXXZ PROC			; ATL::`dynamic atexit destructor for '_AtlWinModule'', COMDAT
  00000	48 89 5c 24 08	 mov	 QWORD PTR [rsp+8], rbx
  00005	48 89 6c 24 10	 mov	 QWORD PTR [rsp+16], rbp
  0000a	48 89 74 24 18	 mov	 QWORD PTR [rsp+24], rsi
  0000f	57		 push	 rdi
  00010	48 83 ec 20	 sub	 rsp, 32			; 00000020H
; File c:\program files (x86)\microsoft visual studio\2017\community\vc\tools\msvc\14.15.26726\atlmfc\include\atlcore.h
; Line 290
  00014	48 8b 35 08 00
	00 00		 mov	 rsi, QWORD PTR ?_AtlBaseModule@ATL@@3VCAtlBaseModule@1@A+8
; File c:\program files (x86)\microsoft visual studio\2017\community\vc\tools\msvc\14.15.26726\atlmfc\include\atlbase.h
; Line 7655
  0001b	33 ed		 xor	 ebp, ebp
  0001d	83 3d 00 00 00
	00 48		 cmp	 DWORD PTR ?_AtlWinModule@ATL@@3VCAtlWinModule@1@A, 72 ; 00000048H
  00024	75 76		 jne	 SHORT $LN10@dynamic
; Line 7660
  00026	8b 05 40 00 00
	00		 mov	 eax, DWORD PTR ?_AtlWinModule@ATL@@3VCAtlWinModule@1@A+64
  0002c	8b dd		 mov	 ebx, ebp
  0002e	85 c0		 test	 eax, eax
  00030	7e 37		 jle	 SHORT $LN12@dynamic
  00032	8b fd		 mov	 edi, ebp
$LL13@dynamic:
; File c:\program files (x86)\microsoft visual studio\2017\community\vc\tools\msvc\14.15.26726\atlmfc\include\atlsimpcoll.h
; Line 238
  00034	48 85 ff	 test	 rdi, rdi
  00037	0f 88 94 00 00
	00		 js	 $LN52@dynamic
  0003d	3b d8		 cmp	 ebx, eax
  0003f	0f 8d 8c 00 00
	00		 jge	 $LN52@dynamic
; File c:\program files (x86)\microsoft visual studio\2017\community\vc\tools\msvc\14.15.26726\atlmfc\include\atlbase.h
; Line 7661
  00045	48 8b 05 38 00
	00 00		 mov	 rax, QWORD PTR ?_AtlWinModule@ATL@@3VCAtlWinModule@1@A+56
  0004c	48 8b d6	 mov	 rdx, rsi
  0004f	0f b7 0c 07	 movzx	 ecx, WORD PTR [rdi+rax]
  00053	ff 15 00 00 00
	00		 call	 QWORD PTR __imp_UnregisterClassW
  00059	8b 05 40 00 00
	00		 mov	 eax, DWORD PTR ?_AtlWinModule@ATL@@3VCAtlWinModule@1@A+64
  0005f	ff c3		 inc	 ebx
  00061	48 83 c7 02	 add	 rdi, 2
  00065	3b d8		 cmp	 ebx, eax
  00067	7c cb		 jl	 SHORT $LL13@dynamic
$LN12@dynamic:
; File c:\program files (x86)\microsoft visual studio\2017\community\vc\tools\msvc\14.15.26726\atlmfc\include\atlsimpcoll.h
; Line 216
  00069	48 8b 0d 38 00
	00 00		 mov	 rcx, QWORD PTR ?_AtlWinModule@ATL@@3VCAtlWinModule@1@A+56
  00070	48 85 c9	 test	 rcx, rcx
  00073	74 0d		 je	 SHORT $LN29@dynamic
; Line 220
  00075	ff 15 00 00 00
	00		 call	 QWORD PTR __imp_free
; Line 221
  0007b	48 89 2d 38 00
	00 00		 mov	 QWORD PTR ?_AtlWinModule@ATL@@3VCAtlWinModule@1@A+56, rbp
$LN29@dynamic:
; File c:\program files (x86)\microsoft visual studio\2017\community\vc\tools\msvc\14.15.26726\atlmfc\include\atlcore.h
; Line 155
  00082	48 8d 0d 08 00
	00 00		 lea	 rcx, OFFSET FLAT:?_AtlWinModule@ATL@@3VCAtlWinModule@1@A+8
; File c:\program files (x86)\microsoft visual studio\2017\community\vc\tools\msvc\14.15.26726\atlmfc\include\atlsimpcoll.h
; Line 223
  00089	48 89 2d 40 00
	00 00		 mov	 QWORD PTR ?_AtlWinModule@ATL@@3VCAtlWinModule@1@A+64, rbp
; File c:\program files (x86)\microsoft visual studio\2017\community\vc\tools\msvc\14.15.26726\atlmfc\include\atlcore.h
; Line 155
  00090	ff 15 00 00 00
	00		 call	 QWORD PTR __imp_DeleteCriticalSection
; File c:\program files (x86)\microsoft visual studio\2017\community\vc\tools\msvc\14.15.26726\atlmfc\include\atlbase.h
; Line 7664
  00096	89 2d 00 00 00
	00		 mov	 DWORD PTR ?_AtlWinModule@ATL@@3VCAtlWinModule@1@A, ebp
$LN10@dynamic:
; File c:\program files (x86)\microsoft visual studio\2017\community\vc\tools\msvc\14.15.26726\atlmfc\include\atlsimpcoll.h
; Line 216
  0009c	48 8b 0d 38 00
	00 00		 mov	 rcx, QWORD PTR ?_AtlWinModule@ATL@@3VCAtlWinModule@1@A+56
  000a3	48 85 c9	 test	 rcx, rcx
  000a6	74 0d		 je	 SHORT $LN44@dynamic
; Line 220
  000a8	ff 15 00 00 00
	00		 call	 QWORD PTR __imp_free
; Line 221
  000ae	48 89 2d 38 00
	00 00		 mov	 QWORD PTR ?_AtlWinModule@ATL@@3VCAtlWinModule@1@A+56, rbp
$LN44@dynamic:
  000b5	48 8b 5c 24 30	 mov	 rbx, QWORD PTR [rsp+48]
  000ba	48 8b 74 24 40	 mov	 rsi, QWORD PTR [rsp+64]
; Line 223
  000bf	48 89 2d 40 00
	00 00		 mov	 QWORD PTR ?_AtlWinModule@ATL@@3VCAtlWinModule@1@A+64, rbp
  000c6	48 8b 6c 24 38	 mov	 rbp, QWORD PTR [rsp+56]
  000cb	48 83 c4 20	 add	 rsp, 32			; 00000020H
  000cf	5f		 pop	 rdi
  000d0	c3		 ret	 0
$LN52@dynamic:
; Line 240
  000d1	ba 01 00 00 00	 mov	 edx, 1
  000d6	b9 8c 00 00 c0	 mov	 ecx, -1073741684	; c000008cH
  000db	e8 00 00 00 00	 call	 ?_AtlRaiseException@ATL@@YAXKK@Z ; ATL::_AtlRaiseException
  000e0	cc		 int	 3
$LN63@dynamic:
??__F_AtlWinModule@ATL@@YAXXZ ENDP			; ATL::`dynamic atexit destructor for '_AtlWinModule''
text$yd	ENDS
; Function compile flags: /Ogtpy
;	COMDAT ?AtlWinModuleTerm@ATL@@YAJPEAU_ATL_WIN_MODULE70@1@PEAUHINSTANCE__@@@Z
_TEXT	SEGMENT
pWinModule$dead$ = 48
hInst$ = 56
?AtlWinModuleTerm@ATL@@YAJPEAU_ATL_WIN_MODULE70@1@PEAUHINSTANCE__@@@Z PROC ; ATL::AtlWinModuleTerm, COMDAT
; File c:\program files (x86)\microsoft visual studio\2017\community\vc\tools\msvc\14.15.26726\atlmfc\include\atlbase.h
; Line 7652
$LN39:
  00000	40 56		 push	 rsi
  00002	48 83 ec 20	 sub	 rsp, 32			; 00000020H
; Line 7655
  00006	8b 05 00 00 00
	00		 mov	 eax, DWORD PTR ?_AtlWinModule@ATL@@3VCAtlWinModule@1@A
  0000c	48 8b f2	 mov	 rsi, rdx
  0000f	85 c0		 test	 eax, eax
  00011	0f 84 9e 00 00
	00		 je	 $LN37@AtlWinModu
; Line 7657
  00017	83 f8 48	 cmp	 eax, 72			; 00000048H
  0001a	74 0b		 je	 SHORT $LN7@AtlWinModu
; Line 7658
  0001c	b8 57 00 07 80	 mov	 eax, -2147024809	; ffffffff80070057H
; Line 7666
  00021	48 83 c4 20	 add	 rsp, 32			; 00000020H
  00025	5e		 pop	 rsi
  00026	c3		 ret	 0
$LN7@AtlWinModu:
; Line 7660
  00027	8b 05 40 00 00
	00		 mov	 eax, DWORD PTR ?_AtlWinModule@ATL@@3VCAtlWinModule@1@A+64
  0002d	48 89 5c 24 30	 mov	 QWORD PTR [rsp+48], rbx
  00032	48 89 6c 24 38	 mov	 QWORD PTR [rsp+56], rbp
  00037	33 ed		 xor	 ebp, ebp
  00039	48 89 7c 24 40	 mov	 QWORD PTR [rsp+64], rdi
  0003e	8b dd		 mov	 ebx, ebp
  00040	85 c0		 test	 eax, eax
  00042	7e 2f		 jle	 SHORT $LN3@AtlWinModu
  00044	8b fd		 mov	 edi, ebp
$LL4@AtlWinModu:
; File c:\program files (x86)\microsoft visual studio\2017\community\vc\tools\msvc\14.15.26726\atlmfc\include\atlsimpcoll.h
; Line 238
  00046	48 85 ff	 test	 rdi, rdi
  00049	78 72		 js	 SHORT $LN26@AtlWinModu
  0004b	3b d8		 cmp	 ebx, eax
  0004d	7d 6e		 jge	 SHORT $LN26@AtlWinModu
; File c:\program files (x86)\microsoft visual studio\2017\community\vc\tools\msvc\14.15.26726\atlmfc\include\atlbase.h
; Line 7661
  0004f	48 8b 05 38 00
	00 00		 mov	 rax, QWORD PTR ?_AtlWinModule@ATL@@3VCAtlWinModule@1@A+56
  00056	48 8b d6	 mov	 rdx, rsi
  00059	0f b7 0c 07	 movzx	 ecx, WORD PTR [rdi+rax]
  0005d	ff 15 00 00 00
	00		 call	 QWORD PTR __imp_UnregisterClassW
  00063	8b 05 40 00 00
	00		 mov	 eax, DWORD PTR ?_AtlWinModule@ATL@@3VCAtlWinModule@1@A+64
  00069	ff c3		 inc	 ebx
  0006b	48 83 c7 02	 add	 rdi, 2
  0006f	3b d8		 cmp	 ebx, eax
  00071	7c d3		 jl	 SHORT $LL4@AtlWinModu
$LN3@AtlWinModu:
; File c:\program files (x86)\microsoft visual studio\2017\community\vc\tools\msvc\14.15.26726\atlmfc\include\atlsimpcoll.h
; Line 216
  00073	48 8b 0d 38 00
	00 00		 mov	 rcx, QWORD PTR ?_AtlWinModule@ATL@@3VCAtlWinModule@1@A+56
  0007a	48 85 c9	 test	 rcx, rcx
  0007d	74 0d		 je	 SHORT $LN20@AtlWinModu
; Line 220
  0007f	ff 15 00 00 00
	00		 call	 QWORD PTR __imp_free
; Line 221
  00085	48 89 2d 38 00
	00 00		 mov	 QWORD PTR ?_AtlWinModule@ATL@@3VCAtlWinModule@1@A+56, rbp
$LN20@AtlWinModu:
; File c:\program files (x86)\microsoft visual studio\2017\community\vc\tools\msvc\14.15.26726\atlmfc\include\atlcore.h
; Line 155
  0008c	48 8d 0d 08 00
	00 00		 lea	 rcx, OFFSET FLAT:?_AtlWinModule@ATL@@3VCAtlWinModule@1@A+8
; File c:\program files (x86)\microsoft visual studio\2017\community\vc\tools\msvc\14.15.26726\atlmfc\include\atlsimpcoll.h
; Line 223
  00093	48 89 2d 40 00
	00 00		 mov	 QWORD PTR ?_AtlWinModule@ATL@@3VCAtlWinModule@1@A+64, rbp
; File c:\program files (x86)\microsoft visual studio\2017\community\vc\tools\msvc\14.15.26726\atlmfc\include\atlcore.h
; Line 155
  0009a	ff 15 00 00 00
	00		 call	 QWORD PTR __imp_DeleteCriticalSection
  000a0	48 8b 5c 24 30	 mov	 rbx, QWORD PTR [rsp+48]
  000a5	48 8b 7c 24 40	 mov	 rdi, QWORD PTR [rsp+64]
; File c:\program files (x86)\microsoft visual studio\2017\community\vc\tools\msvc\14.15.26726\atlmfc\include\atlbase.h
; Line 7664
  000aa	89 2d 00 00 00
	00		 mov	 DWORD PTR ?_AtlWinModule@ATL@@3VCAtlWinModule@1@A, ebp
  000b0	48 8b 6c 24 38	 mov	 rbp, QWORD PTR [rsp+56]
$LN37@AtlWinModu:
; Line 7666
  000b5	33 c0		 xor	 eax, eax
  000b7	48 83 c4 20	 add	 rsp, 32			; 00000020H
  000bb	5e		 pop	 rsi
  000bc	c3		 ret	 0
$LN26@AtlWinModu:
; File c:\program files (x86)\microsoft visual studio\2017\community\vc\tools\msvc\14.15.26726\atlmfc\include\atlsimpcoll.h
; Line 240
  000bd	ba 01 00 00 00	 mov	 edx, 1
  000c2	b9 8c 00 00 c0	 mov	 ecx, -1073741684	; c000008cH
  000c7	e8 00 00 00 00	 call	 ?_AtlRaiseException@ATL@@YAXKK@Z ; ATL::_AtlRaiseException
  000cc	cc		 int	 3
$LN36@AtlWinModu:
?AtlWinModuleTerm@ATL@@YAJPEAU_ATL_WIN_MODULE70@1@PEAUHINSTANCE__@@@Z ENDP ; ATL::AtlWinModuleTerm
_TEXT	ENDS
; Function compile flags: /Ogtpy
;	COMDAT ?AtlWinModuleInit@ATL@@YAJPEAU_ATL_WIN_MODULE70@1@@Z
_TEXT	SEGMENT
pWinModule$dead$ = 48
?AtlWinModuleInit@ATL@@YAJPEAU_ATL_WIN_MODULE70@1@@Z PROC ; ATL::AtlWinModuleInit, COMDAT
; File c:\program files (x86)\microsoft visual studio\2017\community\vc\tools\msvc\14.15.26726\atlmfc\include\atlbase.h
; Line 8396
$LN16:
  00000	48 83 ec 28	 sub	 rsp, 40			; 00000028H
; Line 8401
  00004	83 3d 00 00 00
	00 48		 cmp	 DWORD PTR ?_AtlWinModule@ATL@@3VCAtlWinModule@1@A, 72 ; 00000048H
  0000b	74 0a		 je	 SHORT $LN3@AtlWinModu
; Line 8402
  0000d	b8 57 00 07 80	 mov	 eax, -2147024809	; ffffffff80070057H
; Line 8413
  00012	48 83 c4 28	 add	 rsp, 40			; 00000028H
  00016	c3		 ret	 0
$LN3@AtlWinModu:
  00017	48 89 5c 24 20	 mov	 QWORD PTR [rsp+32], rbx
; File c:\program files (x86)\microsoft visual studio\2017\community\vc\tools\msvc\14.15.26726\atlmfc\include\atlwinverapi.h
; Line 730
  0001c	48 8d 0d 08 00
	00 00		 lea	 rcx, OFFSET FLAT:?_AtlWinModule@ATL@@3VCAtlWinModule@1@A+8
; File c:\program files (x86)\microsoft visual studio\2017\community\vc\tools\msvc\14.15.26726\atlmfc\include\atlbase.h
; Line 8404
  00023	33 db		 xor	 ebx, ebx
; File c:\program files (x86)\microsoft visual studio\2017\community\vc\tools\msvc\14.15.26726\atlmfc\include\atlwinverapi.h
; Line 730
  00025	45 33 c0	 xor	 r8d, r8d
  00028	33 d2		 xor	 edx, edx
; File c:\program files (x86)\microsoft visual studio\2017\community\vc\tools\msvc\14.15.26726\atlmfc\include\atlbase.h
; Line 8404
  0002a	48 89 1d 30 00
	00 00		 mov	 QWORD PTR ?_AtlWinModule@ATL@@3VCAtlWinModule@1@A+48, rbx
; File c:\program files (x86)\microsoft visual studio\2017\community\vc\tools\msvc\14.15.26726\atlmfc\include\atlwinverapi.h
; Line 730
  00031	ff 15 00 00 00
	00		 call	 QWORD PTR __imp_InitializeCriticalSectionEx
; File c:\program files (x86)\microsoft visual studio\2017\community\vc\tools\msvc\14.15.26726\atlmfc\include\atlcore.h
; Line 145
  00037	85 c0		 test	 eax, eax
  00039	75 1f		 jne	 SHORT $LN14@AtlWinModu
; Line 147
  0003b	ff 15 00 00 00
	00		 call	 QWORD PTR __imp_GetLastError
; File c:\program files (x86)\windows kits\10\include\10.0.17134.0\shared\winerror.h
; Line 28504
  00041	85 c0		 test	 eax, eax
  00043	7f 0c		 jg	 SHORT $LN13@AtlWinModu
  00045	8b d8		 mov	 ebx, eax
; File c:\program files (x86)\microsoft visual studio\2017\community\vc\tools\msvc\14.15.26726\atlmfc\include\atlbase.h
; Line 8412
  00047	48 8b 5c 24 20	 mov	 rbx, QWORD PTR [rsp+32]
; Line 8413
  0004c	48 83 c4 28	 add	 rsp, 40			; 00000028H
  00050	c3		 ret	 0
$LN13@AtlWinModu:
; File c:\program files (x86)\windows kits\10\include\10.0.17134.0\shared\winerror.h
; Line 28504
  00051	0f b7 d8	 movzx	 ebx, ax
  00054	81 cb 00 00 07
	80		 or	 ebx, -2147024896	; ffffffff80070000H
$LN14@AtlWinModu:
; File c:\program files (x86)\microsoft visual studio\2017\community\vc\tools\msvc\14.15.26726\atlmfc\include\atlbase.h
; Line 8412
  0005a	8b c3		 mov	 eax, ebx
  0005c	48 8b 5c 24 20	 mov	 rbx, QWORD PTR [rsp+32]
; Line 8413
  00061	48 83 c4 28	 add	 rsp, 40			; 00000028H
  00065	c3		 ret	 0
?AtlWinModuleInit@ATL@@YAJPEAU_ATL_WIN_MODULE70@1@@Z ENDP ; ATL::AtlWinModuleInit
_TEXT	ENDS
; Function compile flags: /Ogtpy
;	COMDAT ??0CWin32Heap@ATL@@QEAA@PEAX@Z
_TEXT	SEGMENT
this$dead$ = 8
hHeap$ = 16
??0CWin32Heap@ATL@@QEAA@PEAX@Z PROC			; ATL::CWin32Heap::CWin32Heap, COMDAT
; File c:\program files (x86)\microsoft visual studio\2017\community\vc\tools\msvc\14.15.26726\atlmfc\include\atlmem.h
; Line 89
  00000	48 8d 05 00 00
	00 00		 lea	 rax, OFFSET FLAT:??_7CWin32Heap@ATL@@6B@
  00007	48 89 15 08 00
	00 00		 mov	 QWORD PTR ?strHeap@?1??GetInstance@CAtlStringMgr@ATL@@SAPEAUIAtlStringMgr@3@XZ@4VCWin32Heap@3@A+8, rdx
  0000e	48 89 05 00 00
	00 00		 mov	 QWORD PTR ?strHeap@?1??GetInstance@CAtlStringMgr@ATL@@SAPEAUIAtlStringMgr@3@XZ@4VCWin32Heap@3@A, rax
; Line 91
  00015	48 8d 05 00 00
	00 00		 lea	 rax, OFFSET FLAT:?strHeap@?1??GetInstance@CAtlStringMgr@ATL@@SAPEAUIAtlStringMgr@3@XZ@4VCWin32Heap@3@A ; `ATL::CAtlStringMgr::GetInstance'::`2'::strHeap
  0001c	c6 05 10 00 00
	00 00		 mov	 BYTE PTR ?strHeap@?1??GetInstance@CAtlStringMgr@ATL@@SAPEAUIAtlStringMgr@3@XZ@4VCWin32Heap@3@A+16, 0
  00023	c3		 ret	 0
??0CWin32Heap@ATL@@QEAA@PEAX@Z ENDP			; ATL::CWin32Heap::CWin32Heap
_TEXT	ENDS
; Function compile flags: /Ogtpy
;	COMDAT ??1CWin32Heap@ATL@@UEAA@XZ
_TEXT	SEGMENT
this$ = 8
??1CWin32Heap@ATL@@UEAA@XZ PROC				; ATL::CWin32Heap::~CWin32Heap, COMDAT
; File c:\program files (x86)\microsoft visual studio\2017\community\vc\tools\msvc\14.15.26726\atlmfc\include\atlmem.h
; Line 111
  00000	80 79 10 00	 cmp	 BYTE PTR [rcx+16], 0
  00004	48 8d 05 00 00
	00 00		 lea	 rax, OFFSET FLAT:??_7CWin32Heap@ATL@@6B@
  0000b	48 89 01	 mov	 QWORD PTR [rcx], rax
  0000e	74 10		 je	 SHORT $LN2@CWin32Heap
  00010	48 8b 49 08	 mov	 rcx, QWORD PTR [rcx+8]
  00014	48 85 c9	 test	 rcx, rcx
  00017	74 07		 je	 SHORT $LN2@CWin32Heap
; Line 115
  00019	48 ff 25 00 00
	00 00		 rex_jmp QWORD PTR __imp_HeapDestroy
$LN2@CWin32Heap:
; Line 119
  00020	c3		 ret	 0
??1CWin32Heap@ATL@@UEAA@XZ ENDP				; ATL::CWin32Heap::~CWin32Heap
_TEXT	ENDS
; Function compile flags: /Ogtpy
;	COMDAT ?Allocate@CWin32Heap@ATL@@UEAAPEAX_K@Z
_TEXT	SEGMENT
this$ = 8
nBytes$ = 16
?Allocate@CWin32Heap@ATL@@UEAAPEAX_K@Z PROC		; ATL::CWin32Heap::Allocate, COMDAT
; File c:\program files (x86)\microsoft visual studio\2017\community\vc\tools\msvc\14.15.26726\atlmfc\include\atlmem.h
; Line 145
  00000	48 8b 49 08	 mov	 rcx, QWORD PTR [rcx+8]
  00004	4c 8b c2	 mov	 r8, rdx
  00007	33 d2		 xor	 edx, edx
  00009	48 ff 25 00 00
	00 00		 rex_jmp QWORD PTR __imp_HeapAlloc
?Allocate@CWin32Heap@ATL@@UEAAPEAX_K@Z ENDP		; ATL::CWin32Heap::Allocate
_TEXT	ENDS
; Function compile flags: /Ogtpy
;	COMDAT ?Free@CWin32Heap@ATL@@UEAAXPEAX@Z
_TEXT	SEGMENT
this$ = 8
p$ = 16
?Free@CWin32Heap@ATL@@UEAAXPEAX@Z PROC			; ATL::CWin32Heap::Free, COMDAT
; File c:\program files (x86)\microsoft visual studio\2017\community\vc\tools\msvc\14.15.26726\atlmfc\include\atlmem.h
; Line 149
  00000	48 85 d2	 test	 rdx, rdx
  00003	74 10		 je	 SHORT $LN2@Free
; Line 153
  00005	48 8b 49 08	 mov	 rcx, QWORD PTR [rcx+8]
  00009	4c 8b c2	 mov	 r8, rdx
  0000c	33 d2		 xor	 edx, edx
  0000e	48 ff 25 00 00
	00 00		 rex_jmp QWORD PTR __imp_HeapFree
$LN2@Free:
; Line 156
  00015	c3		 ret	 0
?Free@CWin32Heap@ATL@@UEAAXPEAX@Z ENDP			; ATL::CWin32Heap::Free
_TEXT	ENDS
; Function compile flags: /Ogtpy
;	COMDAT ?Reallocate@CWin32Heap@ATL@@UEAAPEAXPEAX_K@Z
_TEXT	SEGMENT
this$ = 48
p$ = 56
nBytes$ = 64
?Reallocate@CWin32Heap@ATL@@UEAAPEAXPEAX_K@Z PROC	; ATL::CWin32Heap::Reallocate, COMDAT
; File c:\program files (x86)\microsoft visual studio\2017\community\vc\tools\msvc\14.15.26726\atlmfc\include\atlmem.h
; Line 160
$LN6:
  00000	48 83 ec 28	 sub	 rsp, 40			; 00000028H
; Line 161
  00004	48 85 d2	 test	 rdx, rdx
  00007	75 0d		 jne	 SHORT $LN2@Reallocate
; Line 163
  00009	48 8b 01	 mov	 rax, QWORD PTR [rcx]
  0000c	49 8b d0	 mov	 rdx, r8
; Line 173
  0000f	48 83 c4 28	 add	 rsp, 40			; 00000028H
; Line 163
  00013	48 ff 20	 rex_jmp QWORD PTR [rax]
$LN2@Reallocate:
; Line 166
  00016	4d 85 c0	 test	 r8, r8
  00019	75 0d		 jne	 SHORT $LN3@Reallocate
; Line 168
  0001b	48 8b 01	 mov	 rax, QWORD PTR [rcx]
  0001e	ff 50 08	 call	 QWORD PTR [rax+8]
; Line 169
  00021	33 c0		 xor	 eax, eax
; Line 173
  00023	48 83 c4 28	 add	 rsp, 40			; 00000028H
  00027	c3		 ret	 0
$LN3@Reallocate:
; Line 172
  00028	48 8b 49 08	 mov	 rcx, QWORD PTR [rcx+8]
  0002c	4d 8b c8	 mov	 r9, r8
  0002f	4c 8b c2	 mov	 r8, rdx
  00032	33 d2		 xor	 edx, edx
; Line 173
  00034	48 83 c4 28	 add	 rsp, 40			; 00000028H
; Line 172
  00038	48 ff 25 00 00
	00 00		 rex_jmp QWORD PTR __imp_HeapReAlloc
?Reallocate@CWin32Heap@ATL@@UEAAPEAXPEAX_K@Z ENDP	; ATL::CWin32Heap::Reallocate
_TEXT	ENDS
; Function compile flags: /Ogtpy
;	COMDAT ?GetSize@CWin32Heap@ATL@@UEAA_KPEAX@Z
_TEXT	SEGMENT
this$ = 8
p$ = 16
?GetSize@CWin32Heap@ATL@@UEAA_KPEAX@Z PROC		; ATL::CWin32Heap::GetSize, COMDAT
; File c:\program files (x86)\microsoft visual studio\2017\community\vc\tools\msvc\14.15.26726\atlmfc\include\atlmem.h
; Line 176
  00000	48 8b 49 08	 mov	 rcx, QWORD PTR [rcx+8]
  00004	4c 8b c2	 mov	 r8, rdx
  00007	33 d2		 xor	 edx, edx
  00009	48 ff 25 00 00
	00 00		 rex_jmp QWORD PTR __imp_HeapSize
?GetSize@CWin32Heap@ATL@@UEAA_KPEAX@Z ENDP		; ATL::CWin32Heap::GetSize
_TEXT	ENDS
; Function compile flags: /Ogtpy
;	COMDAT ??_GCWin32Heap@ATL@@UEAAPEAXI@Z
_TEXT	SEGMENT
this$ = 48
__flags$ = 56
??_GCWin32Heap@ATL@@UEAAPEAXI@Z PROC			; ATL::CWin32Heap::`scalar deleting destructor', COMDAT
$LN9:
  00000	48 89 5c 24 08	 mov	 QWORD PTR [rsp+8], rbx
  00005	57		 push	 rdi
  00006	48 83 ec 20	 sub	 rsp, 32			; 00000020H
; File c:\program files (x86)\microsoft visual studio\2017\community\vc\tools\msvc\14.15.26726\atlmfc\include\atlmem.h
; Line 111
  0000a	80 79 10 00	 cmp	 BYTE PTR [rcx+16], 0
  0000e	48 8d 05 00 00
	00 00		 lea	 rax, OFFSET FLAT:??_7CWin32Heap@ATL@@6B@
  00015	48 89 01	 mov	 QWORD PTR [rcx], rax
  00018	8b fa		 mov	 edi, edx
  0001a	48 8b d9	 mov	 rbx, rcx
  0001d	74 0f		 je	 SHORT $LN5@scalar
  0001f	48 8b 49 08	 mov	 rcx, QWORD PTR [rcx+8]
  00023	48 85 c9	 test	 rcx, rcx
  00026	74 06		 je	 SHORT $LN5@scalar
; Line 115
  00028	ff 15 00 00 00
	00		 call	 QWORD PTR __imp_HeapDestroy
$LN5@scalar:
  0002e	40 f6 c7 01	 test	 dil, 1
  00032	74 0d		 je	 SHORT $LN7@scalar
  00034	ba 18 00 00 00	 mov	 edx, 24
  00039	48 8b cb	 mov	 rcx, rbx
  0003c	e8 00 00 00 00	 call	 ??3@YAXPEAX_K@Z		; operator delete
$LN7@scalar:
  00041	48 8b c3	 mov	 rax, rbx
  00044	48 8b 5c 24 30	 mov	 rbx, QWORD PTR [rsp+48]
  00049	48 83 c4 20	 add	 rsp, 32			; 00000020H
  0004d	5f		 pop	 rdi
  0004e	c3		 ret	 0
??_GCWin32Heap@ATL@@UEAAPEAXI@Z ENDP			; ATL::CWin32Heap::`scalar deleting destructor'
_TEXT	ENDS
; Function compile flags: /Ogtpy
;	COMDAT ?data@CStringData@ATL@@QEAAPEAXXZ
_TEXT	SEGMENT
this$ = 8
?data@CStringData@ATL@@QEAAPEAXXZ PROC			; ATL::CStringData::data, COMDAT
; File c:\program files (x86)\microsoft visual studio\2017\community\vc\tools\msvc\14.15.26726\atlmfc\include\atlsimpstr.h
; Line 59
  00000	48 8d 41 18	 lea	 rax, QWORD PTR [rcx+24]
; Line 60
  00004	c3		 ret	 0
?data@CStringData@ATL@@QEAAPEAXXZ ENDP			; ATL::CStringData::data
_TEXT	ENDS
; Function compile flags: /Ogtpy
;	COMDAT ?AddRef@CStringData@ATL@@QEAAXXZ
_TEXT	SEGMENT
this$ = 8
?AddRef@CStringData@ATL@@QEAAXXZ PROC			; ATL::CStringData::AddRef, COMDAT
; File c:\program files (x86)\microsoft visual studio\2017\community\vc\tools\msvc\14.15.26726\atlmfc\include\atlsimpstr.h
; Line 65
  00000	f0 ff 41 10	 lock inc DWORD PTR [rcx+16]
; Line 66
  00004	c3		 ret	 0
?AddRef@CStringData@ATL@@QEAAXXZ ENDP			; ATL::CStringData::AddRef
_TEXT	ENDS
; Function compile flags: /Ogtpy
;	COMDAT ?IsShared@CStringData@ATL@@QEBA_NXZ
_TEXT	SEGMENT
this$ = 8
?IsShared@CStringData@ATL@@QEBA_NXZ PROC		; ATL::CStringData::IsShared, COMDAT
; File c:\program files (x86)\microsoft visual studio\2017\community\vc\tools\msvc\14.15.26726\atlmfc\include\atlsimpstr.h
; Line 73
  00000	83 79 10 01	 cmp	 DWORD PTR [rcx+16], 1
  00004	0f 9f c0	 setg	 al
; Line 74
  00007	c3		 ret	 0
?IsShared@CStringData@ATL@@QEBA_NXZ ENDP		; ATL::CStringData::IsShared
_TEXT	ENDS
; Function compile flags: /Ogtpy
;	COMDAT ?Release@CStringData@ATL@@QEAAXXZ
_TEXT	SEGMENT
this$ = 8
?Release@CStringData@ATL@@QEAAXXZ PROC			; ATL::CStringData::Release, COMDAT
; File c:\program files (x86)\microsoft visual studio\2017\community\vc\tools\msvc\14.15.26726\atlmfc\include\atlsimpstr.h
; Line 85
  00000	48 8b d1	 mov	 rdx, rcx
; Line 88
  00003	b8 ff ff ff ff	 mov	 eax, -1
  00008	f0 0f c1 41 10	 lock xadd DWORD PTR [rcx+16], eax
  0000d	83 e8 01	 sub	 eax, 1
  00010	7f 0a		 jg	 SHORT $LN2@Release
; Line 90
  00012	48 8b 09	 mov	 rcx, QWORD PTR [rcx]
  00015	48 8b 01	 mov	 rax, QWORD PTR [rcx]
  00018	48 ff 60 08	 rex_jmp QWORD PTR [rax+8]
$LN2@Release:
; Line 92
  0001c	c3		 ret	 0
?Release@CStringData@ATL@@QEAAXXZ ENDP			; ATL::CStringData::Release
_TEXT	ENDS
; Function compile flags: /Ogtpy
;	COMDAT ??0CNilStringData@ATL@@QEAA@XZ
_TEXT	SEGMENT
this$ = 8
??0CNilStringData@ATL@@QEAA@XZ PROC			; ATL::CNilStringData::CNilStringData, COMDAT
; File c:\program files (x86)\microsoft visual studio\2017\community\vc\tools\msvc\14.15.26726\atlmfc\include\atlsimpstr.h
; Line 114
  00000	33 c0		 xor	 eax, eax
; Line 115
  00002	c7 41 10 02 00
	00 00		 mov	 DWORD PTR [rcx+16], 2
  00009	48 89 01	 mov	 QWORD PTR [rcx], rax
; Line 116
