; Listing generated by Microsoft (R) Optimizing Compiler Version 19.15.26726.0 

include listing.inc

INCLUDELIB OLDNAMES

PUBLIC	??_R2?$_LaunchPad@V?$unique_ptr@V?$tuple@P6AXXZ@std@@U?$default_delete@V?$tuple@P6AXXZ@std@@@2@@std@@@std@@8 ; std::_LaunchPad<std::unique_ptr<std::tuple<void (__cdecl*)(void)>,std::default_delete<std::tuple<void (__cdecl*)(void)> > > >::`RTTI Base Class Array'
PUBLIC	??_R1A@?0A@EA@?$_LaunchPad@V?$unique_ptr@V?$tuple@P6AXXZ@std@@U?$default_delete@V?$tuple@P6AXXZ@std@@@2@@std@@@std@@8 ; std::_LaunchPad<std::unique_ptr<std::tuple<void (__cdecl*)(void)>,std::default_delete<std::tuple<void (__cdecl*)(void)> > > >::`RTTI Base Class Descriptor at (0,-1,0,64)'
PUBLIC	??_R3?$_LaunchPad@V?$unique_ptr@V?$tuple@P6AXXZ@std@@U?$default_delete@V?$tuple@P6AXXZ@std@@@2@@std@@@std@@8 ; std::_LaunchPad<std::unique_ptr<std::tuple<void (__cdecl*)(void)>,std::default_delete<std::tuple<void (__cdecl*)(void)> > > >::`RTTI Class Hierarchy Descriptor'
PUBLIC	??_R0?AV?$_LaunchPad@V?$unique_ptr@V?$tuple@P6AXXZ@std@@U?$default_delete@V?$tuple@P6AXXZ@std@@@2@@std@@@std@@@8 ; std::_LaunchPad<std::unique_ptr<std::tuple<void (__cdecl*)(void)>,std::default_delete<std::tuple<void (__cdecl*)(void)> > > > `RTTI Type Descriptor'
PUBLIC	??_R4?$_LaunchPad@V?$unique_ptr@V?$tuple@P6AXXZ@std@@U?$default_delete@V?$tuple@P6AXXZ@std@@@2@@std@@@std@@6B@ ; std::_LaunchPad<std::unique_ptr<std::tuple<void (__cdecl*)(void)>,std::default_delete<std::tuple<void (__cdecl*)(void)> > > >::`RTTI Complete Object Locator'
PUBLIC	??_7?$_LaunchPad@V?$unique_ptr@V?$tuple@P6AXXZ@std@@U?$default_delete@V?$tuple@P6AXXZ@std@@@2@@std@@@std@@6B@ ; std::_LaunchPad<std::unique_ptr<std::tuple<void (__cdecl*)(void)>,std::default_delete<std::tuple<void (__cdecl*)(void)> > > >::`vftable'
PUBLIC	?mem_percent@@3PAHA				; mem_percent
PUBLIC	?cpu_percent@@3PAMA				; cpu_percent
PUBLIC	?affinity@@3HA					; affinity
PUBLIC	?sys_info@@3U_SYSTEM_INFO@@A			; sys_info
PUBLIC	?mem_status@@3U_MEMORYSTATUSEX@@A		; mem_status
PUBLIC	?b@@3PEAVBenchmark@@EA				; b
PUBLIC	?processor_status@@3PEAUHWND__@@EA		; processor_status
PUBLIC	?processor_info@@3PEAUHWND__@@EA		; processor_info
PUBLIC	?mem@@3PEAUHWND__@@EA				; mem
PUBLIC	?hWnd@@3PEAUHWND__@@EA				; hWnd
PUBLIC	?szWindowClass@@3PA_WA				; szWindowClass
PUBLIC	?szTitle@@3PA_WA				; szTitle
PUBLIC	?hInst@@3PEAUHINSTANCE__@@EA			; hInst
PUBLIC	??_C@_01CLKCMJKC@?5@				; `string'
PUBLIC	??_C@_1BM@LNAGOHNF@?$AAR?$AAu?$AAn?$AA?5?$AAB?$AAe?$AAn?$AAc?$AAh?$AAm?$AAa?$AAr?$AAk@ ; `string'
PUBLIC	??_C@_1O@KPNLMGP@?$AAb?$AAu?$AAt?$AAt?$AAo?$AAn@ ; `string'
PUBLIC	??_C@_1BEM@CGCCBALC@?$AAS?$AAy?$AAs?$AAt?$AAe?$AAm?$AA?5?$AAM?$AAe?$AAm?$AAo?$AAr?$AAy?$AA?5?$AAS@ ; `string'
PUBLIC	??_C@_13LBAGMAIH@?$AA?6@			; `string'
PUBLIC	??_C@_1FO@JMGGDBHO@?$AAH?$AAA?$AAR?$AAD?$AAW?$AAA?$AAR?$AAE?$AA?2?$AAD?$AAE?$AAS?$AAC?$AAR?$AAI@ ; `string'
PUBLIC	??_C@_19KBOEDNGH@?$AA?$HO?$AAM?$AAH?$AAz@	; `string'
PUBLIC	??_C@_1M@MICDHJOD@?$AA?5?$AAM?$AAH?$AAz?$AA?6@	; `string'
PUBLIC	??_C@_1DO@JEEELCIN@?$AAC?$AAl?$AAo?$AAc?$AAk?$AA?5?$AAS?$AAp?$AAe?$AAe?$AAd?$AA?3?$AA?5?$AA?5?$AA?5@ ; `string'
PUBLIC	??_C@_1DK@CPNKBFAM@?$AAL?$AAo?$AAg?$AAi?$AAc?$AAa?$AAl?$AA?5?$AAP?$AAr?$AAo?$AAc?$AAe?$AAs?$AAs@ ; `string'
PUBLIC	??_C@_1EM@FKIHAIBA@?$AAC?$AAP?$AAU?$AA?5?$AAU?$AAs?$AAa?$AAg?$AAe?$AA?3?$AA?5?$AA?5?$AA?5?$AA?5?$AA?5@ ; `string'
PUBLIC	??_C@_0BD@OLBABOEK@vector?$DMT?$DO?5too?5long@	; `string'
PUBLIC	??_C@_0BA@JFNIOLAK@string?5too?5long@		; `string'
EXTRN	__imp_?_Xlength_error@std@@YAXPEBD@Z:PROC
EXTRN	__imp_GetSystemTimes:PROC
EXTRN	__imp_GetCurrentThread:PROC
EXTRN	__imp_SetThreadAffinityMask:PROC
EXTRN	__imp_GetSystemInfo:PROC
EXTRN	__imp_SetWindowTextW:PROC
EXTRN	__imp_GlobalMemoryStatusEx:PROC
EXTRN	__imp_EndDialog:PROC
EXTRN	__imp_PostQuitMessage:PROC
EXTRN	__imp_GetStockObject:PROC
EXTRN	__imp_SetBkMode:PROC
EXTRN	__imp_SetTextColor:PROC
EXTRN	__imp_EndPaint:PROC
EXTRN	__imp_BeginPaint:PROC
EXTRN	__imp_DefWindowProcW:PROC
EXTRN	__imp_DestroyWindow:PROC
EXTRN	__imp_DialogBoxParamW:PROC
EXTRN	__imp_UpdateWindow:PROC
EXTRN	__imp_ShowWindow:PROC
EXTRN	__imp_RegisterClassExW:PROC
EXTRN	__imp_LoadCursorW:PROC
EXTRN	__imp_LoadIconW:PROC
EXTRN	__imp_TranslateAcceleratorW:PROC
EXTRN	__imp_LoadAcceleratorsW:PROC
EXTRN	__imp__Thrd_sleep:PROC
EXTRN	__imp__Xtime_get_ticks:PROC
EXTRN	__imp_TranslateMessage:PROC
EXTRN	__imp_RegQueryValueExW:PROC
EXTRN	__imp_DispatchMessageW:PROC
EXTRN	__imp_GetMessageW:PROC
EXTRN	__imp_RegOpenKeyExW:PROC
EXTRN	__imp_LoadStringW:PROC
EXTRN	__imp_MultiByteToWideChar:PROC
EXTRN	__imp__invalid_parameter_noinfo_noreturn:PROC
;	COMDAT ?_previousIdleTicks@?1??CalculateCPULoad@@YAM_K0@Z@4_KA
_BSS	SEGMENT
?_previousIdleTicks@?1??CalculateCPULoad@@YAM_K0@Z@4_KA DQ 01H DUP (?) ; `CalculateCPULoad'::`2'::_previousIdleTicks
_BSS	ENDS
;	COMDAT ?_previousTotalTicks@?1??CalculateCPULoad@@YAM_K0@Z@4_KA
_BSS	SEGMENT
?_previousTotalTicks@?1??CalculateCPULoad@@YAM_K0@Z@4_KA DQ 01H DUP (?) ; `CalculateCPULoad'::`2'::_previousTotalTicks
?mem_percent@@3PAHA DD 064H DUP (?)			; mem_percent
?cpu_percent@@3PAMA DD 064H DUP (?)			; cpu_percent
?sys_info@@3U_SYSTEM_INFO@@A DB 030H DUP (?)		; sys_info
?mem_status@@3U_MEMORYSTATUSEX@@A DB 040H DUP (?)	; mem_status
?b@@3PEAVBenchmark@@EA DQ 01H DUP (?)			; b
?processor_status@@3PEAUHWND__@@EA DQ 01H DUP (?)	; processor_status
?processor_info@@3PEAUHWND__@@EA DQ 01H DUP (?)		; processor_info
?mem@@3PEAUHWND__@@EA DQ 01H DUP (?)			; mem
?hWnd@@3PEAUHWND__@@EA DQ 01H DUP (?)			; hWnd
?szWindowClass@@3PA_WA DW 064H DUP (?)			; szWindowClass
?szTitle@@3PA_WA DW 064H DUP (?)			; szTitle
?hInst@@3PEAUHINSTANCE__@@EA DQ 01H DUP (?)		; hInst
_BSS	ENDS
;	COMDAT ??_C@_0BA@JFNIOLAK@string?5too?5long@
CONST	SEGMENT
??_C@_0BA@JFNIOLAK@string?5too?5long@ DB 'string too long', 00H ; `string'
CONST	ENDS
;	COMDAT ??_C@_0BD@OLBABOEK@vector?$DMT?$DO?5too?5long@
CONST	SEGMENT
??_C@_0BD@OLBABOEK@vector?$DMT?$DO?5too?5long@ DB 'vector<T> too long', 00H ; `string'
CONST	ENDS
;	COMDAT ??_C@_1EM@FKIHAIBA@?$AAC?$AAP?$AAU?$AA?5?$AAU?$AAs?$AAa?$AAg?$AAe?$AA?3?$AA?5?$AA?5?$AA?5?$AA?5?$AA?5@
CONST	SEGMENT
??_C@_1EM@FKIHAIBA@?$AAC?$AAP?$AAU?$AA?5?$AAU?$AAs?$AAa?$AAg?$AAe?$AA?3?$AA?5?$AA?5?$AA?5?$AA?5?$AA?5@ DB 'C'
	DB	00H, 'P', 00H, 'U', 00H, ' ', 00H, 'U', 00H, 's', 00H, 'a', 00H
	DB	'g', 00H, 'e', 00H, ':', 00H, ' ', 00H, ' ', 00H, ' ', 00H, ' '
	DB	00H, ' ', 00H, ' ', 00H, ' ', 00H, ' ', 00H, ' ', 00H, ' ', 00H
	DB	' ', 00H, ' ', 00H, ' ', 00H, ' ', 00H, ' ', 00H, ' ', 00H, ' '
	DB	00H, ' ', 00H, ' ', 00H, ' ', 00H, '%', 00H, '.', 00H, '2', 00H
	DB	'f', 00H, ' ', 00H, '%', 00H, '%', 00H, 00H, 00H ; `string'
CONST	ENDS
;	COMDAT ??_C@_1DK@CPNKBFAM@?$AAL?$AAo?$AAg?$AAi?$AAc?$AAa?$AAl?$AA?5?$AAP?$AAr?$AAo?$AAc?$AAe?$AAs?$AAs@
CONST	SEGMENT
??_C@_1DK@CPNKBFAM@?$AAL?$AAo?$AAg?$AAi?$AAc?$AAa?$AAl?$AA?5?$AAP?$AAr?$AAo?$AAc?$AAe?$AAs?$AAs@ DB 'L'
	DB	00H, 'o', 00H, 'g', 00H, 'i', 00H, 'c', 00H, 'a', 00H, 'l', 00H
	DB	' ', 00H, 'P', 00H, 'r', 00H, 'o', 00H, 'c', 00H, 'e', 00H, 's'
	DB	00H, 's', 00H, 'o', 00H, 'r', 00H, 's', 00H, ':', 00H, ' ', 00H
	DB	' ', 00H, ' ', 00H, ' ', 00H, ' ', 00H, ' ', 00H, ' ', 00H, '%'
	DB	00H, 'd', 00H, 00H, 00H			; `string'
CONST	ENDS
;	COMDAT ??_C@_1DO@JEEELCIN@?$AAC?$AAl?$AAo?$AAc?$AAk?$AA?5?$AAS?$AAp?$AAe?$AAe?$AAd?$AA?3?$AA?5?$AA?5?$AA?5@
CONST	SEGMENT
??_C@_1DO@JEEELCIN@?$AAC?$AAl?$AAo?$AAc?$AAk?$AA?5?$AAS?$AAp?$AAe?$AAe?$AAd?$AA?3?$AA?5?$AA?5?$AA?5@ DB 'C'
	DB	00H, 'l', 00H, 'o', 00H, 'c', 00H, 'k', 00H, ' ', 00H, 'S', 00H
	DB	'p', 00H, 'e', 00H, 'e', 00H, 'd', 00H, ':', 00H, ' ', 00H, ' '
	DB	00H, ' ', 00H, ' ', 00H, ' ', 00H, ' ', 00H, ' ', 00H, ' ', 00H
	DB	' ', 00H, ' ', 00H, ' ', 00H, ' ', 00H, ' ', 00H, ' ', 00H, ' '
	DB	00H, ' ', 00H, ' ', 00H, ' ', 00H, 00H, 00H	; `string'
CONST	ENDS
;	COMDAT ??_C@_1M@MICDHJOD@?$AA?5?$AAM?$AAH?$AAz?$AA?6@
CONST	SEGMENT
??_C@_1M@MICDHJOD@?$AA?5?$AAM?$AAH?$AAz?$AA?6@ DB ' ', 00H, 'M', 00H, 'H', 00H
	DB	'z', 00H, 0aH, 00H, 00H, 00H			; `string'
CONST	ENDS
;	COMDAT ??_C@_19KBOEDNGH@?$AA?$HO?$AAM?$AAH?$AAz@
CONST	SEGMENT
??_C@_19KBOEDNGH@?$AA?$HO?$AAM?$AAH?$AAz@ DB '~', 00H, 'M', 00H, 'H', 00H
	DB	'z', 00H, 00H, 00H				; `string'
CONST	ENDS
;	COMDAT ??_C@_1FO@JMGGDBHO@?$AAH?$AAA?$AAR?$AAD?$AAW?$AAA?$AAR?$AAE?$AA?2?$AAD?$AAE?$AAS?$AAC?$AAR?$AAI@
CONST	SEGMENT
??_C@_1FO@JMGGDBHO@?$AAH?$AAA?$AAR?$AAD?$AAW?$AAA?$AAR?$AAE?$AA?2?$AAD?$AAE?$AAS?$AAC?$AAR?$AAI@ DB 'H'
	DB	00H, 'A', 00H, 'R', 00H, 'D', 00H, 'W', 00H, 'A', 00H, 'R', 00H
	DB	'E', 00H, '\', 00H, 'D', 00H, 'E', 00H, 'S', 00H, 'C', 00H, 'R'
	DB	00H, 'I', 00H, 'P', 00H, 'T', 00H, 'I', 00H, 'O', 00H, 'N', 00H
	DB	'\', 00H, 'S', 00H, 'y', 00H, 's', 00H, 't', 00H, 'e', 00H, 'm'
	DB	00H, '\', 00H, 'C', 00H, 'e', 00H, 'n', 00H, 't', 00H, 'r', 00H
	DB	'a', 00H, 'l', 00H, 'P', 00H, 'r', 00H, 'o', 00H, 'c', 00H, 'e'
	DB	00H, 's', 00H, 's', 00H, 'o', 00H, 'r', 00H, '\', 00H, '0', 00H
	DB	00H, 00H					; `string'
CONST	ENDS
;	COMDAT ??_C@_13LBAGMAIH@?$AA?6@
CONST	SEGMENT
??_C@_13LBAGMAIH@?$AA?6@ DB 0aH, 00H, 00H, 00H		; `string'
CONST	ENDS
;	COMDAT ??_C@_1BEM@CGCCBALC@?$AAS?$AAy?$AAs?$AAt?$AAe?$AAm?$AA?5?$AAM?$AAe?$AAm?$AAo?$AAr?$AAy?$AA?5?$AAS@
CONST	SEGMENT
??_C@_1BEM@CGCCBALC@?$AAS?$AAy?$AAs?$AAt?$AAe?$AAm?$AA?5?$AAM?$AAe?$AAm?$AAo?$AAr?$AAy?$AA?5?$AAS@ DB 'S'
	DB	00H, 'y', 00H, 's', 00H, 't', 00H, 'e', 00H, 'm', 00H, ' ', 00H
	DB	'M', 00H, 'e', 00H, 'm', 00H, 'o', 00H, 'r', 00H, 'y', 00H, ' '
	DB	00H, 'S', 00H, 't', 00H, 'a', 00H, 't', 00H, 'u', 00H, 's', 00H
	DB	':', 00H, 0aH, 00H, 0aH, 00H, 'M', 00H, 'e', 00H, 'm', 00H, 'o'
	DB	00H, 'r', 00H, 'y', 00H, ' ', 00H, 'U', 00H, 's', 00H, 'a', 00H
	DB	'g', 00H, 'e', 00H, ' ', 00H, '%', 00H, '%', 00H, ':', 00H, ' '
	DB	00H, ' ', 00H, ' ', 00H, ' ', 00H, ' ', 00H, ' ', 00H, ' ', 00H
	DB	' ', 00H, ' ', 00H, ' ', 00H, ' ', 00H, ' ', 00H, ' ', 00H, ' '
	DB	00H, ' ', 00H, ' ', 00H, '%', 00H, 'd', 00H, ' ', 00H, '%', 00H
	DB	'%', 00H, 0aH, 00H, 'M', 00H, 'e', 00H, 'm', 00H, 'o', 00H, 'r'
	DB	00H, 'y', 00H, ' ', 00H, 'U', 00H, 's', 00H, 'a', 00H, 'g', 00H
	DB	'e', 00H, ' ', 00H, 'M', 00H, 'B', 00H, ':', 00H, ' ', 00H, ' '
	DB	00H, ' ', 00H, ' ', 00H, ' ', 00H, ' ', 00H, ' ', 00H, ' ', 00H
	DB	' ', 00H, ' ', 00H, ' ', 00H, ' ', 00H, ' ', 00H, '%', 00H, 'd'
	DB	00H, ' ', 00H, 'M', 00H, 'B', 00H, 0aH, 00H, 'T', 00H, 'o', 00H
	DB	't', 00H, 'a', 00H, 'l', 00H, ' ', 00H, 'S', 00H, 'y', 00H, 's'
	DB	00H, 't', 00H, 'e', 00H, 'm', 00H, ' ', 00H, 'M', 00H, 'e', 00H
	DB	'm', 00H, 'o', 00H, 'r', 00H, 'y', 00H, ':', 00H, ' ', 00H, ' '
	DB	00H, ' ', 00H, ' ', 00H, ' ', 00H, ' ', 00H, ' ', 00H, ' ', 00H
	DB	' ', 00H, '%', 00H, 'd', 00H, ' ', 00H, 'M', 00H, 'B', 00H, 0aH
	DB	00H, 'T', 00H, 'o', 00H, 't', 00H, 'a', 00H, 'l', 00H, ' ', 00H
	DB	'A', 00H, 'v', 00H, 'a', 00H, 'i', 00H, 'l', 00H, 'a', 00H, 'b'
	DB	00H, 'l', 00H, 'e', 00H, ' ', 00H, 'M', 00H, 'e', 00H, 'm', 00H
	DB	'o', 00H, 'r', 00H, 'y', 00H, ':', 00H, ' ', 00H, ' ', 00H, ' '
	DB	00H, ' ', 00H, ' ', 00H, ' ', 00H, '%', 00H, 'd', 00H, ' ', 00H
	DB	'M', 00H, 'B', 00H, 00H, 00H			; `string'
CONST	ENDS
;	COMDAT ??_C@_1O@KPNLMGP@?$AAb?$AAu?$AAt?$AAt?$AAo?$AAn@
CONST	SEGMENT
??_C@_1O@KPNLMGP@?$AAb?$AAu?$AAt?$AAt?$AAo?$AAn@ DB 'b', 00H, 'u', 00H, 't'
	DB	00H, 't', 00H, 'o', 00H, 'n', 00H, 00H, 00H	; `string'
CONST	ENDS
;	COMDAT ??_C@_1BM@LNAGOHNF@?$AAR?$AAu?$AAn?$AA?5?$AAB?$AAe?$AAn?$AAc?$AAh?$AAm?$AAa?$AAr?$AAk@
CONST	SEGMENT
??_C@_1BM@LNAGOHNF@?$AAR?$AAu?$AAn?$AA?5?$AAB?$AAe?$AAn?$AAc?$AAh?$AAm?$AAa?$AAr?$AAk@ DB 'R'
	DB	00H, 'u', 00H, 'n', 00H, ' ', 00H, 'B', 00H, 'e', 00H, 'n', 00H
	DB	'c', 00H, 'h', 00H, 'm', 00H, 'a', 00H, 'r', 00H, 'k', 00H, 00H
	DB	00H						; `string'
CONST	ENDS
;	COMDAT ??_C@_01CLKCMJKC@?5@
CONST	SEGMENT
??_C@_01CLKCMJKC@?5@ DB ' ', 00H			; `string'
?affinity@@3HA DD 01H					; affinity
_DATA	ENDS
;	COMDAT ??_7?$_LaunchPad@V?$unique_ptr@V?$tuple@P6AXXZ@std@@U?$default_delete@V?$tuple@P6AXXZ@std@@@2@@std@@@std@@6B@
CONST	SEGMENT
??_7?$_LaunchPad@V?$unique_ptr@V?$tuple@P6AXXZ@std@@U?$default_delete@V?$tuple@P6AXXZ@std@@@2@@std@@@std@@6B@ DQ FLAT:??_R4?$_LaunchPad@V?$unique_ptr@V?$tuple@P6AXXZ@std@@U?$default_delete@V?$tuple@P6AXXZ@std@@@2@@std@@@std@@6B@ ; std::_LaunchPad<std::unique_ptr<std::tuple<void (__cdecl*)(void)>,std::default_delete<std::tuple<void (__cdecl*)(void)> > > >::`vftable'
	DQ	FLAT:?_Go@?$_LaunchPad@V?$unique_ptr@V?$tuple@P6AXXZ@std@@U?$default_delete@V?$tuple@P6AXXZ@std@@@2@@std@@@std@@UEAAXXZ
CONST	ENDS
;	COMDAT ??_R4?$_LaunchPad@V?$unique_ptr@V?$tuple@P6AXXZ@std@@U?$default_delete@V?$tuple@P6AXXZ@std@@@2@@std@@@std@@6B@
rdata$r	SEGMENT
??_R4?$_LaunchPad@V?$unique_ptr@V?$tuple@P6AXXZ@std@@U?$default_delete@V?$tuple@P6AXXZ@std@@@2@@std@@@std@@6B@ DD 01H ; std::_LaunchPad<std::unique_ptr<std::tuple<void (__cdecl*)(void)>,std::default_delete<std::tuple<void (__cdecl*)(void)> > > >::`RTTI Complete Object Locator'
	DD	00H
	DD	00H
	DD	imagerel ??_R0?AV?$_LaunchPad@V?$unique_ptr@V?$tuple@P6AXXZ@std@@U?$default_delete@V?$tuple@P6AXXZ@std@@@2@@std@@@std@@@8
	DD	imagerel ??_R3?$_LaunchPad@V?$unique_ptr@V?$tuple@P6AXXZ@std@@U?$default_delete@V?$tuple@P6AXXZ@std@@@2@@std@@@std@@8
	DD	imagerel ??_R4?$_LaunchPad@V?$unique_ptr@V?$tuple@P6AXXZ@std@@U?$default_delete@V?$tuple@P6AXXZ@std@@@2@@std@@@std@@6B@
rdata$r	ENDS
;	COMDAT ??_R0?AV?$_LaunchPad@V?$unique_ptr@V?$tuple@P6AXXZ@std@@U?$default_delete@V?$tuple@P6AXXZ@std@@@2@@std@@@std@@@8
data$r	SEGMENT
??_R0?AV?$_LaunchPad@V?$unique_ptr@V?$tuple@P6AXXZ@std@@U?$default_delete@V?$tuple@P6AXXZ@std@@@2@@std@@@std@@@8 DQ FLAT:??_7type_info@@6B@ ; std::_LaunchPad<std::unique_ptr<std::tuple<void (__cdecl*)(void)>,std::default_delete<std::tuple<void (__cdecl*)(void)> > > > `RTTI Type Descriptor'
	DQ	0000000000000000H
	DB	'.?AV?$_LaunchPad@V?$unique_ptr@V?$tuple@P6AXXZ@std@@U?$d'
	DB	'efault_delete@V?$tuple@P6AXXZ@std@@@2@@std@@@std@@', 00H
data$r	ENDS
;	COMDAT ??_R3?$_LaunchPad@V?$unique_ptr@V?$tuple@P6AXXZ@std@@U?$default_delete@V?$tuple@P6AXXZ@std@@@2@@std@@@std@@8
rdata$r	SEGMENT
??_R3?$_LaunchPad@V?$unique_ptr@V?$tuple@P6AXXZ@std@@U?$default_delete@V?$tuple@P6AXXZ@std@@@2@@std@@@std@@8 DD 00H ; std::_LaunchPad<std::unique_ptr<std::tuple<void (__cdecl*)(void)>,std::default_delete<std::tuple<void (__cdecl*)(void)> > > >::`RTTI Class Hierarchy Descriptor'
	DD	00H
	DD	02H
	DD	imagerel ??_R2?$_LaunchPad@V?$unique_ptr@V?$tuple@P6AXXZ@std@@U?$default_delete@V?$tuple@P6AXXZ@std@@@2@@std@@@std@@8
rdata$r	ENDS
;	COMDAT ??_R1A@?0A@EA@?$_LaunchPad@V?$unique_ptr@V?$tuple@P6AXXZ@std@@U?$default_delete@V?$tuple@P6AXXZ@std@@@2@@std@@@std@@8
rdata$r	SEGMENT
??_R1A@?0A@EA@?$_LaunchPad@V?$unique_ptr@V?$tuple@P6AXXZ@std@@U?$default_delete@V?$tuple@P6AXXZ@std@@@2@@std@@@std@@8 DD imagerel ??_R0?AV?$_LaunchPad@V?$unique_ptr@V?$tuple@P6AXXZ@std@@U?$default_delete@V?$tuple@P6AXXZ@std@@@2@@std@@@std@@@8 ; std::_LaunchPad<std::unique_ptr<std::tuple<void (__cdecl*)(void)>,std::default_delete<std::tuple<void (__cdecl*)(void)> > > >::`RTTI Base Class Descriptor at (0,-1,0,64)'
	DD	01H
	DD	00H
	DD	0ffffffffH
	DD	00H
	DD	040H
	DD	imagerel ??_R3?$_LaunchPad@V?$unique_ptr@V?$tuple@P6AXXZ@std@@U?$default_delete@V?$tuple@P6AXXZ@std@@@2@@std@@@std@@8
rdata$r	ENDS
;	COMDAT ??_R2?$_LaunchPad@V?$unique_ptr@V?$tuple@P6AXXZ@std@@U?$default_delete@V?$tuple@P6AXXZ@std@@@2@@std@@@std@@8
rdata$r	SEGMENT
??_R2?$_LaunchPad@V?$unique_ptr@V?$tuple@P6AXXZ@std@@U?$default_delete@V?$tuple@P6AXXZ@std@@@2@@std@@@std@@8 DD imagerel ??_R1A@?0A@EA@?$_LaunchPad@V?$unique_ptr@V?$tuple@P6AXXZ@std@@U?$default_delete@V?$tuple@P6AXXZ@std@@@2@@std@@@std@@8 ; std::_LaunchPad<std::unique_ptr<std::tuple<void (__cdecl*)(void)>,std::default_delete<std::tuple<void (__cdecl*)(void)> > > >::`RTTI Base Class Array'
	DD	imagerel ??_R1A@?0A@EA@_Pad@std@@8
	ORG $+3
PUBLIC	??$forward@AEAPEAV?$tuple@P6AXXZ@std@@@std@@YAAEAPEAV?$tuple@P6AXXZ@0@AEAPEAV10@@Z ; std::forward<std::tuple<void (__cdecl*)(void)> * &>
PUBLIC	??$?0AEAPEAV?$tuple@P6AXXZ@std@@@?$_Compressed_pair@U?$default_delete@V?$tuple@P6AXXZ@std@@@std@@PEAV?$tuple@P6AXXZ@2@$00@std@@QEAA@U_Zero_then_variadic_args_t@1@AEAPEAV?$tuple@P6AXXZ@1@@Z ; std::_Compressed_pair<std::default_delete<std::tuple<void (__cdecl*)(void)> >,std::tuple<void (__cdecl*)(void)> *,1>::_Compressed_pair<std::default_delete<std::tuple<void (__cdecl*)(void)> >,std::tuple<void (__cdecl*)(void)> *,1><std::tuple<void (__cdecl*)(void)> * &>
PUBLIC	??$?0AEBQ6AXXZ@?$_Tuple_val@P6AXXZ@std@@QEAA@AEBQ6AXXZ@Z ; std::_Tuple_val<void (__cdecl*)(void)>::_Tuple_val<void (__cdecl*)(void)><void (__cdecl*const &)(void)>
PUBLIC	??$forward@AEBQ6AXXZ@std@@YAAEBQ6AXXZAEBQ6AXXZ@Z ; std::forward<void (__cdecl*const &)(void)>
PUBLIC	??$_Call@P6AXXZ$$V@_Invoker_functor@std@@SAX$$QEAP6AXXZ@Z ; std::_Invoker_functor::_Call<void (__cdecl*)(void)>
PUBLIC	??$forward@P6AXXZ@std@@YA$$QEAP6AXXZAEAP6AXXZ@Z	; std::forward<void (__cdecl*)(void)>
PUBLIC	??$?0U?$default_delete@V?$tuple@P6AXXZ@std@@@std@@AEAPEAV?$tuple@P6AXXZ@1@@?$_Compressed_pair@U?$default_delete@V?$tuple@P6AXXZ@std@@@std@@PEAV?$tuple@P6AXXZ@2@$00@std@@QEAA@U_One_then_variadic_args_t@1@$$QEAU?$default_delete@V?$tuple@P6AXXZ@std@@@1@AEAPEAV?$tuple@P6AXXZ@1@@Z ; std::_Compressed_pair<std::default_delete<std::tuple<void (__cdecl*)(void)> >,std::tuple<void (__cdecl*)(void)> *,1>::_Compressed_pair<std::default_delete<std::tuple<void (__cdecl*)(void)> >,std::tuple<void (__cdecl*)(void)> *,1><std::default_delete<std::tuple<void (__cdecl*)(void)> >,std::tuple<void (__cdecl*)(void)> * &>
PUBLIC	??$invoke@P6AXXZ$$V@std@@YAX$$QEAP6AXXZ@Z	; std::invoke<void (__cdecl*)(void)>
PUBLIC	??$move@AEAP6AXXZ@std@@YA$$QEAP6AXXZAEAP6AXXZ@Z	; std::move<void (__cdecl*&)(void)>
PUBLIC	??$get@$0A@P6AXXZ@std@@YAAEAP6AXXZAEAV?$tuple@P6AXXZ@0@@Z ; std::get<0,void (__cdecl*)(void)>
PUBLIC	??$_Copy_memmove@PEAV?$array@H$03@std@@PEAV12@@std@@YAPEAV?$array@H$03@0@PEAV10@00@Z ; std::_Copy_memmove<std::array<int,4> *,std::array<int,4> *>
PUBLIC	??$duration_cast@V?$duration@_JU?$ratio@$00$0DLJKMKAA@@std@@@chrono@std@@_JU?$ratio@$00$0JIJGIA@@3@X@chrono@std@@YA?AV?$duration@_JU?$ratio@$00$0DLJKMKAA@@std@@@01@AEBV?$duration@_JU?$ratio@$00$0JIJGIA@@std@@@01@@Z ; std::chrono::duration_cast<std::chrono::duration<__int64,std::ratio<1,1000000000> >,__int64,std::ratio<1,10000000>,void>
PUBLIC	??$?M_JU?$ratio@$00$00@std@@_JU01@@chrono@std@@YA_NAEBV?$duration@_JU?$ratio@$00$00@std@@@01@0@Z ; std::chrono::operator<<__int64,std::ratio<1,1>,__int64,std::ratio<1,1> >
PUBLIC	??$?0PEAV?$tuple@P6AXXZ@std@@@?$_Unique_ptr_base@V?$tuple@P6AXXZ@std@@U?$default_delete@V?$tuple@P6AXXZ@std@@@2@@std@@QEAA@PEAV?$tuple@P6AXXZ@1@@Z ; std::_Unique_ptr_base<std::tuple<void (__cdecl*)(void)>,std::default_delete<std::tuple<void (__cdecl*)(void)> > >::_Unique_ptr_base<std::tuple<void (__cdecl*)(void)>,std::default_delete<std::tuple<void (__cdecl*)(void)> > ><std::tuple<void (__cdecl*)(void)> *>
PUBLIC	??$?0U_Exact_args_t@std@@AEBQ6AXXZ$$V$0A@@?$tuple@P6AXXZ@std@@QEAA@U_Exact_args_t@1@AEBQ6AXXZ@Z ; std::tuple<void (__cdecl*)(void)>::tuple<void (__cdecl*)(void)><std::_Exact_args_t,void (__cdecl*const &)(void),0>
PUBLIC	??$?0PEAV?$tuple@P6AXXZ@std@@U?$default_delete@V?$tuple@P6AXXZ@std@@@1@@?$_Unique_ptr_base@V?$tuple@P6AXXZ@std@@U?$default_delete@V?$tuple@P6AXXZ@std@@@2@@std@@QEAA@PEAV?$tuple@P6AXXZ@1@$$QEAU?$default_delete@V?$tuple@P6AXXZ@std@@@1@@Z ; std::_Unique_ptr_base<std::tuple<void (__cdecl*)(void)>,std::default_delete<std::tuple<void (__cdecl*)(void)> > >::_Unique_ptr_base<std::tuple<void (__cdecl*)(void)>,std::default_delete<std::tuple<void (__cdecl*)(void)> > ><std::tuple<void (__cdecl*)(void)> *,std::default_delete<std::tuple<void (__cdecl*)(void)> > >
PUBLIC	??$forward@U?$default_delete@V?$tuple@P6AXXZ@std@@@std@@@std@@YA$$QEAU?$default_delete@V?$tuple@P6AXXZ@std@@@0@AEAU10@@Z ; std::forward<std::default_delete<std::tuple<void (__cdecl*)(void)> > >
PUBLIC	??$_Execute@$0A@@?$_LaunchPad@V?$unique_ptr@V?$tuple@P6AXXZ@std@@U?$default_delete@V?$tuple@P6AXXZ@std@@@2@@std@@@std@@CAXAEAV?$tuple@P6AXXZ@1@U?$integer_sequence@_K$0A@@1@@Z ; std::_LaunchPad<std::unique_ptr<std::tuple<void (__cdecl*)(void)>,std::default_delete<std::tuple<void (__cdecl*)(void)> > > >::_Execute<0>
PUBLIC	??$_Seek_wrapped@V?$array@H$03@std@@@std@@YAXAEAPEAV?$array@H$03@0@QEAV10@@Z ; std::_Seek_wrapped<std::array<int,4> >
PUBLIC	??$_Uninitialized_move_al_unchecked@V?$array@H$03@std@@V12@V?$allocator@V?$array@H$03@std@@@2@@std@@YAPEAV?$array@H$03@0@QEAV10@00AEAV?$allocator@V?$array@H$03@std@@@0@U_Really_trivial_ptr_iterator_tag@0@U?$integral_constant@_N$00@0@@Z ; std::_Uninitialized_move_al_unchecked<std::array<int,4>,std::array<int,4>,std::allocator<std::array<int,4> > >
PUBLIC	??$_Ptr_move_cat@V?$array@H$03@std@@V12@@std@@YA?AU_Really_trivial_ptr_iterator_tag@0@AEBQEAV?$array@H$03@0@0@Z ; std::_Ptr_move_cat<std::array<int,4>,std::array<int,4> >
PUBLIC	??$_Get_unwrapped_n@V?$array@H$03@std@@_J$0A@@std@@YAPEAV?$array@H$03@0@QEAV10@_J@Z ; std::_Get_unwrapped_n<std::array<int,4>,__int64,0>
PUBLIC	??$_Idl_distance1@PEAV?$array@H$03@std@@PEAV12@@std@@YA_JAEBQEAV?$array@H$03@0@0Urandom_access_iterator_tag@0@@Z ; std::_Idl_distance1<std::array<int,4> *,std::array<int,4> *>
PUBLIC	??$_Get_unwrapped@V?$array@H$03@std@@@std@@YAPEAV?$array@H$03@0@QEAV10@@Z ; std::_Get_unwrapped<std::array<int,4> >
PUBLIC	??$?0_JU?$ratio@$00$00@std@@X@?$duration@_JU?$ratio@$00$0DLJKMKAA@@std@@@chrono@std@@QEAA@AEBV?$duration@_JU?$ratio@$00$00@std@@@12@@Z ; std::chrono::duration<__int64,std::ratio<1,1000000000> >::duration<__int64,std::ratio<1,1000000000> ><__int64,std::ratio<1,1>,void>
PUBLIC	??$?0_JX@?$duration@_JU?$ratio@$00$00@std@@@chrono@std@@QEAA@AEB_J@Z ; std::chrono::duration<__int64,std::ratio<1,1> >::duration<__int64,std::ratio<1,1> ><__int64,void>
PUBLIC	??$duration_cast@V?$duration@_JU?$ratio@$00$00@std@@@chrono@std@@_JU?$ratio@$00$0DLJKMKAA@@3@X@chrono@std@@YA?AV?$duration@_JU?$ratio@$00$00@std@@@01@AEBV?$duration@_JU?$ratio@$00$0DLJKMKAA@@std@@@01@@Z ; std::chrono::duration_cast<std::chrono::duration<__int64,std::ratio<1,1> >,__int64,std::ratio<1,1000000000>,void>
PUBLIC	??$duration_cast@V?$duration@_JU?$ratio@$00$0DLJKMKAA@@std@@@chrono@std@@_JU?$ratio@$00$00@3@X@chrono@std@@YA?AV?$duration@_JU?$ratio@$00$0DLJKMKAA@@std@@@01@AEBV?$duration@_JU?$ratio@$00$00@std@@@01@@Z ; std::chrono::duration_cast<std::chrono::duration<__int64,std::ratio<1,1000000000> >,__int64,std::ratio<1,1>,void>
PUBLIC	??$?0_JU?$ratio@$00$0JIJGIA@@std@@X@?$duration@_JU?$ratio@$00$0DLJKMKAA@@std@@@chrono@std@@QEAA@AEBV?$duration@_JU?$ratio@$00$0JIJGIA@@std@@@12@@Z ; std::chrono::duration<__int64,std::ratio<1,1000000000> >::duration<__int64,std::ratio<1,1000000000> ><__int64,std::ratio<1,10000000>,void>
PUBLIC	??$?N_JU?$ratio@$00$00@std@@_JU01@@chrono@std@@YA_NAEBV?$duration@_JU?$ratio@$00$00@std@@@01@0@Z ; std::chrono::operator<=<__int64,std::ratio<1,1>,__int64,std::ratio<1,1> >
PUBLIC	??$?0V?$unique_ptr@V?$tuple@P6AXXZ@std@@U?$default_delete@V?$tuple@P6AXXZ@std@@@2@@std@@@?$_LaunchPad@V?$unique_ptr@V?$tuple@P6AXXZ@std@@U?$default_delete@V?$tuple@P6AXXZ@std@@@2@@std@@@std@@QEAA@$$QEAV?$unique_ptr@V?$tuple@P6AXXZ@std@@U?$default_delete@V?$tuple@P6AXXZ@std@@@2@@1@@Z ; std::_LaunchPad<std::unique_ptr<std::tuple<void (__cdecl*)(void)>,std::default_delete<std::tuple<void (__cdecl*)(void)> > > >::_LaunchPad<std::unique_ptr<std::tuple<void (__cdecl*)(void)>,std::default_delete<std::tuple<void (__cdecl*)(void)> > > ><std::unique_ptr<std::tuple<void (__cdecl*)(void)>,std::default_delete<std::tuple<void (__cdecl*)(void)> > > >
PUBLIC	??$forward@V?$unique_ptr@V?$tuple@P6AXXZ@std@@U?$default_delete@V?$tuple@P6AXXZ@std@@@2@@std@@@std@@YA$$QEAV?$unique_ptr@V?$tuple@P6AXXZ@std@@U?$default_delete@V?$tuple@P6AXXZ@std@@@2@@0@AEAV10@@Z ; std::forward<std::unique_ptr<std::tuple<void (__cdecl*)(void)>,std::default_delete<std::tuple<void (__cdecl*)(void)> > > >
PUBLIC	??$?0U?$default_delete@V?$tuple@P6AXXZ@std@@@std@@$0A@@?$unique_ptr@V?$tuple@P6AXXZ@std@@U?$default_delete@V?$tuple@P6AXXZ@std@@@2@@std@@QEAA@PEAV?$tuple@P6AXXZ@1@@Z ; std::unique_ptr<std::tuple<void (__cdecl*)(void)>,std::default_delete<std::tuple<void (__cdecl*)(void)> > >::unique_ptr<std::tuple<void (__cdecl*)(void)>,std::default_delete<std::tuple<void (__cdecl*)(void)> > ><std::default_delete<std::tuple<void (__cdecl*)(void)> >,0>
PUBLIC	??$?0P6AXXZ$0A@@?$tuple@P6AXXZ@std@@QEAA@AEBQ6AXXZ@Z ; std::tuple<void (__cdecl*)(void)>::tuple<void (__cdecl*)(void)><void (__cdecl*)(void),0>
PUBLIC	?_Get_second@?$_Compressed_pair@U?$default_delete@V?$tuple@P6AXXZ@std@@@std@@PEAV?$tuple@P6AXXZ@2@$00@std@@QEAAAEAPEAV?$tuple@P6AXXZ@2@XZ ; std::_Compressed_pair<std::default_delete<std::tuple<void (__cdecl*)(void)> >,std::tuple<void (__cdecl*)(void)> *,1>::_Get_second
PUBLIC	?_Myptr@?$_Unique_ptr_base@V?$tuple@P6AXXZ@std@@U?$default_delete@V?$tuple@P6AXXZ@std@@@2@@std@@QEAAAEAPEAV?$tuple@P6AXXZ@2@XZ ; std::_Unique_ptr_base<std::tuple<void (__cdecl*)(void)>,std::default_delete<std::tuple<void (__cdecl*)(void)> > >::_Myptr
PUBLIC	?release@?$unique_ptr@V?$tuple@P6AXXZ@std@@U?$default_delete@V?$tuple@P6AXXZ@std@@@2@@std@@QEAAPEAV?$tuple@P6AXXZ@2@XZ ; std::unique_ptr<std::tuple<void (__cdecl*)(void)>,std::default_delete<std::tuple<void (__cdecl*)(void)> > >::release
PUBLIC	??0?$unique_ptr@V?$tuple@P6AXXZ@std@@U?$default_delete@V?$tuple@P6AXXZ@std@@@2@@std@@QEAA@$$QEAV01@@Z ; std::unique_ptr<std::tuple<void (__cdecl*)(void)>,std::default_delete<std::tuple<void (__cdecl*)(void)> > >::unique_ptr<std::tuple<void (__cdecl*)(void)>,std::default_delete<std::tuple<void (__cdecl*)(void)> > >
PUBLIC	??D?$unique_ptr@V?$tuple@P6AXXZ@std@@U?$default_delete@V?$tuple@P6AXXZ@std@@@2@@std@@QEBAAEAV?$tuple@P6AXXZ@1@XZ ; std::unique_ptr<std::tuple<void (__cdecl*)(void)>,std::default_delete<std::tuple<void (__cdecl*)(void)> > >::operator*
PUBLIC	?__autoclassinit2@?$unique_ptr@V?$tuple@P6AXXZ@std@@U?$default_delete@V?$tuple@P6AXXZ@std@@@2@@std@@QEAAX_K@Z ; std::unique_ptr<std::tuple<void (__cdecl*)(void)>,std::default_delete<std::tuple<void (__cdecl*)(void)> > >::__autoclassinit2
PUBLIC	?_Run@?$_LaunchPad@V?$unique_ptr@V?$tuple@P6AXXZ@std@@U?$default_delete@V?$tuple@P6AXXZ@std@@@2@@std@@@std@@CAXPEAV12@@Z ; std::_LaunchPad<std::unique_ptr<std::tuple<void (__cdecl*)(void)>,std::default_delete<std::tuple<void (__cdecl*)(void)> > > >::_Run
PUBLIC	?zero@?$duration_values@_J@chrono@std@@SA_JXZ	; std::chrono::duration_values<__int64>::zero
PUBLIC	?count@?$duration@_JU?$ratio@$00$0DLJKMKAA@@std@@@chrono@std@@QEBA_JXZ ; std::chrono::duration<__int64,std::ratio<1,1000000000> >::count
PUBLIC	??Y?$duration@_JU?$ratio@$00$0DLJKMKAA@@std@@@chrono@std@@QEAAAEAV012@AEBV012@@Z ; std::chrono::duration<__int64,std::ratio<1,1000000000> >::operator+=
PUBLIC	??Z?$duration@_JU?$ratio@$00$0DLJKMKAA@@std@@@chrono@std@@QEAAAEAV012@AEBV012@@Z ; std::chrono::duration<__int64,std::ratio<1,1000000000> >::operator-=
PUBLIC	?count@?$duration@_JU?$ratio@$00$00@std@@@chrono@std@@QEBA_JXZ ; std::chrono::duration<__int64,std::ratio<1,1> >::count
PUBLIC	?zero@?$duration@_JU?$ratio@$00$00@std@@@chrono@std@@SA?AV123@XZ ; std::chrono::duration<__int64,std::ratio<1,1> >::zero
PUBLIC	?_Go@?$_LaunchPad@V?$unique_ptr@V?$tuple@P6AXXZ@std@@U?$default_delete@V?$tuple@P6AXXZ@std@@@2@@std@@@std@@UEAAXXZ ; std::_LaunchPad<std::unique_ptr<std::tuple<void (__cdecl*)(void)>,std::default_delete<std::tuple<void (__cdecl*)(void)> > > >::_Go
PUBLIC	?__autoclassinit2@?$_LaunchPad@V?$unique_ptr@V?$tuple@P6AXXZ@std@@U?$default_delete@V?$tuple@P6AXXZ@std@@@2@@std@@@std@@QEAAX_K@Z ; std::_LaunchPad<std::unique_ptr<std::tuple<void (__cdecl*)(void)>,std::default_delete<std::tuple<void (__cdecl*)(void)> > > >::__autoclassinit2
PUBLIC	??1?$_LaunchPad@V?$unique_ptr@V?$tuple@P6AXXZ@std@@U?$default_delete@V?$tuple@P6AXXZ@std@@@2@@std@@@std@@QEAA@XZ ; std::_LaunchPad<std::unique_ptr<std::tuple<void (__cdecl*)(void)>,std::default_delete<std::tuple<void (__cdecl*)(void)> > > >::~_LaunchPad<std::unique_ptr<std::tuple<void (__cdecl*)(void)>,std::default_delete<std::tuple<void (__cdecl*)(void)> > > >
PUBLIC	??$_Get_size_of_n@$0BA@@std@@YA_K_K@Z		; std::_Get_size_of_n<16>
PUBLIC	??$_Idl_distance@PEAV?$array@H$03@std@@PEAV12@@std@@YA_JAEBQEAV?$array@H$03@0@0@Z ; std::_Idl_distance<std::array<int,4> *,std::array<int,4> *>
PUBLIC	??$_Uninitialized_move@PEAV?$array@H$03@std@@PEAV12@V?$allocator@V?$array@H$03@std@@@2@@std@@YAPEAV?$array@H$03@0@QEAV10@0PEAV10@AEAV?$allocator@V?$array@H$03@std@@@0@@Z ; std::_Uninitialized_move<std::array<int,4> *,std::array<int,4> *,std::allocator<std::array<int,4> > >
PUBLIC	??$_Destroy_range1@V?$allocator@V?$array@H$03@std@@@std@@@std@@YAXPEAV?$array@H$03@0@0AEAV?$allocator@V?$array@H$03@std@@@0@U?$integral_constant@_N$00@0@@Z ; std::_Destroy_range1<std::allocator<std::array<int,4> > >
PUBLIC	??$_Allocate_manually_vector_aligned@U_Default_allocate_traits@std@@@std@@YAPEAX_K@Z ; std::_Allocate_manually_vector_aligned<std::_Default_allocate_traits>
PUBLIC	??$forward@AEBQEAD@std@@YAAEBQEADAEBQEAD@Z	; std::forward<char * const &>
PUBLIC	??$_To_xtime@_JU?$ratio@$00$00@std@@@std@@YA?AUxtime@@AEBV?$duration@_JU?$ratio@$00$00@std@@@chrono@0@@Z ; std::_To_xtime<__int64,std::ratio<1,1> >
PUBLIC	??$_Launch@V?$unique_ptr@V?$tuple@P6AXXZ@std@@U?$default_delete@V?$tuple@P6AXXZ@std@@@2@@std@@@std@@YAXPEAU_Thrd_imp_t@@$$QEAV?$unique_ptr@V?$tuple@P6AXXZ@std@@U?$default_delete@V?$tuple@P6AXXZ@std@@@2@@0@@Z ; std::_Launch<std::unique_ptr<std::tuple<void (__cdecl*)(void)>,std::default_delete<std::tuple<void (__cdecl*)(void)> > > >
PUBLIC	??$make_unique@V?$tuple@P6AXXZ@std@@A6AXXZ$0A@@std@@YA?AV?$unique_ptr@V?$tuple@P6AXXZ@std@@U?$default_delete@V?$tuple@P6AXXZ@std@@@2@@0@A6AXXZ@Z ; std::make_unique<std::tuple<void (__cdecl*)(void)>,void (__cdecl&)(void),0>
PUBLIC	??$forward@A6AXXZ@std@@YAA6AXXZA6AXXZ@Z		; std::forward<void (__cdecl&)(void)>
PUBLIC	?_Get_second@?$_Compressed_pair@U?$default_delete@V?$tuple@P6AXXZ@std@@@std@@PEAV?$tuple@P6AXXZ@2@$00@std@@QEBAAEBQEAV?$tuple@P6AXXZ@2@XZ ; std::_Compressed_pair<std::default_delete<std::tuple<void (__cdecl*)(void)> >,std::tuple<void (__cdecl*)(void)> *,1>::_Get_second
PUBLIC	?_Get_first@?$_Compressed_pair@V?$allocator@V?$array@H$03@std@@@std@@V?$_Vector_val@U?$_Simple_types@V?$array@H$03@std@@@std@@@2@$00@std@@QEBAAEBV?$allocator@V?$array@H$03@std@@@2@XZ ; std::_Compressed_pair<std::allocator<std::array<int,4> >,std::_Vector_val<std::_Simple_types<std::array<int,4> > >,1>::_Get_first
PUBLIC	?_Myptr@?$_Unique_ptr_base@V?$tuple@P6AXXZ@std@@U?$default_delete@V?$tuple@P6AXXZ@std@@@2@@std@@QEBAAEBQEAV?$tuple@P6AXXZ@2@XZ ; std::_Unique_ptr_base<std::tuple<void (__cdecl*)(void)>,std::default_delete<std::tuple<void (__cdecl*)(void)> > >::_Myptr
PUBLIC	?_Get_first@?$_Compressed_pair@U?$default_delete@V?$tuple@P6AXXZ@std@@@std@@PEAV?$tuple@P6AXXZ@2@$00@std@@QEAAAEAU?$default_delete@V?$tuple@P6AXXZ@std@@@2@XZ ; std::_Compressed_pair<std::default_delete<std::tuple<void (__cdecl*)(void)> >,std::tuple<void (__cdecl*)(void)> *,1>::_Get_first
PUBLIC	??0_Bxty@?$_String_val@U?$_Simple_types@D@std@@@std@@QEAA@XZ ; std::_String_val<std::_Simple_types<char> >::_Bxty::_Bxty
PUBLIC	?_Umove_if_noexcept1@?$vector@V?$array@H$03@std@@V?$allocator@V?$array@H$03@std@@@2@@std@@AEAAXPEAV?$array@H$03@2@00U?$integral_constant@_N$00@2@@Z ; std::vector<std::array<int,4>,std::allocator<std::array<int,4> > >::_Umove_if_noexcept1
PUBLIC	?_Getal@?$_Vector_alloc@U?$_Vec_base_types@V?$array@H$03@std@@V?$allocator@V?$array@H$03@std@@@2@@std@@@std@@QEBAAEBV?$allocator@V?$array@H$03@std@@@2@XZ ; std::_Vector_alloc<std::_Vec_base_types<std::array<int,4>,std::allocator<std::array<int,4> > > >::_Getal
PUBLIC	?max_size@?$_Default_allocator_traits@V?$allocator@V?$array@H$03@std@@@std@@@std@@SA_KAEBV?$allocator@V?$array@H$03@std@@@2@@Z ; std::_Default_allocator_traits<std::allocator<std::array<int,4> > >::max_size
PUBLIC	??R?$default_delete@V?$tuple@P6AXXZ@std@@@std@@QEBAXPEAV?$tuple@P6AXXZ@1@@Z ; std::default_delete<std::tuple<void (__cdecl*)(void)> >::operator()
PUBLIC	?get@?$unique_ptr@V?$tuple@P6AXXZ@std@@U?$default_delete@V?$tuple@P6AXXZ@std@@@2@@std@@QEBAPEAV?$tuple@P6AXXZ@2@XZ ; std::unique_ptr<std::tuple<void (__cdecl*)(void)>,std::default_delete<std::tuple<void (__cdecl*)(void)> > >::get
PUBLIC	?get_deleter@?$_Unique_ptr_base@V?$tuple@P6AXXZ@std@@U?$default_delete@V?$tuple@P6AXXZ@std@@@2@@std@@QEAAAEAU?$default_delete@V?$tuple@P6AXXZ@std@@@2@XZ ; std::_Unique_ptr_base<std::tuple<void (__cdecl*)(void)>,std::default_delete<std::tuple<void (__cdecl*)(void)> > >::get_deleter
PUBLIC	??0?$allocator@D@std@@QEAA@XZ			; std::allocator<char>::allocator<char>
PUBLIC	?_Calculate_growth@?$basic_string@DU?$char_traits@D@std@@V?$allocator@D@2@@std@@QEBA_K_K@Z ; std::basic_string<char,std::char_traits<char>,std::allocator<char> >::_Calculate_growth
PUBLIC	?_Xlen@?$basic_string@DU?$char_traits@D@std@@V?$allocator@D@2@@std@@SAXXZ ; std::basic_string<char,std::char_traits<char>,std::allocator<char> >::_Xlen
PUBLIC	??0?$_String_val@U?$_Simple_types@D@std@@@std@@QEAA@XZ ; std::_String_val<std::_Simple_types<char> >::_String_val<std::_Simple_types<char> >
PUBLIC	??0?$allocator@V?$array@H$03@std@@@std@@QEAA@XZ	; std::allocator<std::array<int,4> >::allocator<std::array<int,4> >
PUBLIC	?allocate@?$allocator@V?$array@H$03@std@@@std@@QEAAPEAV?$array@H$03@2@_K@Z ; std::allocator<std::array<int,4> >::allocate
PUBLIC	?size@?$vector@V?$array@H$03@std@@V?$allocator@V?$array@H$03@std@@@2@@std@@QEBA_KXZ ; std::vector<std::array<int,4>,std::allocator<std::array<int,4> > >::size
PUBLIC	?max_size@?$vector@V?$array@H$03@std@@V?$allocator@V?$array@H$03@std@@@2@@std@@QEBA_KXZ ; std::vector<std::array<int,4>,std::allocator<std::array<int,4> > >::max_size
PUBLIC	?_Umove@?$vector@V?$array@H$03@std@@V?$allocator@V?$array@H$03@std@@@2@@std@@AEAAPEAV?$array@H$03@2@PEAV32@00@Z ; std::vector<std::array<int,4>,std::allocator<std::array<int,4> > >::_Umove
PUBLIC	?_Umove_if_noexcept@?$vector@V?$array@H$03@std@@V?$allocator@V?$array@H$03@std@@@2@@std@@AEAAXPEAV?$array@H$03@2@00@Z ; std::vector<std::array<int,4>,std::allocator<std::array<int,4> > >::_Umove_if_noexcept
PUBLIC	?_Calculate_growth@?$vector@V?$array@H$03@std@@V?$allocator@V?$array@H$03@std@@@2@@std@@AEBA_K_K@Z ; std::vector<std::array<int,4>,std::allocator<std::array<int,4> > >::_Calculate_growth
PUBLIC	?_Change_array@?$vector@V?$array@H$03@std@@V?$allocator@V?$array@H$03@std@@@2@@std@@AEAAXQEAV?$array@H$03@2@_K1@Z ; std::vector<std::array<int,4>,std::allocator<std::array<int,4> > >::_Change_array
PUBLIC	?_Xlength@?$vector@V?$array@H$03@std@@V?$allocator@V?$array@H$03@std@@@2@@std@@CAXXZ ; std::vector<std::array<int,4>,std::allocator<std::array<int,4> > >::_Xlength
PUBLIC	??0?$_Vector_val@U?$_Simple_types@V?$array@H$03@std@@@std@@@std@@QEAA@XZ ; std::_Vector_val<std::_Simple_types<std::array<int,4> > >::_Vector_val<std::_Simple_types<std::array<int,4> > >
PUBLIC	??1?$unique_ptr@V?$tuple@P6AXXZ@std@@U?$default_delete@V?$tuple@P6AXXZ@std@@@2@@std@@QEAA@XZ ; std::unique_ptr<std::tuple<void (__cdecl*)(void)>,std::default_delete<std::tuple<void (__cdecl*)(void)> > >::~unique_ptr<std::tuple<void (__cdecl*)(void)>,std::default_delete<std::tuple<void (__cdecl*)(void)> > >
PUBLIC	??$_Destroy_range@V?$allocator@V?$array@H$03@std@@@std@@@std@@YAXPEAV?$array@H$03@0@0AEAV?$allocator@V?$array@H$03@std@@@0@@Z ; std::_Destroy_range<std::allocator<std::array<int,4> > >
PUBLIC	??$_Deallocate@$0BA@$0A@@std@@YAXPEAX_K@Z	; std::_Deallocate<16,0>
PUBLIC	??$_Allocate@$0BA@U_Default_allocate_traits@std@@$0A@@std@@YAPEAX_K@Z ; std::_Allocate<16,std::_Default_allocate_traits,0>
PUBLIC	??$construct@PEADAEBQEAD@?$_Default_allocator_traits@V?$allocator@D@std@@@std@@SAXAEAV?$allocator@D@1@QEAPEADAEBQEAD@Z ; std::_Default_allocator_traits<std::allocator<char> >::construct<char *,char * const &>
PUBLIC	??$destroy@PEAD@?$_Default_allocator_traits@V?$allocator@D@std@@@std@@SAXAEAV?$allocator@D@1@QEAPEAD@Z ; std::_Default_allocator_traits<std::allocator<char> >::destroy<char *>
PUBLIC	??$addressof@PEAD@std@@YAPEAPEADAEAPEAD@Z	; std::addressof<char *>
PUBLIC	??$?0$$V@?$_Compressed_pair@V?$allocator@D@std@@V?$_String_val@U?$_Simple_types@D@std@@@2@$00@std@@QEAA@U_Zero_then_variadic_args_t@1@@Z ; std::_Compressed_pair<std::allocator<char>,std::_String_val<std::_Simple_types<char> >,1>::_Compressed_pair<std::allocator<char>,std::_String_val<std::_Simple_types<char> >,1><>
PUBLIC	??$?0$$V@?$_Compressed_pair@V?$allocator@V?$array@H$03@std@@@std@@V?$_Vector_val@U?$_Simple_types@V?$array@H$03@std@@@std@@@2@$00@std@@QEAA@U_Zero_then_variadic_args_t@1@@Z ; std::_Compressed_pair<std::allocator<std::array<int,4> >,std::_Vector_val<std::_Simple_types<std::array<int,4> > >,1>::_Compressed_pair<std::allocator<std::array<int,4> >,std::_Vector_val<std::_Simple_types<std::array<int,4> > >,1><>
PUBLIC	??$_Unfancy@D@std@@YAPEADPEAD@Z			; std::_Unfancy<char>
PUBLIC	??$_Emplace_reallocate@AEBV?$array@H$03@std@@@?$vector@V?$array@H$03@std@@V?$allocator@V?$array@H$03@std@@@2@@std@@QEAAPEAV?$array@H$03@1@QEAV21@AEBV21@@Z ; std::vector<std::array<int,4>,std::allocator<std::array<int,4> > >::_Emplace_reallocate<std::array<int,4> const &>
PUBLIC	??$construct@V?$array@H$03@std@@AEBV12@@?$_Default_allocator_traits@V?$allocator@V?$array@H$03@std@@@std@@@std@@SAXAEAV?$allocator@V?$array@H$03@std@@@1@QEAV?$array@H$03@1@AEBV31@@Z ; std::_Default_allocator_traits<std::allocator<std::array<int,4> > >::construct<std::array<int,4>,std::array<int,4> const &>
PUBLIC	??$_Unfancy@V?$array@H$03@std@@@std@@YAPEAV?$array@H$03@0@PEAV10@@Z ; std::_Unfancy<std::array<int,4> >
PUBLIC	??$forward@AEBV?$array@H$03@std@@@std@@YAAEBV?$array@H$03@0@AEBV10@@Z ; std::forward<std::array<int,4> const &>
PUBLIC	??$sleep_for@_JU?$ratio@$00$00@std@@@this_thread@std@@YAXAEBV?$duration@_JU?$ratio@$00$00@std@@@chrono@1@@Z ; std::this_thread::sleep_for<__int64,std::ratio<1,1> >
PUBLIC	??$?0HX@?$duration@_JU?$ratio@$00$00@std@@@chrono@std@@QEAA@AEBH@Z ; std::chrono::duration<__int64,std::ratio<1,1> >::duration<__int64,std::ratio<1,1> ><int,void>
PUBLIC	??$?0A6AXXZ$$VX@thread@std@@QEAA@A6AXXZ@Z	; std::thread::thread<void (__cdecl&)(void),void>
PUBLIC	??$?0_JX@?$duration@_JU?$ratio@$00$0DLJKMKAA@@std@@@chrono@std@@QEAA@AEB_J@Z ; std::chrono::duration<__int64,std::ratio<1,1000000000> >::duration<__int64,std::ratio<1,1000000000> ><__int64,void>
PUBLIC	??$?0_JX@?$duration@_JU?$ratio@$00$0JIJGIA@@std@@@chrono@std@@QEAA@AEB_J@Z ; std::chrono::duration<__int64,std::ratio<1,10000000> >::duration<__int64,std::ratio<1,10000000> ><__int64,void>
PUBLIC	??$_Min_value@_K@std@@YAAEB_KAEB_K0@Z		; std::_Min_value<unsigned __int64>
PUBLIC	?_Get_second@?$_Compressed_pair@V?$allocator@V?$array@H$03@std@@@std@@V?$_Vector_val@U?$_Simple_types@V?$array@H$03@std@@@std@@@2@$00@std@@QEBAAEBV?$_Vector_val@U?$_Simple_types@V?$array@H$03@std@@@std@@@2@XZ ; std::_Compressed_pair<std::allocator<std::array<int,4> >,std::_Vector_val<std::_Simple_types<std::array<int,4> > >,1>::_Get_second
PUBLIC	?GetAllocLength@?$CSimpleStringT@_W$0A@@ATL@@QEBAHXZ ; ATL::CSimpleStringT<wchar_t,0>::GetAllocLength
PUBLIC	?CopyCharsOverlapped@?$CSimpleStringT@_W$0A@@ATL@@SAXPEA_W_KPEB_WH@Z ; ATL::CSimpleStringT<wchar_t,0>::CopyCharsOverlapped
PUBLIC	?_Get_data@?$_Vector_alloc@U?$_Vec_base_types@V?$array@H$03@std@@V?$allocator@V?$array@H$03@std@@@2@@std@@@std@@QEBAAEBV?$_Vector_val@U?$_Simple_types@V?$array@H$03@std@@@std@@@2@XZ ; std::_Vector_alloc<std::_Vec_base_types<std::array<int,4>,std::allocator<std::array<int,4> > > >::_Get_data
PUBLIC	?_Myfirst@?$_Vector_alloc@U?$_Vec_base_types@V?$array@H$03@std@@V?$allocator@V?$array@H$03@std@@@2@@std@@@std@@QEBAAEBQEAV?$array@H$03@2@XZ ; std::_Vector_alloc<std::_Vec_base_types<std::array<int,4>,std::allocator<std::array<int,4> > > >::_Myfirst
PUBLIC	?_Get_second@?$_Compressed_pair@V?$allocator@V?$array@H$03@std@@@std@@V?$_Vector_val@U?$_Simple_types@V?$array@H$03@std@@@std@@@2@$00@std@@QEAAAEAV?$_Vector_val@U?$_Simple_types@V?$array@H$03@std@@@std@@@2@XZ ; std::_Compressed_pair<std::allocator<std::array<int,4> >,std::_Vector_val<std::_Simple_types<std::array<int,4> > >,1>::_Get_second
PUBLIC	?max_size@?$_Default_allocator_traits@V?$allocator@D@std@@@std@@SA_KAEBV?$allocator@D@2@@Z ; std::_Default_allocator_traits<std::allocator<char> >::max_size
PUBLIC	?_Get_first@?$_Compressed_pair@V?$allocator@D@std@@V?$_String_val@U?$_Simple_types@D@std@@@2@$00@std@@QEAAAEAV?$allocator@D@2@XZ ; std::_Compressed_pair<std::allocator<char>,std::_String_val<std::_Simple_types<char> >,1>::_Get_first
PUBLIC	?_Get_first@?$_Compressed_pair@V?$allocator@D@std@@V?$_String_val@U?$_Simple_types@D@std@@@2@$00@std@@QEBAAEBV?$allocator@D@2@XZ ; std::_Compressed_pair<std::allocator<char>,std::_String_val<std::_Simple_types<char> >,1>::_Get_first
PUBLIC	?_Get_second@?$_Compressed_pair@V?$allocator@D@std@@V?$_String_val@U?$_Simple_types@D@std@@@2@$00@std@@QEAAAEAV?$_String_val@U?$_Simple_types@D@std@@@2@XZ ; std::_Compressed_pair<std::allocator<char>,std::_String_val<std::_Simple_types<char> >,1>::_Get_second
PUBLIC	?_Get_second@?$_Compressed_pair@V?$allocator@D@std@@V?$_String_val@U?$_Simple_types@D@std@@@2@$00@std@@QEBAAEBV?$_String_val@U?$_Simple_types@D@std@@@2@XZ ; std::_Compressed_pair<std::allocator<char>,std::_String_val<std::_Simple_types<char> >,1>::_Get_second
PUBLIC	??0?$CSimpleStringT@_W$0A@@ATL@@QEAA@AEBV01@@Z	; ATL::CSimpleStringT<wchar_t,0>::CSimpleStringT<wchar_t,0>
PUBLIC	?GetManager@?$CSimpleStringT@_W$0A@@ATL@@QEBAPEAUIAtlStringMgr@2@XZ ; ATL::CSimpleStringT<wchar_t,0>::GetManager
PUBLIC	?GetString@?$CSimpleStringT@_W$0A@@ATL@@QEBAPEB_WXZ ; ATL::CSimpleStringT<wchar_t,0>::GetString
PUBLIC	?SetString@?$CSimpleStringT@_W$0A@@ATL@@QEAAXPEB_WH@Z ; ATL::CSimpleStringT<wchar_t,0>::SetString
PUBLIC	?CloneData@?$CSimpleStringT@_W$0A@@ATL@@CAPEAUCStringData@2@PEAU32@@Z ; ATL::CSimpleStringT<wchar_t,0>::CloneData
PUBLIC	?deallocate@?$allocator@V?$array@H$03@std@@@std@@QEAAXQEAV?$array@H$03@2@_K@Z ; std::allocator<std::array<int,4> >::deallocate
PUBLIC	?capacity@?$vector@V?$array@H$03@std@@V?$allocator@V?$array@H$03@std@@@2@@std@@QEBA_KXZ ; std::vector<std::array<int,4>,std::allocator<std::array<int,4> > >::capacity
PUBLIC	?_Destroy@?$vector@V?$array@H$03@std@@V?$allocator@V?$array@H$03@std@@@2@@std@@AEAAXPEAV?$array@H$03@2@0@Z ; std::vector<std::array<int,4>,std::allocator<std::array<int,4> > >::_Destroy
PUBLIC	?_Orphan_all@?$_Vector_alloc@U?$_Vec_base_types@V?$array@H$03@std@@V?$allocator@V?$array@H$03@std@@@2@@std@@@std@@QEAAXXZ ; std::_Vector_alloc<std::_Vec_base_types<std::array<int,4>,std::allocator<std::array<int,4> > > >::_Orphan_all
PUBLIC	?_Get_data@?$_Vector_alloc@U?$_Vec_base_types@V?$array@H$03@std@@V?$allocator@V?$array@H$03@std@@@2@@std@@@std@@QEAAAEAV?$_Vector_val@U?$_Simple_types@V?$array@H$03@std@@@std@@@2@XZ ; std::_Vector_alloc<std::_Vec_base_types<std::array<int,4>,std::allocator<std::array<int,4> > > >::_Get_data
PUBLIC	?_Mylast@?$_Vector_alloc@U?$_Vec_base_types@V?$array@H$03@std@@V?$allocator@V?$array@H$03@std@@@2@@std@@@std@@QEBAAEBQEAV?$array@H$03@2@XZ ; std::_Vector_alloc<std::_Vec_base_types<std::array<int,4>,std::allocator<std::array<int,4> > > >::_Mylast
PUBLIC	?_Myend@?$_Vector_alloc@U?$_Vec_base_types@V?$array@H$03@std@@V?$allocator@V?$array@H$03@std@@@2@@std@@@std@@QEAAAEAPEAV?$array@H$03@2@XZ ; std::_Vector_alloc<std::_Vec_base_types<std::array<int,4>,std::allocator<std::array<int,4> > > >::_Myend
PUBLIC	?_Myend@?$_Vector_alloc@U?$_Vec_base_types@V?$array@H$03@std@@V?$allocator@V?$array@H$03@std@@@2@@std@@@std@@QEBAAEBQEAV?$array@H$03@2@XZ ; std::_Vector_alloc<std::_Vec_base_types<std::array<int,4>,std::allocator<std::array<int,4> > > >::_Myend
PUBLIC	?_Get_first@?$_Compressed_pair@V?$allocator@V?$array@H$03@std@@@std@@V?$_Vector_val@U?$_Simple_types@V?$array@H$03@std@@@std@@@2@$00@std@@QEAAAEAV?$allocator@V?$array@H$03@std@@@2@XZ ; std::_Compressed_pair<std::allocator<std::array<int,4> >,std::_Vector_val<std::_Simple_types<std::array<int,4> > >,1>::_Get_first
PUBLIC	?deallocate@?$allocator@D@std@@QEAAXQEAD_K@Z	; std::allocator<char>::deallocate
PUBLIC	?allocate@?$allocator@D@std@@QEAAPEAD_K@Z	; std::allocator<char>::allocate
PUBLIC	?assign@?$basic_string@DU?$char_traits@D@std@@V?$allocator@D@2@@std@@QEAAAEAV12@QEBD_K@Z ; std::basic_string<char,std::char_traits<char>,std::allocator<char> >::assign
PUBLIC	?assign@?$basic_string@DU?$char_traits@D@std@@V?$allocator@D@2@@std@@QEAAAEAV12@QEBD@Z ; std::basic_string<char,std::char_traits<char>,std::allocator<char> >::assign
PUBLIC	??$_Max_value@_K@std@@YAAEB_KAEB_K0@Z		; std::_Max_value<unsigned __int64>
PUBLIC	?max_size@?$basic_string@DU?$char_traits@D@std@@V?$allocator@D@2@@std@@QEBA_KXZ ; std::basic_string<char,std::char_traits<char>,std::allocator<char> >::max_size
PUBLIC	?_Tidy_init@?$basic_string@DU?$char_traits@D@std@@V?$allocator@D@2@@std@@QEAAXXZ ; std::basic_string<char,std::char_traits<char>,std::allocator<char> >::_Tidy_init
PUBLIC	?_Tidy_deallocate@?$basic_string@DU?$char_traits@D@std@@V?$allocator@D@2@@std@@QEAAXXZ ; std::basic_string<char,std::char_traits<char>,std::allocator<char> >::_Tidy_deallocate
PUBLIC	??0?$_String_alloc@U?$_String_base_types@DV?$allocator@D@std@@@std@@@std@@QEAA@XZ ; std::_String_alloc<std::_String_base_types<char,std::allocator<char> > >::_String_alloc<std::_String_base_types<char,std::allocator<char> > >
PUBLIC	?_Orphan_all@?$_String_alloc@U?$_String_base_types@DV?$allocator@D@std@@@std@@@std@@QEAAXXZ ; std::_String_alloc<std::_String_base_types<char,std::allocator<char> > >::_Orphan_all
PUBLIC	?_Getal@?$_String_alloc@U?$_String_base_types@DV?$allocator@D@std@@@std@@@std@@QEAAAEAV?$allocator@D@2@XZ ; std::_String_alloc<std::_String_base_types<char,std::allocator<char> > >::_Getal
PUBLIC	?_Getal@?$_String_alloc@U?$_String_base_types@DV?$allocator@D@std@@@std@@@std@@QEBAAEBV?$allocator@D@2@XZ ; std::_String_alloc<std::_String_base_types<char,std::allocator<char> > >::_Getal
PUBLIC	?_Get_data@?$_String_alloc@U?$_String_base_types@DV?$allocator@D@std@@@std@@@std@@QEAAAEAV?$_String_val@U?$_Simple_types@D@std@@@2@XZ ; std::_String_alloc<std::_String_base_types<char,std::allocator<char> > >::_Get_data
PUBLIC	?_Get_data@?$_String_alloc@U?$_String_base_types@DV?$allocator@D@std@@@std@@@std@@QEBAAEBV?$_String_val@U?$_Simple_types@D@std@@@2@XZ ; std::_String_alloc<std::_String_base_types<char,std::allocator<char> > >::_Get_data
PUBLIC	?_Myptr@?$_String_val@U?$_Simple_types@D@std@@@std@@QEAAPEADXZ ; std::_String_val<std::_Simple_types<char> >::_Myptr
PUBLIC	?_Myptr@?$_String_val@U?$_Simple_types@D@std@@@std@@QEBAPEBDXZ ; std::_String_val<std::_Simple_types<char> >::_Myptr
PUBLIC	?_Large_string_engaged@?$_String_val@U?$_Simple_types@D@std@@@std@@QEBA_NXZ ; std::_String_val<std::_Simple_types<char> >::_Large_string_engaged
PUBLIC	??1_Bxty@?$_String_val@U?$_Simple_types@D@std@@@std@@QEAA@XZ ; std::_String_val<std::_Simple_types<char> >::_Bxty::~_Bxty
PUBLIC	??4?$CSimpleStringT@_W$0A@@ATL@@QEAAAEAV01@AEBV01@@Z ; ATL::CSimpleStringT<wchar_t,0>::operator=
PUBLIC	?Empty@?$CSimpleStringT@_W$0A@@ATL@@QEAAXXZ	; ATL::CSimpleStringT<wchar_t,0>::Empty
PUBLIC	?GetLength@?$CSimpleStringT@_W$0A@@ATL@@QEBAHXZ	; ATL::CSimpleStringT<wchar_t,0>::GetLength
PUBLIC	?StringLength@?$CSimpleStringT@_W$0A@@ATL@@SAHPEB_W@Z ; ATL::CSimpleStringT<wchar_t,0>::StringLength
PUBLIC	?Concatenate@?$CSimpleStringT@_W$0A@@ATL@@KAXAEAV12@PEB_WH1H@Z ; ATL::CSimpleStringT<wchar_t,0>::Concatenate
PUBLIC	??0?$CStringT@_WV?$StrTraitATL@_WV?$ChTraitsCRT@_W@ATL@@@ATL@@@ATL@@QEAA@PEAUIAtlStringMgr@1@@Z ; ATL::CStringT<wchar_t,ATL::StrTraitATL<wchar_t,ATL::ChTraitsCRT<wchar_t> > >::CStringT<wchar_t,ATL::StrTraitATL<wchar_t,ATL::ChTraitsCRT<wchar_t> > >
PUBLIC	??0?$CStringT@_WV?$StrTraitATL@_WV?$ChTraitsCRT@_W@ATL@@@ATL@@@ATL@@QEAA@AEBV01@@Z ; ATL::CStringT<wchar_t,ATL::StrTraitATL<wchar_t,ATL::ChTraitsCRT<wchar_t> > >::CStringT<wchar_t,ATL::StrTraitATL<wchar_t,ATL::ChTraitsCRT<wchar_t> > >
PUBLIC	?GetManager@?$CStringT@_WV?$StrTraitATL@_WV?$ChTraitsCRT@_W@ATL@@@ATL@@@ATL@@QEBAPEAUIAtlStringMgr@2@XZ ; ATL::CStringT<wchar_t,ATL::StrTraitATL<wchar_t,ATL::ChTraitsCRT<wchar_t> > >::GetManager
PUBLIC	?_Has_unused_capacity@?$vector@V?$array@H$03@std@@V?$allocator@V?$array@H$03@std@@@2@@std@@AEBA_NXZ ; std::vector<std::array<int,4>,std::allocator<std::array<int,4> > >::_Has_unused_capacity
PUBLIC	?_Tidy@?$vector@V?$array@H$03@std@@V?$allocator@V?$array@H$03@std@@@2@@std@@AEAAXXZ ; std::vector<std::array<int,4>,std::allocator<std::array<int,4> > >::_Tidy
PUBLIC	?_Orphan_range@?$vector@V?$array@H$03@std@@V?$allocator@V?$array@H$03@std@@@2@@std@@AEBAXPEAV?$array@H$03@2@0@Z ; std::vector<std::array<int,4>,std::allocator<std::array<int,4> > >::_Orphan_range
PUBLIC	??0?$_Vector_alloc@U?$_Vec_base_types@V?$array@H$03@std@@V?$allocator@V?$array@H$03@std@@@2@@std@@@std@@QEAA@XZ ; std::_Vector_alloc<std::_Vec_base_types<std::array<int,4>,std::allocator<std::array<int,4> > > >::_Vector_alloc<std::_Vec_base_types<std::array<int,4>,std::allocator<std::array<int,4> > > >
PUBLIC	?_Getal@?$_Vector_alloc@U?$_Vec_base_types@V?$array@H$03@std@@V?$allocator@V?$array@H$03@std@@@2@@std@@@std@@QEAAAEAV?$allocator@V?$array@H$03@std@@@2@XZ ; std::_Vector_alloc<std::_Vec_base_types<std::array<int,4>,std::allocator<std::array<int,4> > > >::_Getal
PUBLIC	?_Myfirst@?$_Vector_alloc@U?$_Vec_base_types@V?$array@H$03@std@@V?$allocator@V?$array@H$03@std@@@2@@std@@@std@@QEAAAEAPEAV?$array@H$03@2@XZ ; std::_Vector_alloc<std::_Vec_base_types<std::array<int,4>,std::allocator<std::array<int,4> > > >::_Myfirst
PUBLIC	?_Mylast@?$_Vector_alloc@U?$_Vec_base_types@V?$array@H$03@std@@V?$allocator@V?$array@H$03@std@@@2@@std@@@std@@QEAAAEAPEAV?$array@H$03@2@XZ ; std::_Vector_alloc<std::_Vec_base_types<std::array<int,4>,std::allocator<std::array<int,4> > > >::_Mylast
PUBLIC	??1?$_String_val@U?$_Simple_types@D@std@@@std@@QEAA@XZ ; std::_String_val<std::_Simple_types<char> >::~_String_val<std::_Simple_types<char> >
PUBLIC	??1?$_Compressed_pair@V?$allocator@D@std@@V?$_String_val@U?$_Simple_types@D@std@@@2@$00@std@@QEAA@XZ ; std::_Compressed_pair<std::allocator<char>,std::_String_val<std::_Simple_types<char> >,1>::~_Compressed_pair<std::allocator<char>,std::_String_val<std::_Simple_types<char> >,1>
PUBLIC	??1?$_String_alloc@U?$_String_base_types@DV?$allocator@D@std@@@std@@@std@@QEAA@XZ ; std::_String_alloc<std::_String_base_types<char,std::allocator<char> > >::~_String_alloc<std::_String_base_types<char,std::allocator<char> > >
PUBLIC	??0?$basic_string@DU?$char_traits@D@std@@V?$allocator@D@2@@std@@QEAA@XZ ; std::basic_string<char,std::char_traits<char>,std::allocator<char> >::basic_string<char,std::char_traits<char>,std::allocator<char> >
PUBLIC	??1?$basic_string@DU?$char_traits@D@std@@V?$allocator@D@2@@std@@QEAA@XZ ; std::basic_string<char,std::char_traits<char>,std::allocator<char> >::~basic_string<char,std::char_traits<char>,std::allocator<char> >
PUBLIC	??4?$basic_string@DU?$char_traits@D@std@@V?$allocator@D@2@@std@@QEAAAEAV01@QEBD@Z ; std::basic_string<char,std::char_traits<char>,std::allocator<char> >::operator=
PUBLIC	?c_str@?$basic_string@DU?$char_traits@D@std@@V?$allocator@D@2@@std@@QEBAPEBDXZ ; std::basic_string<char,std::char_traits<char>,std::allocator<char> >::c_str
PUBLIC	??4?$CStringT@_WV?$StrTraitATL@_WV?$ChTraitsCRT@_W@ATL@@@ATL@@@ATL@@QEAAAEAV01@AEBV01@@Z ; ATL::CStringT<wchar_t,ATL::StrTraitATL<wchar_t,ATL::ChTraitsCRT<wchar_t> > >::operator=
PUBLIC	??4?$CStringT@_WV?$StrTraitATL@_WV?$ChTraitsCRT@_W@ATL@@@ATL@@@ATL@@QEAAAEAV01@PEBD@Z ; ATL::CStringT<wchar_t,ATL::StrTraitATL<wchar_t,ATL::ChTraitsCRT<wchar_t> > >::operator=
PUBLIC	??HATL@@YA?AV?$CStringT@_WV?$StrTraitATL@_WV?$ChTraitsCRT@_W@ATL@@@ATL@@@0@AEBV10@0@Z ; ATL::operator+
PUBLIC	??HATL@@YA?AV?$CStringT@_WV?$StrTraitATL@_WV?$ChTraitsCRT@_W@ATL@@@ATL@@@0@AEBV10@PEB_W@Z ; ATL::operator+
PUBLIC	?count@?$duration@_JU?$ratio@$00$0JIJGIA@@std@@@chrono@std@@QEBA_JXZ ; std::chrono::duration<__int64,std::ratio<1,10000000> >::count
PUBLIC	??0?$time_point@Usystem_clock@chrono@std@@V?$duration@_JU?$ratio@$00$0JIJGIA@@std@@@23@@chrono@std@@QEAA@AEBV?$duration@_JU?$ratio@$00$0JIJGIA@@std@@@12@@Z ; std::chrono::time_point<std::chrono::system_clock,std::chrono::duration<__int64,std::ratio<1,10000000> > >::time_point<std::chrono::system_clock,std::chrono::duration<__int64,std::ratio<1,10000000> > >
PUBLIC	?time_since_epoch@?$time_point@Usystem_clock@chrono@std@@V?$duration@_JU?$ratio@$00$0JIJGIA@@std@@@23@@chrono@std@@QEBA?AV?$duration@_JU?$ratio@$00$0JIJGIA@@std@@@23@XZ ; std::chrono::time_point<std::chrono::system_clock,std::chrono::duration<__int64,std::ratio<1,10000000> > >::time_since_epoch
PUBLIC	??A?$array@H$03@std@@QEAAAEAH_K@Z		; std::array<int,4>::operator[]
PUBLIC	?data@?$array@H$03@std@@QEAAPEAHXZ		; std::array<int,4>::data
PUBLIC	??0?$vector@V?$array@H$03@std@@V?$allocator@V?$array@H$03@std@@@2@@std@@QEAA@XZ ; std::vector<std::array<int,4>,std::allocator<std::array<int,4> > >::vector<std::array<int,4>,std::allocator<std::array<int,4> > >
PUBLIC	??1?$vector@V?$array@H$03@std@@V?$allocator@V?$array@H$03@std@@@2@@std@@QEAA@XZ ; std::vector<std::array<int,4>,std::allocator<std::array<int,4> > >::~vector<std::array<int,4>,std::allocator<std::array<int,4> > >
PUBLIC	??$_Emplace_back_with_unused_capacity@AEBV?$array@H$03@std@@@?$vector@V?$array@H$03@std@@V?$allocator@V?$array@H$03@std@@@2@@std@@AEAAXAEBV?$array@H$03@1@@Z ; std::vector<std::array<int,4>,std::allocator<std::array<int,4> > >::_Emplace_back_with_unused_capacity<std::array<int,4> const &>
PUBLIC	??$emplace_back@AEBV?$array@H$03@std@@@?$vector@V?$array@H$03@std@@V?$allocator@V?$array@H$03@std@@@2@@std@@QEAAXAEBV?$array@H$03@1@@Z ; std::vector<std::array<int,4>,std::allocator<std::array<int,4> > >::emplace_back<std::array<int,4> const &>
PUBLIC	?push_back@?$vector@V?$array@H$03@std@@V?$allocator@V?$array@H$03@std@@@2@@std@@QEAAXAEBV?$array@H$03@2@@Z ; std::vector<std::array<int,4>,std::allocator<std::array<int,4> > >::push_back
PUBLIC	??A?$vector@V?$array@H$03@std@@V?$allocator@V?$array@H$03@std@@@2@@std@@QEAAAEAV?$array@H$03@1@_K@Z ; std::vector<std::array<int,4>,std::allocator<std::array<int,4> > >::operator[]
PUBLIC	??0?$bitset@$0CA@@std@@QEAA@XZ			; std::bitset<32>::bitset<32>
PUBLIC	??0?$bitset@$0CA@@std@@QEAA@_K@Z		; std::bitset<32>::bitset<32>
PUBLIC	?GetCPULoad@@YAMXZ				; GetCPULoad
PUBLIC	?FileTimeToInt64@@YA_KAEBU_FILETIME@@@Z		; FileTimeToInt64
PUBLIC	?CalculateCPULoad@@YAM_K0@Z			; CalculateCPULoad
PUBLIC	?get_cpu_status@@YAXXZ				; get_cpu_status
PUBLIC	?__autoclassinit2@?$vector@V?$array@H$03@std@@V?$allocator@V?$array@H$03@std@@@2@@std@@QEAAX_K@Z ; std::vector<std::array<int,4>,std::allocator<std::array<int,4> > >::__autoclassinit2
PUBLIC	?get_cpu_info@@YAXXZ				; get_cpu_info
PUBLIC	?__autoclassinit2@?$CStringT@_WV?$StrTraitATL@_WV?$ChTraitsCRT@_W@ATL@@@ATL@@@ATL@@QEAAX_K@Z ; ATL::CStringT<wchar_t,ATL::StrTraitATL<wchar_t,ATL::ChTraitsCRT<wchar_t> > >::__autoclassinit2
PUBLIC	?update_status@@YAXXZ				; update_status
PUBLIC	?About@@YA_JPEAUHWND__@@I_K_J@Z			; About
PUBLIC	?WndProc@@YA_JPEAUHWND__@@I_K_J@Z		; WndProc
PUBLIC	?InitInstance@@YAHPEAUHINSTANCE__@@H@Z		; InitInstance
PUBLIC	?MyRegisterClass@@YAGPEAUHINSTANCE__@@@Z	; MyRegisterClass
PUBLIC	?__autoclassinit2@Benchmark@@QEAAX_K@Z		; Benchmark::__autoclassinit2
PUBLIC	wWinMain
PUBLIC	?sleep_until@this_thread@std@@YAXPEBUxtime@@@Z	; std::this_thread::sleep_until
PUBLIC	?now@system_clock@chrono@std@@SA?AV?$time_point@Usystem_clock@chrono@std@@V?$duration@_JU?$ratio@$00$0JIJGIA@@std@@@23@@23@XZ ; std::chrono::system_clock::now
PUBLIC	?ConvertToBaseType@?$ChTraitsCRT@_W@ATL@@SAXPEA_WHPEBDH@Z ; ATL::ChTraitsCRT<wchar_t>::ConvertToBaseType
PUBLIC	?GetBaseTypeLength@?$ChTraitsCRT@_W@ATL@@SAHPEBD@Z ; ATL::ChTraitsCRT<wchar_t>::GetBaseTypeLength
PUBLIC	?IsLocked@CStringData@ATL@@QEBA_NXZ		; ATL::CStringData::IsLocked
PUBLIC	?_AtlGetConversionACP@ATL@@YAIXZ		; ATL::_AtlGetConversionACP
PUBLIC	??$_Convert_size@_K@std@@YA_K_K@Z		; std::_Convert_size<unsigned __int64>
PUBLIC	?_Adjust_manually_vector_aligned@std@@YAXAEAPEAXAEA_K@Z ; std::_Adjust_manually_vector_aligned
PUBLIC	?_Allocate@_Default_allocate_traits@std@@SAPEAX_K@Z ; std::_Default_allocate_traits::_Allocate
PUBLIC	??$_Get_size_of_n@$00@std@@YA_K_K@Z		; std::_Get_size_of_n<1>
PUBLIC	?_Orphan_all@_Container_base0@std@@QEAAXXZ	; std::_Container_base0::_Orphan_all
PUBLIC	?assign@?$char_traits@D@std@@SAXAEADAEBD@Z	; std::char_traits<char>::assign
PUBLIC	?move@?$char_traits@D@std@@SAPEADQEADQEBD_K@Z	; std::char_traits<char>::move
PUBLIC	?copy@?$char_traits@D@std@@SAPEADQEADQEBD_K@Z	; std::char_traits<char>::copy
PUBLIC	?length@?$char_traits@D@std@@SA_KQEBD@Z		; std::char_traits<char>::length
PUBLIC	?max@?$numeric_limits@_J@std@@SA_JXZ		; std::numeric_limits<__int64>::max
PUBLIC	??2@YAPEAX_KPEAX@Z				; operator new
;	COMDAT pdata
pdata	SEGMENT
$pdata$memmove_s DD imagerel memmove_s
	DD	imagerel memmove_s+101
	DD	imagerel $unwind$memmove_s
pdata	ENDS
;	COMDAT pdata
pdata	SEGMENT
$pdata$??$_Copy_memmove@PEAV?$array@H$03@std@@PEAV12@@std@@YAPEAV?$array@H$03@0@PEAV10@00@Z DD imagerel $LN4
	DD	imagerel $LN4+48
	DD	imagerel $unwind$??$_Copy_memmove@PEAV?$array@H$03@std@@PEAV12@@std@@YAPEAV?$array@H$03@0@PEAV10@00@Z
pdata	ENDS
;	COMDAT pdata
pdata	SEGMENT
$pdata$??$_Uninitialized_move_al_unchecked@V?$array@H$03@std@@V12@V?$allocator@V?$array@H$03@std@@@2@@std@@YAPEAV?$array@H$03@0@QEAV10@00AEAV?$allocator@V?$array@H$03@std@@@0@U_Really_trivial_ptr_iterator_tag@0@U?$integral_constant@_N$00@0@@Z DD imagerel $LN6
	DD	imagerel $LN6+48
	DD	imagerel $unwind$??$_Uninitialized_move_al_unchecked@V?$array@H$03@std@@V12@V?$allocator@V?$array@H$03@std@@@2@@std@@YAPEAV?$array@H$03@0@QEAV10@00AEAV?$allocator@V?$array@H$03@std@@@0@U_Really_trivial_ptr_iterator_tag@0@U?$integral_constant@_N$00@0@@Z
pdata	ENDS
;	COMDAT pdata
pdata	SEGMENT
$pdata$??$?0V?$unique_ptr@V?$tuple@P6AXXZ@std@@U?$default_delete@V?$tuple@P6AXXZ@std@@@2@@std@@@?$_LaunchPad@V?$unique_ptr@V?$tuple@P6AXXZ@std@@U?$default_delete@V?$tuple@P6AXXZ@std@@@2@@std@@@std@@QEAA@$$QEAV?$unique_ptr@V?$tuple@P6AXXZ@std@@U?$default_delete@V?$tuple@P6AXXZ@std@@@2@@1@@Z DD imagerel $LN76
	DD	imagerel $LN76+220
	DD	imagerel $unwind$??$?0V?$unique_ptr@V?$tuple@P6AXXZ@std@@U?$default_delete@V?$tuple@P6AXXZ@std@@@2@@std@@@?$_LaunchPad@V?$unique_ptr@V?$tuple@P6AXXZ@std@@U?$default_delete@V?$tuple@P6AXXZ@std@@@2@@std@@@std@@QEAA@$$QEAV?$unique_ptr@V?$tuple@P6AXXZ@std@@U?$default_delete@V?$tuple@P6AXXZ@std@@@2@@1@@Z
pdata	ENDS
;	COMDAT pdata
pdata	SEGMENT
$pdata$?_Run@?$_LaunchPad@V?$unique_ptr@V?$tuple@P6AXXZ@std@@U?$default_delete@V?$tuple@P6AXXZ@std@@@2@@std@@@std@@CAXPEAV12@@Z DD imagerel $LN101
	DD	imagerel $LN101+144
	DD	imagerel $unwind$?_Run@?$_LaunchPad@V?$unique_ptr@V?$tuple@P6AXXZ@std@@U?$default_delete@V?$tuple@P6AXXZ@std@@@2@@std@@@std@@CAXPEAV12@@Z
pdata	ENDS
;	COMDAT pdata
pdata	SEGMENT
$pdata$?_Go@?$_LaunchPad@V?$unique_ptr@V?$tuple@P6AXXZ@std@@U?$default_delete@V?$tuple@P6AXXZ@std@@@2@@std@@@std@@UEAAXXZ DD imagerel $LN104
	DD	imagerel $LN104+138
	DD	imagerel $unwind$?_Go@?$_LaunchPad@V?$unique_ptr@V?$tuple@P6AXXZ@std@@U?$default_delete@V?$tuple@P6AXXZ@std@@@2@@std@@@std@@UEAAXXZ
pdata	ENDS
;	COMDAT pdata
pdata	SEGMENT
$pdata$??1?$_LaunchPad@V?$unique_ptr@V?$tuple@P6AXXZ@std@@U?$default_delete@V?$tuple@P6AXXZ@std@@@2@@std@@@std@@QEAA@XZ DD imagerel $LN50
	DD	imagerel $LN50+105
	DD	imagerel $unwind$??1?$_LaunchPad@V?$unique_ptr@V?$tuple@P6AXXZ@std@@U?$default_delete@V?$tuple@P6AXXZ@std@@@2@@std@@@std@@QEAA@XZ
pdata	ENDS
;	COMDAT pdata
pdata	SEGMENT
$pdata$??$_Uninitialized_move@PEAV?$array@H$03@std@@PEAV12@V?$allocator@V?$array@H$03@std@@@2@@std@@YAPEAV?$array@H$03@0@QEAV10@0PEAV10@AEAV?$allocator@V?$array@H$03@std@@@0@@Z DD imagerel $LN22
	DD	imagerel $LN22+48
	DD	imagerel $unwind$??$_Uninitialized_move@PEAV?$array@H$03@std@@PEAV12@V?$allocator@V?$array@H$03@std@@@2@@std@@YAPEAV?$array@H$03@0@QEAV10@0PEAV10@AEAV?$allocator@V?$array@H$03@std@@@0@@Z
pdata	ENDS
;	COMDAT pdata
pdata	SEGMENT
$pdata$??$_Allocate_manually_vector_aligned@U_Default_allocate_traits@std@@@std@@YAPEAX_K@Z DD imagerel $LN16
	DD	imagerel $LN16+62
	DD	imagerel $unwind$??$_Allocate_manually_vector_aligned@U_Default_allocate_traits@std@@@std@@YAPEAX_K@Z
pdata	ENDS
;	COMDAT pdata
pdata	SEGMENT
$pdata$??$_To_xtime@_JU?$ratio@$00$00@std@@@std@@YA?AUxtime@@AEBV?$duration@_JU?$ratio@$00$00@std@@@chrono@0@@Z DD imagerel $LN144
	DD	imagerel $LN144+121
	DD	imagerel $unwind$??$_To_xtime@_JU?$ratio@$00$00@std@@@std@@YA?AUxtime@@AEBV?$duration@_JU?$ratio@$00$00@std@@@chrono@0@@Z
pdata	ENDS
;	COMDAT pdata
pdata	SEGMENT
$pdata$??$_Launch@V?$unique_ptr@V?$tuple@P6AXXZ@std@@U?$default_delete@V?$tuple@P6AXXZ@std@@@2@@std@@@std@@YAXPEAU_Thrd_imp_t@@$$QEAV?$unique_ptr@V?$tuple@P6AXXZ@std@@U?$default_delete@V?$tuple@P6AXXZ@std@@@2@@0@@Z DD imagerel $LN148
	DD	imagerel $LN148+387
	DD	imagerel $unwind$??$_Launch@V?$unique_ptr@V?$tuple@P6AXXZ@std@@U?$default_delete@V?$tuple@P6AXXZ@std@@@2@@std@@@std@@YAXPEAU_Thrd_imp_t@@$$QEAV?$unique_ptr@V?$tuple@P6AXXZ@std@@U?$default_delete@V?$tuple@P6AXXZ@std@@@2@@0@@Z
pdata	ENDS
;	COMDAT pdata
pdata	SEGMENT
$pdata$??$make_unique@V?$tuple@P6AXXZ@std@@A6AXXZ$0A@@std@@YA?AV?$unique_ptr@V?$tuple@P6AXXZ@std@@U?$default_delete@V?$tuple@P6AXXZ@std@@@2@@0@A6AXXZ@Z DD imagerel $LN31
	DD	imagerel $LN31+51
	DD	imagerel $unwind$??$make_unique@V?$tuple@P6AXXZ@std@@A6AXXZ$0A@@std@@YA?AV?$unique_ptr@V?$tuple@P6AXXZ@std@@U?$default_delete@V?$tuple@P6AXXZ@std@@@2@@0@A6AXXZ@Z
pdata	ENDS
;	COMDAT pdata
pdata	SEGMENT
$pdata$?_Xlen@?$basic_string@DU?$char_traits@D@std@@V?$allocator@D@2@@std@@SAXXZ DD imagerel $LN4
	DD	imagerel $LN4+18
	DD	imagerel $unwind$?_Xlen@?$basic_string@DU?$char_traits@D@std@@V?$allocator@D@2@@std@@SAXXZ
pdata	ENDS
;	COMDAT pdata
pdata	SEGMENT
$pdata$?allocate@?$allocator@V?$array@H$03@std@@@std@@QEAAPEAV?$array@H$03@2@_K@Z DD imagerel $LN30
	DD	imagerel $LN30+116
	DD	imagerel $unwind$?allocate@?$allocator@V?$array@H$03@std@@@std@@QEAAPEAV?$array@H$03@2@_K@Z
pdata	ENDS
;	COMDAT pdata
pdata	SEGMENT
$pdata$?_Umove@?$vector@V?$array@H$03@std@@V?$allocator@V?$array@H$03@std@@@2@@std@@AEAAPEAV?$array@H$03@2@PEAV32@00@Z DD imagerel $LN29
	DD	imagerel $LN29+45
	DD	imagerel $unwind$?_Umove@?$vector@V?$array@H$03@std@@V?$allocator@V?$array@H$03@std@@@2@@std@@AEAAPEAV?$array@H$03@2@PEAV32@00@Z
pdata	ENDS
;	COMDAT pdata
pdata	SEGMENT
$pdata$?_Umove_if_noexcept@?$vector@V?$array@H$03@std@@V?$allocator@V?$array@H$03@std@@@2@@std@@AEAAXPEAV?$array@H$03@2@00@Z DD imagerel $LN31
	DD	imagerel $LN31+48
	DD	imagerel $unwind$?_Umove_if_noexcept@?$vector@V?$array@H$03@std@@V?$allocator@V?$array@H$03@std@@@2@@std@@AEAAXPEAV?$array@H$03@2@00@Z
pdata	ENDS
;	COMDAT pdata
pdata	SEGMENT
$pdata$?_Change_array@?$vector@V?$array@H$03@std@@V?$allocator@V?$array@H$03@std@@@2@@std@@AEAAXQEAV?$array@H$03@2@_K1@Z DD imagerel $LN103
	DD	imagerel $LN103+142
	DD	imagerel $unwind$?_Change_array@?$vector@V?$array@H$03@std@@V?$allocator@V?$array@H$03@std@@@2@@std@@AEAAXQEAV?$array@H$03@2@_K1@Z
pdata	ENDS
;	COMDAT pdata
pdata	SEGMENT
$pdata$?_Xlength@?$vector@V?$array@H$03@std@@V?$allocator@V?$array@H$03@std@@@2@@std@@CAXXZ DD imagerel $LN4
	DD	imagerel $LN4+18
	DD	imagerel $unwind$?_Xlength@?$vector@V?$array@H$03@std@@V?$allocator@V?$array@H$03@std@@@2@@std@@CAXXZ
pdata	ENDS
;	COMDAT pdata
pdata	SEGMENT
$pdata$??$_Deallocate@$0BA@$0A@@std@@YAXPEAX_K@Z DD imagerel $LN17
	DD	imagerel $LN17+53
	DD	imagerel $unwind$??$_Deallocate@$0BA@$0A@@std@@YAXPEAX_K@Z
pdata	ENDS
;	COMDAT pdata
pdata	SEGMENT
$pdata$??$_Allocate@$0BA@U_Default_allocate_traits@std@@$0A@@std@@YAPEAX_K@Z DD imagerel $LN23
	DD	imagerel $LN23+90
	DD	imagerel $unwind$??$_Allocate@$0BA@U_Default_allocate_traits@std@@$0A@@std@@YAPEAX_K@Z
pdata	ENDS
;	COMDAT pdata
pdata	SEGMENT
$pdata$??$_Reallocate_for@V<lambda_66f57f934f28d61049862f64df852ff0>@@PEBD@?$basic_string@DU?$char_traits@D@std@@V?$allocator@D@2@@std@@QEAAAEAV01@_KV<lambda_66f57f934f28d61049862f64df852ff0>@@PEBD@Z DD imagerel ??$_Reallocate_for@V<lambda_66f57f934f28d61049862f64df852ff0>@@PEBD@?$basic_string@DU?$char_traits@D@std@@V?$allocator@D@2@@std@@QEAAAEAV01@_KV<lambda_66f57f934f28d61049862f64df852ff0>@@PEBD@Z
	DD	imagerel ??$_Reallocate_for@V<lambda_66f57f934f28d61049862f64df852ff0>@@PEBD@?$basic_string@DU?$char_traits@D@std@@V?$allocator@D@2@@std@@QEAAAEAV01@_KV<lambda_66f57f934f28d61049862f64df852ff0>@@PEBD@Z+39
	DD	imagerel $unwind$??$_Reallocate_for@V<lambda_66f57f934f28d61049862f64df852ff0>@@PEBD@?$basic_string@DU?$char_traits@D@std@@V?$allocator@D@2@@std@@QEAAAEAV01@_KV<lambda_66f57f934f28d61049862f64df852ff0>@@PEBD@Z
pdata	ENDS
;	COMDAT pdata
pdata	SEGMENT
$pdata$1$??$_Reallocate_for@V<lambda_66f57f934f28d61049862f64df852ff0>@@PEBD@?$basic_string@DU?$char_traits@D@std@@V?$allocator@D@2@@std@@QEAAAEAV01@_KV<lambda_66f57f934f28d61049862f64df852ff0>@@PEBD@Z DD imagerel ??$_Reallocate_for@V<lambda_66f57f934f28d61049862f64df852ff0>@@PEBD@?$basic_string@DU?$char_traits@D@std@@V?$allocator@D@2@@std@@QEAAAEAV01@_KV<lambda_66f57f934f28d61049862f64df852ff0>@@PEBD@Z+39
	DD	imagerel ??$_Reallocate_for@V<lambda_66f57f934f28d61049862f64df852ff0>@@PEBD@?$basic_string@DU?$char_traits@D@std@@V?$allocator@D@2@@std@@QEAAAEAV01@_KV<lambda_66f57f934f28d61049862f64df852ff0>@@PEBD@Z+286
	DD	imagerel $chain$1$??$_Reallocate_for@V<lambda_66f57f934f28d61049862f64df852ff0>@@PEBD@?$basic_string@DU?$char_traits@D@std@@V?$allocator@D@2@@std@@QEAAAEAV01@_KV<lambda_66f57f934f28d61049862f64df852ff0>@@PEBD@Z
pdata	ENDS
;	COMDAT pdata
pdata	SEGMENT
$pdata$3$??$_Reallocate_for@V<lambda_66f57f934f28d61049862f64df852ff0>@@PEBD@?$basic_string@DU?$char_traits@D@std@@V?$allocator@D@2@@std@@QEAAAEAV01@_KV<lambda_66f57f934f28d61049862f64df852ff0>@@PEBD@Z DD imagerel ??$_Reallocate_for@V<lambda_66f57f934f28d61049862f64df852ff0>@@PEBD@?$basic_string@DU?$char_traits@D@std@@V?$allocator@D@2@@std@@QEAAAEAV01@_KV<lambda_66f57f934f28d61049862f64df852ff0>@@PEBD@Z+286
	DD	imagerel ??$_Reallocate_for@V<lambda_66f57f934f28d61049862f64df852ff0>@@PEBD@?$basic_string@DU?$char_traits@D@std@@V?$allocator@D@2@@std@@QEAAAEAV01@_KV<lambda_66f57f934f28d61049862f64df852ff0>@@PEBD@Z+293
	DD	imagerel $chain$3$??$_Reallocate_for@V<lambda_66f57f934f28d61049862f64df852ff0>@@PEBD@?$basic_string@DU?$char_traits@D@std@@V?$allocator@D@2@@std@@QEAAAEAV01@_KV<lambda_66f57f934f28d61049862f64df852ff0>@@PEBD@Z
pdata	ENDS
;	COMDAT pdata
pdata	SEGMENT
$pdata$4$??$_Reallocate_for@V<lambda_66f57f934f28d61049862f64df852ff0>@@PEBD@?$basic_string@DU?$char_traits@D@std@@V?$allocator@D@2@@std@@QEAAAEAV01@_KV<lambda_66f57f934f28d61049862f64df852ff0>@@PEBD@Z DD imagerel ??$_Reallocate_for@V<lambda_66f57f934f28d61049862f64df852ff0>@@PEBD@?$basic_string@DU?$char_traits@D@std@@V?$allocator@D@2@@std@@QEAAAEAV01@_KV<lambda_66f57f934f28d61049862f64df852ff0>@@PEBD@Z+293
	DD	imagerel ??$_Reallocate_for@V<lambda_66f57f934f28d61049862f64df852ff0>@@PEBD@?$basic_string@DU?$char_traits@D@std@@V?$allocator@D@2@@std@@QEAAAEAV01@_KV<lambda_66f57f934f28d61049862f64df852ff0>@@PEBD@Z+299
	DD	imagerel $chain$4$??$_Reallocate_for@V<lambda_66f57f934f28d61049862f64df852ff0>@@PEBD@?$basic_string@DU?$char_traits@D@std@@V?$allocator@D@2@@std@@QEAAAEAV01@_KV<lambda_66f57f934f28d61049862f64df852ff0>@@PEBD@Z
pdata	ENDS
;	COMDAT pdata
pdata	SEGMENT
$pdata$??$_Emplace_reallocate@AEBV?$array@H$03@std@@@?$vector@V?$array@H$03@std@@V?$allocator@V?$array@H$03@std@@@2@@std@@QEAAPEAV?$array@H$03@1@QEAV21@AEBV21@@Z DD imagerel $LN337
	DD	imagerel $LN337+70
	DD	imagerel $unwind$??$_Emplace_reallocate@AEBV?$array@H$03@std@@@?$vector@V?$array@H$03@std@@V?$allocator@V?$array@H$03@std@@@2@@std@@QEAAPEAV?$array@H$03@1@QEAV21@AEBV21@@Z
pdata	ENDS
;	COMDAT pdata
pdata	SEGMENT
$pdata$1$??$_Emplace_reallocate@AEBV?$array@H$03@std@@@?$vector@V?$array@H$03@std@@V?$allocator@V?$array@H$03@std@@@2@@std@@QEAAPEAV?$array@H$03@1@QEAV21@AEBV21@@Z DD imagerel $LN337+70
	DD	imagerel $LN337+386
	DD	imagerel $chain$1$??$_Emplace_reallocate@AEBV?$array@H$03@std@@@?$vector@V?$array@H$03@std@@V?$allocator@V?$array@H$03@std@@@2@@std@@QEAAPEAV?$array@H$03@1@QEAV21@AEBV21@@Z
pdata	ENDS
;	COMDAT pdata
pdata	SEGMENT
$pdata$3$??$_Emplace_reallocate@AEBV?$array@H$03@std@@@?$vector@V?$array@H$03@std@@V?$allocator@V?$array@H$03@std@@@2@@std@@QEAAPEAV?$array@H$03@1@QEAV21@AEBV21@@Z DD imagerel $LN337+386
	DD	imagerel $LN337+393
	DD	imagerel $chain$3$??$_Emplace_reallocate@AEBV?$array@H$03@std@@@?$vector@V?$array@H$03@std@@V?$allocator@V?$array@H$03@std@@@2@@std@@QEAAPEAV?$array@H$03@1@QEAV21@AEBV21@@Z
pdata	ENDS
;	COMDAT pdata
pdata	SEGMENT
$pdata$4$??$_Emplace_reallocate@AEBV?$array@H$03@std@@@?$vector@V?$array@H$03@std@@V?$allocator@V?$array@H$03@std@@@2@@std@@QEAAPEAV?$array@H$03@1@QEAV21@AEBV21@@Z DD imagerel $LN337+393
	DD	imagerel $LN337+399
	DD	imagerel $chain$4$??$_Emplace_reallocate@AEBV?$array@H$03@std@@@?$vector@V?$array@H$03@std@@V?$allocator@V?$array@H$03@std@@@2@@std@@QEAAPEAV?$array@H$03@1@QEAV21@AEBV21@@Z
pdata	ENDS
;	COMDAT pdata
pdata	SEGMENT
$pdata$??$sleep_for@_JU?$ratio@$00$00@std@@@this_thread@std@@YAXAEBV?$duration@_JU?$ratio@$00$00@std@@@chrono@1@@Z DD imagerel $LN147
	DD	imagerel $LN147+150
	DD	imagerel $unwind$??$sleep_for@_JU?$ratio@$00$00@std@@@this_thread@std@@YAXAEBV?$duration@_JU?$ratio@$00$00@std@@@chrono@1@@Z
pdata	ENDS
;	COMDAT pdata
pdata	SEGMENT
$pdata$??$?0A6AXXZ$$VX@thread@std@@QEAA@A6AXXZ@Z DD imagerel $LN60
	DD	imagerel $LN60+92
	DD	imagerel $unwind$??$?0A6AXXZ$$VX@thread@std@@QEAA@A6AXXZ@Z
pdata	ENDS
;	COMDAT pdata
pdata	SEGMENT
$pdata$?CopyCharsOverlapped@?$CSimpleStringT@_W$0A@@ATL@@SAXPEA_W_KPEB_WH@Z DD imagerel $LN11
	DD	imagerel $LN11+97
	DD	imagerel $unwind$?CopyCharsOverlapped@?$CSimpleStringT@_W$0A@@ATL@@SAXPEA_W_KPEB_WH@Z
pdata	ENDS
;	COMDAT pdata
pdata	SEGMENT
$pdata$??0?$CSimpleStringT@_W$0A@@ATL@@QEAA@AEBV01@@Z DD imagerel $LN10
	DD	imagerel $LN10+37
	DD	imagerel $unwind$??0?$CSimpleStringT@_W$0A@@ATL@@QEAA@AEBV01@@Z
pdata	ENDS
;	COMDAT pdata
pdata	SEGMENT
$pdata$?SetString@?$CSimpleStringT@_W$0A@@ATL@@QEAAXPEB_WH@Z DD imagerel $LN78
	DD	imagerel $LN78+358
	DD	imagerel $unwind$?SetString@?$CSimpleStringT@_W$0A@@ATL@@QEAAXPEB_WH@Z
pdata	ENDS
;	COMDAT pdata
pdata	SEGMENT
$pdata$?CloneData@?$CSimpleStringT@_W$0A@@ATL@@CAPEAUCStringData@2@PEAU32@@Z DD imagerel $LN17
	DD	imagerel $LN17+128
	DD	imagerel $unwind$?CloneData@?$CSimpleStringT@_W$0A@@ATL@@CAPEAUCStringData@2@PEAU32@@Z
pdata	ENDS
;	COMDAT pdata
pdata	SEGMENT
$pdata$?deallocate@?$allocator@V?$array@H$03@std@@@std@@QEAAXQEAV?$array@H$03@2@_K@Z DD imagerel $LN20
	DD	imagerel $LN20+66
	DD	imagerel $unwind$?deallocate@?$allocator@V?$array@H$03@std@@@std@@QEAAXQEAV?$array@H$03@2@_K@Z
pdata	ENDS
;	COMDAT pdata
pdata	SEGMENT
$pdata$?deallocate@?$allocator@D@std@@QEAAXQEAD_K@Z DD imagerel $LN20
	DD	imagerel $LN20+62
	DD	imagerel $unwind$?deallocate@?$allocator@D@std@@QEAAXQEAD_K@Z
pdata	ENDS
;	COMDAT pdata
pdata	SEGMENT
$pdata$?allocate@?$allocator@D@std@@QEAAPEAD_K@Z DD imagerel $LN28
	DD	imagerel $LN28+92
	DD	imagerel $unwind$?allocate@?$allocator@D@std@@QEAAPEAD_K@Z
pdata	ENDS
;	COMDAT pdata
pdata	SEGMENT
$pdata$??R<lambda_66f57f934f28d61049862f64df852ff0>@@QEBAXQEAD_KQEBD@Z DD imagerel ??R<lambda_66f57f934f28d61049862f64df852ff0>@@QEBAXQEAD_KQEBD@Z
	DD	imagerel ??R<lambda_66f57f934f28d61049862f64df852ff0>@@QEBAXQEAD_KQEBD@Z+42
	DD	imagerel $unwind$??R<lambda_66f57f934f28d61049862f64df852ff0>@@QEBAXQEAD_KQEBD@Z
pdata	ENDS
;	COMDAT pdata
pdata	SEGMENT
$pdata$?assign@?$basic_string@DU?$char_traits@D@std@@V?$allocator@D@2@@std@@QEAAAEAV12@QEBD_K@Z DD imagerel $LN138
	DD	imagerel $LN138+138
	DD	imagerel $unwind$?assign@?$basic_string@DU?$char_traits@D@std@@V?$allocator@D@2@@std@@QEAAAEAV12@QEBD_K@Z
pdata	ENDS
;	COMDAT pdata
pdata	SEGMENT
$pdata$0$?assign@?$basic_string@DU?$char_traits@D@std@@V?$allocator@D@2@@std@@QEAAAEAV12@QEBD_K@Z DD imagerel $LN138+138
	DD	imagerel $LN138+325
	DD	imagerel $chain$0$?assign@?$basic_string@DU?$char_traits@D@std@@V?$allocator@D@2@@std@@QEAAAEAV12@QEBD_K@Z
pdata	ENDS
;	COMDAT pdata
pdata	SEGMENT
$pdata$2$?assign@?$basic_string@DU?$char_traits@D@std@@V?$allocator@D@2@@std@@QEAAAEAV12@QEBD_K@Z DD imagerel $LN138+325
	DD	imagerel $LN138+332
	DD	imagerel $chain$2$?assign@?$basic_string@DU?$char_traits@D@std@@V?$allocator@D@2@@std@@QEAAAEAV12@QEBD_K@Z
pdata	ENDS
;	COMDAT pdata
pdata	SEGMENT
$pdata$3$?assign@?$basic_string@DU?$char_traits@D@std@@V?$allocator@D@2@@std@@QEAAAEAV12@QEBD_K@Z DD imagerel $LN138+332
	DD	imagerel $LN138+338
	DD	imagerel $chain$3$?assign@?$basic_string@DU?$char_traits@D@std@@V?$allocator@D@2@@std@@QEAAAEAV12@QEBD_K@Z
pdata	ENDS
;	COMDAT pdata
pdata	SEGMENT
$pdata$?_Tidy_deallocate@?$basic_string@DU?$char_traits@D@std@@V?$allocator@D@2@@std@@QEAAXXZ DD imagerel $LN49
	DD	imagerel $LN49+95
	DD	imagerel $unwind$?_Tidy_deallocate@?$basic_string@DU?$char_traits@D@std@@V?$allocator@D@2@@std@@QEAAXXZ
pdata	ENDS
;	COMDAT pdata
pdata	SEGMENT
$pdata$??4?$CSimpleStringT@_W$0A@@ATL@@QEAAAEAV01@AEBV01@@Z DD imagerel $LN28
	DD	imagerel $LN28+46
	DD	imagerel $unwind$??4?$CSimpleStringT@_W$0A@@ATL@@QEAAAEAV01@AEBV01@@Z
pdata	ENDS
;	COMDAT pdata
pdata	SEGMENT
$pdata$0$??4?$CSimpleStringT@_W$0A@@ATL@@QEAAAEAV01@AEBV01@@Z DD imagerel $LN28+46
	DD	imagerel $LN28+113
	DD	imagerel $chain$0$??4?$CSimpleStringT@_W$0A@@ATL@@QEAAAEAV01@AEBV01@@Z
pdata	ENDS
;	COMDAT pdata
pdata	SEGMENT
$pdata$1$??4?$CSimpleStringT@_W$0A@@ATL@@QEAAAEAV01@AEBV01@@Z DD imagerel $LN28+113
	DD	imagerel $LN28+139
	DD	imagerel $chain$1$??4?$CSimpleStringT@_W$0A@@ATL@@QEAAAEAV01@AEBV01@@Z
pdata	ENDS
;	COMDAT pdata
pdata	SEGMENT
$pdata$?Empty@?$CSimpleStringT@_W$0A@@ATL@@QEAAXXZ DD imagerel $LN29
	DD	imagerel $LN29+125
	DD	imagerel $unwind$?Empty@?$CSimpleStringT@_W$0A@@ATL@@QEAAXXZ
pdata	ENDS
;	COMDAT pdata
pdata	SEGMENT
$pdata$?Concatenate@?$CSimpleStringT@_W$0A@@ATL@@KAXAEAV12@PEB_WH1H@Z DD imagerel $LN26
	DD	imagerel $LN26+46
	DD	imagerel $unwind$?Concatenate@?$CSimpleStringT@_W$0A@@ATL@@KAXAEAV12@PEB_WH1H@Z
pdata	ENDS
;	COMDAT pdata
pdata	SEGMENT
$pdata$1$?Concatenate@?$CSimpleStringT@_W$0A@@ATL@@KAXAEAV12@PEB_WH1H@Z DD imagerel $LN26+46
	DD	imagerel $LN26+143
	DD	imagerel $chain$1$?Concatenate@?$CSimpleStringT@_W$0A@@ATL@@KAXAEAV12@PEB_WH1H@Z
pdata	ENDS
;	COMDAT pdata
pdata	SEGMENT
$pdata$2$?Concatenate@?$CSimpleStringT@_W$0A@@ATL@@KAXAEAV12@PEB_WH1H@Z DD imagerel $LN26+143
	DD	imagerel $LN26+187
	DD	imagerel $chain$2$?Concatenate@?$CSimpleStringT@_W$0A@@ATL@@KAXAEAV12@PEB_WH1H@Z
pdata	ENDS
;	COMDAT pdata
pdata	SEGMENT
$pdata$??0?$CStringT@_WV?$StrTraitATL@_WV?$ChTraitsCRT@_W@ATL@@@ATL@@@ATL@@QEAA@PEAUIAtlStringMgr@1@@Z DD imagerel $LN21
	DD	imagerel $LN21+50
	DD	imagerel $unwind$??0?$CStringT@_WV?$StrTraitATL@_WV?$ChTraitsCRT@_W@ATL@@@ATL@@@ATL@@QEAA@PEAUIAtlStringMgr@1@@Z
pdata	ENDS
;	COMDAT pdata
pdata	SEGMENT
$pdata$??0?$CStringT@_WV?$StrTraitATL@_WV?$ChTraitsCRT@_W@ATL@@@ATL@@@ATL@@QEAA@AEBV01@@Z DD imagerel $LN14
	DD	imagerel $LN14+37
	DD	imagerel $unwind$??0?$CStringT@_WV?$StrTraitATL@_WV?$ChTraitsCRT@_W@ATL@@@ATL@@@ATL@@QEAA@AEBV01@@Z
pdata	ENDS
;	COMDAT pdata
pdata	SEGMENT
$pdata$?GetManager@?$CStringT@_WV?$StrTraitATL@_WV?$ChTraitsCRT@_W@ATL@@@ATL@@@ATL@@QEBAPEAUIAtlStringMgr@2@XZ DD imagerel $LN13
	DD	imagerel $LN13+51
	DD	imagerel $unwind$?GetManager@?$CStringT@_WV?$StrTraitATL@_WV?$ChTraitsCRT@_W@ATL@@@ATL@@@ATL@@QEBAPEAUIAtlStringMgr@2@XZ
pdata	ENDS
;	COMDAT pdata
pdata	SEGMENT
$pdata$?_Tidy@?$vector@V?$array@H$03@std@@V?$allocator@V?$array@H$03@std@@@2@@std@@AEAAXXZ DD imagerel $LN103
	DD	imagerel $LN103+92
	DD	imagerel $unwind$?_Tidy@?$vector@V?$array@H$03@std@@V?$allocator@V?$array@H$03@std@@@2@@std@@AEAAXXZ
pdata	ENDS
;	COMDAT pdata
pdata	SEGMENT
$pdata$??1?$basic_string@DU?$char_traits@D@std@@V?$allocator@D@2@@std@@QEAA@XZ DD imagerel $LN63
	DD	imagerel $LN63+95
	DD	imagerel $unwind$??1?$basic_string@DU?$char_traits@D@std@@V?$allocator@D@2@@std@@QEAA@XZ
pdata	ENDS
;	COMDAT pdata
pdata	SEGMENT
$pdata$??4?$CStringT@_WV?$StrTraitATL@_WV?$ChTraitsCRT@_W@ATL@@@ATL@@@ATL@@QEAAAEAV01@AEBV01@@Z DD imagerel $LN30
	DD	imagerel $LN30+46
	DD	imagerel $unwind$??4?$CStringT@_WV?$StrTraitATL@_WV?$ChTraitsCRT@_W@ATL@@@ATL@@@ATL@@QEAAAEAV01@AEBV01@@Z
pdata	ENDS
;	COMDAT pdata
pdata	SEGMENT
$pdata$0$??4?$CStringT@_WV?$StrTraitATL@_WV?$ChTraitsCRT@_W@ATL@@@ATL@@@ATL@@QEAAAEAV01@AEBV01@@Z DD imagerel $LN30+46
	DD	imagerel $LN30+113
	DD	imagerel $chain$0$??4?$CStringT@_WV?$StrTraitATL@_WV?$ChTraitsCRT@_W@ATL@@@ATL@@@ATL@@QEAAAEAV01@AEBV01@@Z
pdata	ENDS
;	COMDAT pdata
pdata	SEGMENT
$pdata$1$??4?$CStringT@_WV?$StrTraitATL@_WV?$ChTraitsCRT@_W@ATL@@@ATL@@@ATL@@QEAAAEAV01@AEBV01@@Z DD imagerel $LN30+113
	DD	imagerel $LN30+139
	DD	imagerel $chain$1$??4?$CStringT@_WV?$StrTraitATL@_WV?$ChTraitsCRT@_W@ATL@@@ATL@@@ATL@@QEAAAEAV01@AEBV01@@Z
pdata	ENDS
;	COMDAT pdata
pdata	SEGMENT
$pdata$??4?$CStringT@_WV?$StrTraitATL@_WV?$ChTraitsCRT@_W@ATL@@@ATL@@@ATL@@QEAAAEAV01@PEBD@Z DD imagerel $LN64
	DD	imagerel $LN64+281
	DD	imagerel $unwind$??4?$CStringT@_WV?$StrTraitATL@_WV?$ChTraitsCRT@_W@ATL@@@ATL@@@ATL@@QEAAAEAV01@PEBD@Z
pdata	ENDS
;	COMDAT pdata
pdata	SEGMENT
$pdata$??HATL@@YA?AV?$CStringT@_WV?$StrTraitATL@_WV?$ChTraitsCRT@_W@ATL@@@ATL@@@0@AEBV10@0@Z DD imagerel $LN76
	DD	imagerel $LN76+305
	DD	imagerel $unwind$??HATL@@YA?AV?$CStringT@_WV?$StrTraitATL@_WV?$ChTraitsCRT@_W@ATL@@@ATL@@@0@AEBV10@0@Z
pdata	ENDS
;	COMDAT pdata
pdata	SEGMENT
$pdata$?dtor$0@?0???HATL@@YA?AV?$CStringT@_WV?$StrTraitATL@_WV?$ChTraitsCRT@_W@ATL@@@ATL@@@0@AEBV10@0@Z@4HA DD imagerel ?dtor$0@?0???HATL@@YA?AV?$CStringT@_WV?$StrTraitATL@_WV?$ChTraitsCRT@_W@ATL@@@ATL@@@0@AEBV10@0@Z@4HA
	DD	imagerel ?dtor$0@?0???HATL@@YA?AV?$CStringT@_WV?$StrTraitATL@_WV?$ChTraitsCRT@_W@ATL@@@ATL@@@0@AEBV10@0@Z@4HA+38
	DD	imagerel $unwind$?dtor$0@?0???HATL@@YA?AV?$CStringT@_WV?$StrTraitATL@_WV?$ChTraitsCRT@_W@ATL@@@ATL@@@0@AEBV10@0@Z@4HA
pdata	ENDS
;	COMDAT pdata
pdata	SEGMENT
$pdata$??HATL@@YA?AV?$CStringT@_WV?$StrTraitATL@_WV?$ChTraitsCRT@_W@ATL@@@ATL@@@0@AEBV10@PEB_W@Z DD imagerel $LN74
	DD	imagerel $LN74+335
	DD	imagerel $unwind$??HATL@@YA?AV?$CStringT@_WV?$StrTraitATL@_WV?$ChTraitsCRT@_W@ATL@@@ATL@@@0@AEBV10@PEB_W@Z
pdata	ENDS
;	COMDAT pdata
pdata	SEGMENT
$pdata$?dtor$0@?0???HATL@@YA?AV?$CStringT@_WV?$StrTraitATL@_WV?$ChTraitsCRT@_W@ATL@@@ATL@@@0@AEBV10@PEB_W@Z@4HA DD imagerel ?dtor$0@?0???HATL@@YA?AV?$CStringT@_WV?$StrTraitATL@_WV?$ChTraitsCRT@_W@ATL@@@ATL@@@0@AEBV10@PEB_W@Z@4HA
	DD	imagerel ?dtor$0@?0???HATL@@YA?AV?$CStringT@_WV?$StrTraitATL@_WV?$ChTraitsCRT@_W@ATL@@@ATL@@@0@AEBV10@PEB_W@Z@4HA+38
	DD	imagerel $unwind$?dtor$0@?0???HATL@@YA?AV?$CStringT@_WV?$StrTraitATL@_WV?$ChTraitsCRT@_W@ATL@@@ATL@@@0@AEBV10@PEB_W@Z@4HA
pdata	ENDS
;	COMDAT pdata
pdata	SEGMENT
$pdata$??1?$vector@V?$array@H$03@std@@V?$allocator@V?$array@H$03@std@@@2@@std@@QEAA@XZ DD imagerel $LN106
	DD	imagerel $LN106+92
	DD	imagerel $unwind$??1?$vector@V?$array@H$03@std@@V?$allocator@V?$array@H$03@std@@@2@@std@@QEAA@XZ
pdata	ENDS
;	COMDAT pdata
pdata	SEGMENT
$pdata$?GetCPULoad@@YAMXZ DD imagerel $LN18
	DD	imagerel $LN18+232
	DD	imagerel $unwind$?GetCPULoad@@YAMXZ
pdata	ENDS
;	COMDAT pdata
pdata	SEGMENT
$pdata$?get_cpu_status@@YAXXZ DD imagerel $LN208
	DD	imagerel $LN208+532
	DD	imagerel $unwind$?get_cpu_status@@YAXXZ
pdata	ENDS
;	COMDAT pdata
pdata	SEGMENT
$pdata$?get_cpu_info@@YAXXZ DD imagerel $LN1035
	DD	imagerel $LN1035+2545
	DD	imagerel $unwind$?get_cpu_info@@YAXXZ
pdata	ENDS
;	COMDAT pdata
pdata	SEGMENT
$pdata$?dtor$12@?0??get_cpu_info@@YAXXZ@4HA DD imagerel ?dtor$12@?0??get_cpu_info@@YAXXZ@4HA
	DD	imagerel ?dtor$12@?0??get_cpu_info@@YAXXZ@4HA+38
	DD	imagerel $unwind$?dtor$12@?0??get_cpu_info@@YAXXZ@4HA
pdata	ENDS
;	COMDAT pdata
pdata	SEGMENT
$pdata$?dtor$13@?0??get_cpu_info@@YAXXZ@4HA DD imagerel ?dtor$13@?0??get_cpu_info@@YAXXZ@4HA
	DD	imagerel ?dtor$13@?0??get_cpu_info@@YAXXZ@4HA+38
	DD	imagerel $unwind$?dtor$13@?0??get_cpu_info@@YAXXZ@4HA
pdata	ENDS
;	COMDAT pdata
pdata	SEGMENT
$pdata$?dtor$14@?0??get_cpu_info@@YAXXZ@4HA DD imagerel ?dtor$14@?0??get_cpu_info@@YAXXZ@4HA
	DD	imagerel ?dtor$14@?0??get_cpu_info@@YAXXZ@4HA+38
	DD	imagerel $unwind$?dtor$14@?0??get_cpu_info@@YAXXZ@4HA
pdata	ENDS
;	COMDAT pdata
pdata	SEGMENT
$pdata$?dtor$15@?0??get_cpu_info@@YAXXZ@4HA DD imagerel ?dtor$15@?0??get_cpu_info@@YAXXZ@4HA
	DD	imagerel ?dtor$15@?0??get_cpu_info@@YAXXZ@4HA+38
	DD	imagerel $unwind$?dtor$15@?0??get_cpu_info@@YAXXZ@4HA
pdata	ENDS
;	COMDAT pdata
pdata	SEGMENT
$pdata$?update_status@@YAXXZ DD imagerel $LN192
	DD	imagerel $LN192+319
	DD	imagerel $unwind$?update_status@@YAXXZ
pdata	ENDS
;	COMDAT pdata
pdata	SEGMENT
$pdata$?About@@YA_JPEAUHWND__@@I_K_J@Z DD imagerel $LN11
	DD	imagerel $LN11+53
	DD	imagerel $unwind$?About@@YA_JPEAUHWND__@@I_K_J@Z
pdata	ENDS
;	COMDAT pdata
pdata	SEGMENT
$pdata$?WndProc@@YA_JPEAUHWND__@@I_K_J@Z DD imagerel $LN113
	DD	imagerel $LN113+497
	DD	imagerel $unwind$?WndProc@@YA_JPEAUHWND__@@I_K_J@Z
pdata	ENDS
;	COMDAT pdata
pdata	SEGMENT
$pdata$?InitInstance@@YAHPEAUHINSTANCE__@@H@Z DD imagerel $LN5
	DD	imagerel $LN5+241
	DD	imagerel $unwind$?InitInstance@@YAHPEAUHINSTANCE__@@H@Z
pdata	ENDS
;	COMDAT pdata
pdata	SEGMENT
$pdata$?MyRegisterClass@@YAGPEAUHINSTANCE__@@@Z DD imagerel $LN4
	DD	imagerel $LN4+173
	DD	imagerel $unwind$?MyRegisterClass@@YAGPEAUHINSTANCE__@@@Z
pdata	ENDS
;	COMDAT pdata
pdata	SEGMENT
$pdata$wWinMain DD imagerel $LN183
	DD	imagerel $LN183+1220
	DD	imagerel $unwind$wWinMain
pdata	ENDS
;	COMDAT pdata
pdata	SEGMENT
$pdata$?now@system_clock@chrono@std@@SA?AV?$time_point@Usystem_clock@chrono@std@@V?$duration@_JU?$ratio@$00$0JIJGIA@@std@@@23@@23@XZ DD imagerel $LN9
	DD	imagerel $LN9+27
	DD	imagerel $unwind$?now@system_clock@chrono@std@@SA?AV?$time_point@Usystem_clock@chrono@std@@V?$duration@_JU?$ratio@$00$0JIJGIA@@std@@@23@@23@XZ
pdata	ENDS
;	COMDAT pdata
pdata	SEGMENT
$pdata$?ConvertToBaseType@?$ChTraitsCRT@_W@ATL@@SAXPEA_WHPEBDH@Z DD imagerel $LN6
	DD	imagerel $LN6+33
	DD	imagerel $unwind$?ConvertToBaseType@?$ChTraitsCRT@_W@ATL@@SAXPEA_WHPEBDH@Z
pdata	ENDS
;	COMDAT pdata
pdata	SEGMENT
$pdata$?GetBaseTypeLength@?$ChTraitsCRT@_W@ATL@@SAHPEBD@Z DD imagerel $LN6
	DD	imagerel $LN6+40
	DD	imagerel $unwind$?GetBaseTypeLength@?$ChTraitsCRT@_W@ATL@@SAHPEBD@Z
pdata	ENDS
;	COMDAT pdata
pdata	SEGMENT
$pdata$?_Adjust_manually_vector_aligned@std@@YAXAEAPEAXAEA_K@Z DD imagerel $LN13
	DD	imagerel $LN13+43
	DD	imagerel $unwind$?_Adjust_manually_vector_aligned@std@@YAXAEAPEAXAEA_K@Z
pdata	ENDS
;	COMDAT pdata
pdata	SEGMENT
$pdata$?copy@?$char_traits@D@std@@SAPEADQEADQEBD_K@Z DD imagerel $LN5
	DD	imagerel $LN5+23
	DD	imagerel $unwind$?copy@?$char_traits@D@std@@SAPEADQEADQEBD_K@Z
pdata	ENDS
;	COMDAT xdata
xdata	SEGMENT
$unwind$?copy@?$char_traits@D@std@@SAPEADQEADQEBD_K@Z DD 020601H
	DD	030023206H
xdata	ENDS
;	COMDAT xdata
xdata	SEGMENT
$unwind$?_Adjust_manually_vector_aligned@std@@YAXAEAPEAXAEA_K@Z DD 010401H
	DD	04204H
xdata	ENDS
;	COMDAT xdata
xdata	SEGMENT
$unwind$?GetBaseTypeLength@?$ChTraitsCRT@_W@ATL@@SAHPEBD@Z DD 010401H
	DD	06204H
xdata	ENDS
;	COMDAT xdata
xdata	SEGMENT
$unwind$?ConvertToBaseType@?$ChTraitsCRT@_W@ATL@@SAXPEA_WHPEBDH@Z DD 010401H
	DD	06204H
xdata	ENDS
;	COMDAT xdata
xdata	SEGMENT
$unwind$?now@system_clock@chrono@std@@SA?AV?$time_point@Usystem_clock@chrono@std@@V?$duration@_JU?$ratio@$00$0JIJGIA@@std@@@23@@23@XZ DD 020601H
	DD	030023206H
xdata	ENDS
;	COMDAT xdata
xdata	SEGMENT
$unwind$wWinMain DD 092819H
	DD	02a641aH
	DD	029341aH
	DD	024011aH
	DD	0700ce00eH
	DD	0500bH
	DD	imagerel __GSHandlerCheck
	DD	0110H
xdata	ENDS
;	COMDAT xdata
xdata	SEGMENT
$unwind$?MyRegisterClass@@YAGPEAUHINSTANCE__@@@Z DD 021619H
	DD	0110107H
	DD	imagerel __GSHandlerCheck
	DD	070H
xdata	ENDS
;	COMDAT xdata
xdata	SEGMENT
$unwind$?InitInstance@@YAHPEAUHINSTANCE__@@H@Z DD 040c01H
	DD	0e340cH
	DD	07008b20cH
xdata	ENDS
;	COMDAT xdata
xdata	SEGMENT
$ip2state$?WndProc@@YA_JPEAUHWND__@@I_K_J@Z DD imagerel ?WndProc@@YA_JPEAUHWND__@@I_K_J@Z+214
	DD	0ffffffffH
	DD	imagerel ?WndProc@@YA_JPEAUHWND__@@I_K_J@Z+251
	DD	00H
	DD	imagerel ?WndProc@@YA_JPEAUHWND__@@I_K_J@Z+382
	DD	01H
	DD	imagerel ?WndProc@@YA_JPEAUHWND__@@I_K_J@Z+426
	DD	0ffffffffH
xdata	ENDS
;	COMDAT xdata
xdata	SEGMENT
$stateUnwindMap$?WndProc@@YA_JPEAUHWND__@@I_K_J@Z DD 0ffffffffH
	DD	imagerel ?dtor$1@?0??WndProc@@YA_JPEAUHWND__@@I_K_J@Z@4HA
	DD	0ffffffffH
	DD	imagerel ?dtor$0@?0??WndProc@@YA_JPEAUHWND__@@I_K_J@Z@4HA
xdata	ENDS
;	COMDAT CONST
CONST	SEGMENT
$cppxdata$?WndProc@@YA_JPEAUHWND__@@I_K_J@Z DD 019930522H
	DD	02H
	DD	imagerel $stateUnwindMap$?WndProc@@YA_JPEAUHWND__@@I_K_J@Z
	DD	00H
	DD	00H
	DD	04H
	DD	imagerel $ip2state$?WndProc@@YA_JPEAUHWND__@@I_K_J@Z
	DD	070H
	DD	00H
	DD	01H
CONST	ENDS
;	COMDAT xdata
xdata	SEGMENT
$unwind$?WndProc@@YA_JPEAUHWND__@@I_K_J@Z DD 042519H
	DD	01f010aH
	DD	030027003H
	DD	imagerel __GSHandlerCheck_EH
	DD	imagerel $cppxdata$?WndProc@@YA_JPEAUHWND__@@I_K_J@Z
	DD	0e2H
xdata	ENDS
;	COMDAT xdata
xdata	SEGMENT
$unwind$?About@@YA_JPEAUHWND__@@I_K_J@Z DD 010401H
	DD	04204H
xdata	ENDS
;	COMDAT xdata
xdata	SEGMENT
$ip2state$?update_status@@YAXXZ DD imagerel ?update_status@@YAXXZ+48
	DD	0ffffffffH
	DD	imagerel ?update_status@@YAXXZ+69
	DD	00H
xdata	ENDS
;	COMDAT xdata
xdata	SEGMENT
$stateUnwindMap$?update_status@@YAXXZ DD 0ffffffffH
	DD	imagerel ?dtor$0@?0??update_status@@YAXXZ@4HA
xdata	ENDS
;	COMDAT CONST
CONST	SEGMENT
$cppxdata$?update_status@@YAXXZ DD 019930522H
	DD	01H
	DD	imagerel $stateUnwindMap$?update_status@@YAXXZ
	DD	00H
	DD	00H
	DD	02H
	DD	imagerel $ip2state$?update_status@@YAXXZ
	DD	040H
	DD	00H
	DD	01H
CONST	ENDS
;	COMDAT xdata
xdata	SEGMENT
$unwind$?update_status@@YAXXZ DD 021e19H
	DD	03002d206H
	DD	imagerel __GSHandlerCheck_EH
	DD	imagerel $cppxdata$?update_status@@YAXXZ
	DD	062H
xdata	ENDS
;	COMDAT xdata
xdata	SEGMENT
$unwind$?dtor$15@?0??get_cpu_info@@YAXXZ@4HA DD 020601H
	DD	050023206H
xdata	ENDS
;	COMDAT xdata
xdata	SEGMENT
$unwind$?dtor$14@?0??get_cpu_info@@YAXXZ@4HA DD 020601H
	DD	050023206H
xdata	ENDS
;	COMDAT xdata
xdata	SEGMENT
$unwind$?dtor$13@?0??get_cpu_info@@YAXXZ@4HA DD 020601H
	DD	050023206H
xdata	ENDS
;	COMDAT xdata
xdata	SEGMENT
$unwind$?dtor$12@?0??get_cpu_info@@YAXXZ@4HA DD 020601H
	DD	050023206H
xdata	ENDS
;	COMDAT xdata
xdata	SEGMENT
$ip2state$?get_cpu_info@@YAXXZ DD imagerel ?get_cpu_info@@YAXXZ+87
	DD	0ffffffffH
	DD	imagerel ?get_cpu_info@@YAXXZ+132
	DD	00H
	DD	imagerel ?get_cpu_info@@YAXXZ+163
	DD	01H
	DD	imagerel ?get_cpu_info@@YAXXZ+340
	DD	05H
	DD	imagerel ?get_cpu_info@@YAXXZ+655
	DD	06H
	DD	imagerel ?get_cpu_info@@YAXXZ+985
	DD	05H
	DD	imagerel ?get_cpu_info@@YAXXZ+1112
	DD	07H
	DD	imagerel ?get_cpu_info@@YAXXZ+1352
	DD	08H
	DD	imagerel ?get_cpu_info@@YAXXZ+1594
	DD	09H
	DD	imagerel ?get_cpu_info@@YAXXZ+1684
	DD	08H
	DD	imagerel ?get_cpu_info@@YAXXZ+1723
	DD	07H
	DD	imagerel ?get_cpu_info@@YAXXZ+1758
	DD	05H
	DD	imagerel ?get_cpu_info@@YAXXZ+1799
	DD	0aH
	DD	imagerel ?get_cpu_info@@YAXXZ+2036
	DD	05H
	DD	imagerel ?get_cpu_info@@YAXXZ+2080
	DD	04H
	DD	imagerel ?get_cpu_info@@YAXXZ+2249
	DD	01H
	DD	imagerel ?get_cpu_info@@YAXXZ+2280
	DD	00H
	DD	imagerel ?get_cpu_info@@YAXXZ+2310
	DD	0ffffffffH
	DD	imagerel ?get_cpu_info@@YAXXZ+2358
	DD	07H
	DD	imagerel ?get_cpu_info@@YAXXZ+2369
	DD	06H
	DD	imagerel ?get_cpu_info@@YAXXZ+2380
	DD	0ffffffffH
	DD	imagerel ?get_cpu_info@@YAXXZ+2391
	DD	00H
	DD	imagerel ?get_cpu_info@@YAXXZ+2402
	DD	01H
	DD	imagerel ?get_cpu_info@@YAXXZ+2413
	DD	05H
	DD	imagerel ?get_cpu_info@@YAXXZ+2435
	DD	06H
	DD	imagerel ?get_cpu_info@@YAXXZ+2457
	DD	07H
	DD	imagerel ?get_cpu_info@@YAXXZ+2479
	DD	08H
	DD	imagerel ?get_cpu_info@@YAXXZ+2501
	DD	0aH
	DD	imagerel ?get_cpu_info@@YAXXZ+2534
	DD	08H
xdata	ENDS
;	COMDAT xdata
xdata	SEGMENT
$stateUnwindMap$?get_cpu_info@@YAXXZ DD 0ffffffffH
	DD	imagerel ?dtor$0@?0??get_cpu_info@@YAXXZ@4HA
	DD	00H
	DD	imagerel ?dtor$1@?0??get_cpu_info@@YAXXZ@4HA
	DD	01H
	DD	imagerel ?dtor$2@?0??get_cpu_info@@YAXXZ@4HA
	DD	02H
	DD	imagerel ?dtor$3@?0??get_cpu_info@@YAXXZ@4HA
	DD	03H
	DD	imagerel ?dtor$4@?0??get_cpu_info@@YAXXZ@4HA
	DD	04H
	DD	imagerel ?dtor$5@?0??get_cpu_info@@YAXXZ@4HA
	DD	05H
	DD	imagerel ?dtor$12@?0??get_cpu_info@@YAXXZ@4HA
	DD	05H
	DD	imagerel ?dtor$13@?0??get_cpu_info@@YAXXZ@4HA
	DD	07H
	DD	imagerel ?dtor$14@?0??get_cpu_info@@YAXXZ@4HA
	DD	08H
	DD	imagerel ?dtor$9@?0??get_cpu_info@@YAXXZ@4HA
	DD	05H
	DD	imagerel ?dtor$15@?0??get_cpu_info@@YAXXZ@4HA
xdata	ENDS
;	COMDAT CONST
CONST	SEGMENT
$cppxdata$?get_cpu_info@@YAXXZ DD 019930522H
	DD	0bH
	DD	imagerel $stateUnwindMap$?get_cpu_info@@YAXXZ
	DD	00H
	DD	00H
	DD	01dH
	DD	imagerel $ip2state$?get_cpu_info@@YAXXZ
	DD	070H
	DD	00H
	DD	01H
CONST	ENDS
;	COMDAT xdata
xdata	SEGMENT
$unwind$?get_cpu_info@@YAXXZ DD 0d3b19H
	DD	034742dH
	DD	0336429H
	DD	0323425H
	DD	02c0118H
	DD	0e00af00cH
	DD	0c006d008H
	DD	05004H
	DD	imagerel __GSHandlerCheck_EH
	DD	imagerel $cppxdata$?get_cpu_info@@YAXXZ
	DD	0152H
xdata	ENDS
;	COMDAT xdata
xdata	SEGMENT
$ip2state$?get_cpu_status@@YAXXZ DD imagerel ?get_cpu_status@@YAXXZ+115
	DD	0ffffffffH
	DD	imagerel ?get_cpu_status@@YAXXZ+136
	DD	00H
xdata	ENDS
;	COMDAT xdata
xdata	SEGMENT
$stateUnwindMap$?get_cpu_status@@YAXXZ DD 0ffffffffH
	DD	imagerel ?dtor$0@?0??get_cpu_status@@YAXXZ@4HA
xdata	ENDS
;	COMDAT CONST
CONST	SEGMENT
$cppxdata$?get_cpu_status@@YAXXZ DD 019930522H
	DD	01H
	DD	imagerel $stateUnwindMap$?get_cpu_status@@YAXXZ
	DD	00H
	DD	00H
	DD	02H
	DD	imagerel $ip2state$?get_cpu_status@@YAXXZ
	DD	030H
	DD	00H
	DD	01H
CONST	ENDS
;	COMDAT xdata
xdata	SEGMENT
$unwind$?get_cpu_status@@YAXXZ DD 0d3a19H
	DD	08a82bH
	DD	099826H
	DD	0a8821H
	DD	0b781cH
	DD	0c6818H
	DD	01a010bH
	DD	03004H
	DD	imagerel __GSHandlerCheck_EH
	DD	imagerel $cppxdata$?get_cpu_status@@YAXXZ
	DD	072H
xdata	ENDS
;	COMDAT xdata
xdata	SEGMENT
$unwind$?GetCPULoad@@YAMXZ DD 011319H
	DD	08204H
	DD	imagerel __GSHandlerCheck
	DD	038H
xdata	ENDS
;	COMDAT xdata
xdata	SEGMENT
$unwind$??1?$vector@V?$array@H$03@std@@V?$allocator@V?$array@H$03@std@@@2@@std@@QEAA@XZ DD 020601H
	DD	030023206H
xdata	ENDS
;	COMDAT xdata
xdata	SEGMENT
$unwind$?dtor$0@?0???HATL@@YA?AV?$CStringT@_WV?$StrTraitATL@_WV?$ChTraitsCRT@_W@ATL@@@ATL@@@0@AEBV10@PEB_W@Z@4HA DD 020601H
	DD	050023206H
xdata	ENDS
;	COMDAT xdata
xdata	SEGMENT
$ip2state$??HATL@@YA?AV?$CStringT@_WV?$StrTraitATL@_WV?$ChTraitsCRT@_W@ATL@@@ATL@@@0@AEBV10@PEB_W@Z DD imagerel ??HATL@@YA?AV?$CStringT@_WV?$StrTraitATL@_WV?$ChTraitsCRT@_W@ATL@@@ATL@@@0@AEBV10@PEB_W@Z+77
	DD	00H
xdata	ENDS
;	COMDAT xdata
xdata	SEGMENT
$stateUnwindMap$??HATL@@YA?AV?$CStringT@_WV?$StrTraitATL@_WV?$ChTraitsCRT@_W@ATL@@@ATL@@@0@AEBV10@PEB_W@Z DD 0ffffffffH
	DD	imagerel ?dtor$0@?0???HATL@@YA?AV?$CStringT@_WV?$StrTraitATL@_WV?$ChTraitsCRT@_W@ATL@@@ATL@@@0@AEBV10@PEB_W@Z@4HA
xdata	ENDS
;	COMDAT CONST
CONST	SEGMENT
$cppxdata$??HATL@@YA?AV?$CStringT@_WV?$StrTraitATL@_WV?$ChTraitsCRT@_W@ATL@@@ATL@@@0@AEBV10@PEB_W@Z DD 019930522H
	DD	01H
	DD	imagerel $stateUnwindMap$??HATL@@YA?AV?$CStringT@_WV?$StrTraitATL@_WV?$ChTraitsCRT@_W@ATL@@@ATL@@@0@AEBV10@PEB_W@Z
	DD	00H
	DD	00H
	DD	01H
	DD	imagerel $ip2state$??HATL@@YA?AV?$CStringT@_WV?$StrTraitATL@_WV?$ChTraitsCRT@_W@ATL@@@ATL@@@0@AEBV10@PEB_W@Z
	DD	028H
	DD	00H
	DD	01H
CONST	ENDS
;	COMDAT xdata
xdata	SEGMENT
$unwind$??HATL@@YA?AV?$CStringT@_WV?$StrTraitATL@_WV?$ChTraitsCRT@_W@ATL@@@ATL@@@0@AEBV10@PEB_W@Z DD 0c2a11H
	DD	0f642aH
	DD	0e5425H
	DD	0d3420H
	DD	0f00e5212H
	DD	0d00ae00cH
	DD	07006c008H
	DD	imagerel __CxxFrameHandler3
	DD	imagerel $cppxdata$??HATL@@YA?AV?$CStringT@_WV?$StrTraitATL@_WV?$ChTraitsCRT@_W@ATL@@@ATL@@@0@AEBV10@PEB_W@Z
xdata	ENDS
;	COMDAT xdata
xdata	SEGMENT
$unwind$?dtor$0@?0???HATL@@YA?AV?$CStringT@_WV?$StrTraitATL@_WV?$ChTraitsCRT@_W@ATL@@@ATL@@@0@AEBV10@0@Z@4HA DD 020601H
	DD	050023206H
xdata	ENDS
;	COMDAT xdata
xdata	SEGMENT
$ip2state$??HATL@@YA?AV?$CStringT@_WV?$StrTraitATL@_WV?$ChTraitsCRT@_W@ATL@@@ATL@@@0@AEBV10@0@Z DD imagerel ??HATL@@YA?AV?$CStringT@_WV?$StrTraitATL@_WV?$ChTraitsCRT@_W@ATL@@@ATL@@@0@AEBV10@0@Z+75
	DD	00H
xdata	ENDS
;	COMDAT xdata
xdata	SEGMENT
$stateUnwindMap$??HATL@@YA?AV?$CStringT@_WV?$StrTraitATL@_WV?$ChTraitsCRT@_W@ATL@@@ATL@@@0@AEBV10@0@Z DD 0ffffffffH
	DD	imagerel ?dtor$0@?0???HATL@@YA?AV?$CStringT@_WV?$StrTraitATL@_WV?$ChTraitsCRT@_W@ATL@@@ATL@@@0@AEBV10@0@Z@4HA
xdata	ENDS
;	COMDAT CONST
CONST	SEGMENT
$cppxdata$??HATL@@YA?AV?$CStringT@_WV?$StrTraitATL@_WV?$ChTraitsCRT@_W@ATL@@@ATL@@@0@AEBV10@0@Z DD 019930522H
	DD	01H
	DD	imagerel $stateUnwindMap$??HATL@@YA?AV?$CStringT@_WV?$StrTraitATL@_WV?$ChTraitsCRT@_W@ATL@@@ATL@@@0@AEBV10@0@Z
	DD	00H
	DD	00H
	DD	01H
	DD	imagerel $ip2state$??HATL@@YA?AV?$CStringT@_WV?$StrTraitATL@_WV?$ChTraitsCRT@_W@ATL@@@ATL@@@0@AEBV10@0@Z
	DD	028H
	DD	00H
	DD	01H
CONST	ENDS
;	COMDAT xdata
xdata	SEGMENT
$unwind$??HATL@@YA?AV?$CStringT@_WV?$StrTraitATL@_WV?$ChTraitsCRT@_W@ATL@@@ATL@@@0@AEBV10@0@Z DD 0c2a11H
	DD	0f642aH
	DD	0e5425H
	DD	0d3420H
	DD	0f00e5212H
	DD	0d00ae00cH
	DD	07006c008H
	DD	imagerel __CxxFrameHandler3
	DD	imagerel $cppxdata$??HATL@@YA?AV?$CStringT@_WV?$StrTraitATL@_WV?$ChTraitsCRT@_W@ATL@@@ATL@@@0@AEBV10@0@Z
xdata	ENDS
;	COMDAT xdata
xdata	SEGMENT
$unwind$??4?$CStringT@_WV?$StrTraitATL@_WV?$ChTraitsCRT@_W@ATL@@@ATL@@@ATL@@QEAAAEAV01@PEBD@Z DD 0a1a01H
	DD	0b741aH
	DD	0a641aH
	DD	09541aH
	DD	08341aH
	DD	0e016521aH
xdata	ENDS
;	COMDAT xdata
xdata	SEGMENT
$chain$1$??4?$CStringT@_WV?$StrTraitATL@_WV?$ChTraitsCRT@_W@ATL@@@ATL@@@ATL@@QEAAAEAV01@AEBV01@@Z DD 021H
	DD	imagerel $LN30
	DD	imagerel $LN30+46
	DD	imagerel $unwind$??4?$CStringT@_WV?$StrTraitATL@_WV?$ChTraitsCRT@_W@ATL@@@ATL@@@ATL@@QEAAAEAV01@AEBV01@@Z
xdata	ENDS
;	COMDAT xdata
xdata	SEGMENT
$chain$0$??4?$CStringT@_WV?$StrTraitATL@_WV?$ChTraitsCRT@_W@ATL@@@ATL@@@ATL@@QEAAAEAV01@AEBV01@@Z DD 020521H
	DD	066405H
	DD	imagerel $LN30
	DD	imagerel $LN30+46
	DD	imagerel $unwind$??4?$CStringT@_WV?$StrTraitATL@_WV?$ChTraitsCRT@_W@ATL@@@ATL@@@ATL@@QEAAAEAV01@AEBV01@@Z
xdata	ENDS
;	COMDAT xdata
xdata	SEGMENT
$unwind$??4?$CStringT@_WV?$StrTraitATL@_WV?$ChTraitsCRT@_W@ATL@@@ATL@@@ATL@@QEAAAEAV01@AEBV01@@Z DD 040a01H
	DD	07340aH
	DD	07006320aH
xdata	ENDS
;	COMDAT xdata
xdata	SEGMENT
$unwind$??1?$basic_string@DU?$char_traits@D@std@@V?$allocator@D@2@@std@@QEAA@XZ DD 020601H
	DD	030023206H
xdata	ENDS
;	COMDAT xdata
xdata	SEGMENT
$unwind$?_Tidy@?$vector@V?$array@H$03@std@@V?$allocator@V?$array@H$03@std@@@2@@std@@AEAAXXZ DD 020601H
	DD	030023206H
xdata	ENDS
;	COMDAT xdata
xdata	SEGMENT
$unwind$?GetManager@?$CStringT@_WV?$StrTraitATL@_WV?$ChTraitsCRT@_W@ATL@@@ATL@@@ATL@@QEBAPEAUIAtlStringMgr@2@XZ DD 010401H
	DD	04204H
xdata	ENDS
;	COMDAT xdata
xdata	SEGMENT
$unwind$??0?$CStringT@_WV?$StrTraitATL@_WV?$ChTraitsCRT@_W@ATL@@@ATL@@@ATL@@QEAA@AEBV01@@Z DD 020601H
	DD	030023206H
xdata	ENDS
;	COMDAT xdata
xdata	SEGMENT
$unwind$??0?$CStringT@_WV?$StrTraitATL@_WV?$ChTraitsCRT@_W@ATL@@@ATL@@@ATL@@QEAA@PEAUIAtlStringMgr@1@@Z DD 020601H
	DD	030023206H
xdata	ENDS
;	COMDAT xdata
xdata	SEGMENT
$chain$2$?Concatenate@?$CSimpleStringT@_W$0A@@ATL@@KAXAEAV12@PEB_WH1H@Z DD 021H
	DD	imagerel $LN26
	DD	imagerel $LN26+46
	DD	imagerel $unwind$?Concatenate@?$CSimpleStringT@_W$0A@@ATL@@KAXAEAV12@PEB_WH1H@Z
xdata	ENDS
;	COMDAT xdata
xdata	SEGMENT
$chain$1$?Concatenate@?$CSimpleStringT@_W$0A@@ATL@@KAXAEAV12@PEB_WH1H@Z DD 041021H
	DD	0be410H
	DD	0a3405H
	DD	imagerel $LN26
	DD	imagerel $LN26+46
	DD	imagerel $unwind$?Concatenate@?$CSimpleStringT@_W$0A@@ATL@@KAXAEAV12@PEB_WH1H@Z
xdata	ENDS
;	COMDAT xdata
xdata	SEGMENT
$unwind$?Concatenate@?$CSimpleStringT@_W$0A@@ATL@@KAXAEAV12@PEB_WH1H@Z DD 081101H
	DD	0c5411H
	DD	0f00d3211H
	DD	0c009d00bH
	DD	060067007H
xdata	ENDS
;	COMDAT xdata
xdata	SEGMENT
$unwind$?Empty@?$CSimpleStringT@_W$0A@@ATL@@QEAAXXZ DD 040a01H
	DD	06340aH
	DD	07006320aH
xdata	ENDS
;	COMDAT xdata
xdata	SEGMENT
$chain$1$??4?$CSimpleStringT@_W$0A@@ATL@@QEAAAEAV01@AEBV01@@Z DD 021H
	DD	imagerel $LN28
	DD	imagerel $LN28+46
	DD	imagerel $unwind$??4?$CSimpleStringT@_W$0A@@ATL@@QEAAAEAV01@AEBV01@@Z
xdata	ENDS
;	COMDAT xdata
xdata	SEGMENT
$chain$0$??4?$CSimpleStringT@_W$0A@@ATL@@QEAAAEAV01@AEBV01@@Z DD 020521H
	DD	066405H
	DD	imagerel $LN28
	DD	imagerel $LN28+46
	DD	imagerel $unwind$??4?$CSimpleStringT@_W$0A@@ATL@@QEAAAEAV01@AEBV01@@Z
xdata	ENDS
;	COMDAT xdata
xdata	SEGMENT
$unwind$??4?$CSimpleStringT@_W$0A@@ATL@@QEAAAEAV01@AEBV01@@Z DD 040a01H
	DD	07340aH
	DD	07006320aH
xdata	ENDS
;	COMDAT xdata
xdata	SEGMENT
$unwind$?_Tidy_deallocate@?$basic_string@DU?$char_traits@D@std@@V?$allocator@D@2@@std@@QEAAXXZ DD 020601H
	DD	030023206H
xdata	ENDS
;	COMDAT xdata
xdata	SEGMENT
$chain$3$?assign@?$basic_string@DU?$char_traits@D@std@@V?$allocator@D@2@@std@@QEAAAEAV12@QEBD_K@Z DD 021H
	DD	imagerel $LN138
	DD	imagerel $LN138+138
	DD	imagerel $unwind$?assign@?$basic_string@DU?$char_traits@D@std@@V?$allocator@D@2@@std@@QEAAAEAV12@QEBD_K@Z
xdata	ENDS
;	COMDAT xdata
xdata	SEGMENT
$chain$2$?assign@?$basic_string@DU?$char_traits@D@std@@V?$allocator@D@2@@std@@QEAAAEAV12@QEBD_K@Z DD 020021H
	DD	0d5400H
	DD	imagerel $LN138
	DD	imagerel $LN138+138
	DD	imagerel $unwind$?assign@?$basic_string@DU?$char_traits@D@std@@V?$allocator@D@2@@std@@QEAAAEAV12@QEBD_K@Z
xdata	ENDS
;	COMDAT xdata
xdata	SEGMENT
$chain$0$?assign@?$basic_string@DU?$char_traits@D@std@@V?$allocator@D@2@@std@@QEAAAEAV12@QEBD_K@Z DD 020521H
	DD	0d5405H
	DD	imagerel $LN138
	DD	imagerel $LN138+138
	DD	imagerel $unwind$?assign@?$basic_string@DU?$char_traits@D@std@@V?$allocator@D@2@@std@@QEAAAEAV12@QEBD_K@Z
xdata	ENDS
;	COMDAT xdata
xdata	SEGMENT
$unwind$?assign@?$basic_string@DU?$char_traits@D@std@@V?$allocator@D@2@@std@@QEAAAEAV12@QEBD_K@Z DD 060c01H
	DD	0f008320cH
	DD	07004e006H
	DD	030026003H
xdata	ENDS
;	COMDAT xdata
xdata	SEGMENT
$unwind$??R<lambda_66f57f934f28d61049862f64df852ff0>@@QEBAXQEAD_KQEBD@Z DD 040a01H
	DD	06340aH
	DD	07006320aH
xdata	ENDS
;	COMDAT xdata
xdata	SEGMENT
$unwind$?allocate@?$allocator@D@std@@QEAAPEAD_K@Z DD 010401H
	DD	04204H
xdata	ENDS
;	COMDAT xdata
xdata	SEGMENT
$unwind$?deallocate@?$allocator@D@std@@QEAAXQEAD_K@Z DD 010401H
	DD	04204H
xdata	ENDS
;	COMDAT xdata
xdata	SEGMENT
$unwind$?deallocate@?$allocator@V?$array@H$03@std@@@std@@QEAAXQEAV?$array@H$03@2@_K@Z DD 010401H
	DD	04204H
xdata	ENDS
;	COMDAT xdata
xdata	SEGMENT
$unwind$?CloneData@?$CSimpleStringT@_W$0A@@ATL@@CAPEAUCStringData@2@PEAU32@@Z DD 040a01H
	DD	06340aH
	DD	07006320aH
xdata	ENDS
;	COMDAT xdata
xdata	SEGMENT
$unwind$?SetString@?$CSimpleStringT@_W$0A@@ATL@@QEAAXPEB_WH@Z DD 0a1a01H
	DD	09741aH
	DD	08641aH
	DD	07541aH
	DD	06341aH
	DD	0e016321aH
xdata	ENDS
;	COMDAT xdata
xdata	SEGMENT
$unwind$??0?$CSimpleStringT@_W$0A@@ATL@@QEAA@AEBV01@@Z DD 020601H
	DD	030023206H
xdata	ENDS
;	COMDAT xdata
xdata	SEGMENT
$unwind$?CopyCharsOverlapped@?$CSimpleStringT@_W$0A@@ATL@@SAXPEA_W_KPEB_WH@Z DD 010401H
	DD	04204H
xdata	ENDS
;	COMDAT xdata
xdata	SEGMENT
$ip2state$??$?0A6AXXZ$$VX@thread@std@@QEAA@A6AXXZ@Z DD imagerel ??$?0A6AXXZ$$VX@thread@std@@QEAA@A6AXXZ@Z+31
	DD	0ffffffffH
	DD	imagerel ??$?0A6AXXZ$$VX@thread@std@@QEAA@A6AXXZ@Z+52
	DD	00H
xdata	ENDS
;	COMDAT xdata
xdata	SEGMENT
$stateUnwindMap$??$?0A6AXXZ$$VX@thread@std@@QEAA@A6AXXZ@Z DD 0ffffffffH
	DD	imagerel ?dtor$0@?0???$?0A6AXXZ$$VX@thread@std@@QEAA@A6AXXZ@Z@4HA
xdata	ENDS
;	COMDAT CONST
CONST	SEGMENT
$cppxdata$??$?0A6AXXZ$$VX@thread@std@@QEAA@A6AXXZ@Z DD 019930522H
	DD	01H
	DD	imagerel $stateUnwindMap$??$?0A6AXXZ$$VX@thread@std@@QEAA@A6AXXZ@Z
	DD	00H
	DD	00H
	DD	02H
	DD	imagerel $ip2state$??$?0A6AXXZ$$VX@thread@std@@QEAA@A6AXXZ@Z
	DD	028H
	DD	00H
	DD	01H
CONST	ENDS
;	COMDAT xdata
xdata	SEGMENT
$unwind$??$?0A6AXXZ$$VX@thread@std@@QEAA@A6AXXZ@Z DD 041411H
	DD	093414H
	DD	070025206H
	DD	imagerel __CxxFrameHandler3
	DD	imagerel $cppxdata$??$?0A6AXXZ$$VX@thread@std@@QEAA@A6AXXZ@Z
xdata	ENDS
;	COMDAT xdata
xdata	SEGMENT
$unwind$??$sleep_for@_JU?$ratio@$00$00@std@@@this_thread@std@@YAXAEBV?$duration@_JU?$ratio@$00$00@std@@@chrono@1@@Z DD 021519H
	DD	030027206H
	DD	imagerel __GSHandlerCheck
	DD	030H
xdata	ENDS
;	COMDAT xdata
xdata	SEGMENT
$chain$4$??$_Emplace_reallocate@AEBV?$array@H$03@std@@@?$vector@V?$array@H$03@std@@V?$allocator@V?$array@H$03@std@@@2@@std@@QEAAPEAV?$array@H$03@1@QEAV21@AEBV21@@Z DD 021H
	DD	imagerel $LN337
	DD	imagerel $LN337+70
	DD	imagerel $unwind$??$_Emplace_reallocate@AEBV?$array@H$03@std@@@?$vector@V?$array@H$03@std@@V?$allocator@V?$array@H$03@std@@@2@@std@@QEAAPEAV?$array@H$03@1@QEAV21@AEBV21@@Z
xdata	ENDS
;	COMDAT xdata
xdata	SEGMENT
$chain$3$??$_Emplace_reallocate@AEBV?$array@H$03@std@@@?$vector@V?$array@H$03@std@@V?$allocator@V?$array@H$03@std@@@2@@std@@QEAAPEAV?$array@H$03@1@QEAV21@AEBV21@@Z DD 040021H
	DD	0df400H
	DD	0c3400H
	DD	imagerel $LN337
	DD	imagerel $LN337+70
	DD	imagerel $unwind$??$_Emplace_reallocate@AEBV?$array@H$03@std@@@?$vector@V?$array@H$03@std@@V?$allocator@V?$array@H$03@std@@@2@@std@@QEAAPEAV?$array@H$03@1@QEAV21@AEBV21@@Z
xdata	ENDS
;	COMDAT xdata
xdata	SEGMENT
$chain$1$??$_Emplace_reallocate@AEBV?$array@H$03@std@@@?$vector@V?$array@H$03@std@@V?$allocator@V?$array@H$03@std@@@2@@std@@QEAAPEAV?$array@H$03@1@QEAV21@AEBV21@@Z DD 043221H
	DD	0c3432H
	DD	0df405H
	DD	imagerel $LN337
	DD	imagerel $LN337+70
	DD	imagerel $unwind$??$_Emplace_reallocate@AEBV?$array@H$03@std@@@?$vector@V?$array@H$03@std@@V?$allocator@V?$array@H$03@std@@@2@@std@@QEAAPEAV?$array@H$03@1@QEAV21@AEBV21@@Z
xdata	ENDS
;	COMDAT xdata
xdata	SEGMENT
$unwind$??$_Emplace_reallocate@AEBV?$array@H$03@std@@@?$vector@V?$array@H$03@std@@V?$allocator@V?$array@H$03@std@@@2@@std@@QEAAPEAV?$array@H$03@1@QEAV21@AEBV21@@Z DD 060c01H
	DD	0e008320cH
	DD	07004c006H
	DD	050026003H
xdata	ENDS
;	COMDAT xdata
xdata	SEGMENT
$chain$4$??$_Reallocate_for@V<lambda_66f57f934f28d61049862f64df852ff0>@@PEBD@?$basic_string@DU?$char_traits@D@std@@V?$allocator@D@2@@std@@QEAAAEAV01@_KV<lambda_66f57f934f28d61049862f64df852ff0>@@PEBD@Z DD 021H
	DD	imagerel ??$_Reallocate_for@V<lambda_66f57f934f28d61049862f64df852ff0>@@PEBD@?$basic_string@DU?$char_traits@D@std@@V?$allocator@D@2@@std@@QEAAAEAV01@_KV<lambda_66f57f934f28d61049862f64df852ff0>@@PEBD@Z
	DD	imagerel ??$_Reallocate_for@V<lambda_66f57f934f28d61049862f64df852ff0>@@PEBD@?$basic_string@DU?$char_traits@D@std@@V?$allocator@D@2@@std@@QEAAAEAV01@_KV<lambda_66f57f934f28d61049862f64df852ff0>@@PEBD@Z+39
	DD	imagerel $unwind$??$_Reallocate_for@V<lambda_66f57f934f28d61049862f64df852ff0>@@PEBD@?$basic_string@DU?$char_traits@D@std@@V?$allocator@D@2@@std@@QEAAAEAV01@_KV<lambda_66f57f934f28d61049862f64df852ff0>@@PEBD@Z
xdata	ENDS
;	COMDAT xdata
xdata	SEGMENT
$chain$3$??$_Reallocate_for@V<lambda_66f57f934f28d61049862f64df852ff0>@@PEBD@?$basic_string@DU?$char_traits@D@std@@V?$allocator@D@2@@std@@QEAAAEAV01@_KV<lambda_66f57f934f28d61049862f64df852ff0>@@PEBD@Z DD 040021H
	DD	047400H
	DD	0c5400H
	DD	imagerel ??$_Reallocate_for@V<lambda_66f57f934f28d61049862f64df852ff0>@@PEBD@?$basic_string@DU?$char_traits@D@std@@V?$allocator@D@2@@std@@QEAAAEAV01@_KV<lambda_66f57f934f28d61049862f64df852ff0>@@PEBD@Z
	DD	imagerel ??$_Reallocate_for@V<lambda_66f57f934f28d61049862f64df852ff0>@@PEBD@?$basic_string@DU?$char_traits@D@std@@V?$allocator@D@2@@std@@QEAAAEAV01@_KV<lambda_66f57f934f28d61049862f64df852ff0>@@PEBD@Z+39
	DD	imagerel $unwind$??$_Reallocate_for@V<lambda_66f57f934f28d61049862f64df852ff0>@@PEBD@?$basic_string@DU?$char_traits@D@std@@V?$allocator@D@2@@std@@QEAAAEAV01@_KV<lambda_66f57f934f28d61049862f64df852ff0>@@PEBD@Z
xdata	ENDS
;	COMDAT xdata
xdata	SEGMENT
$chain$1$??$_Reallocate_for@V<lambda_66f57f934f28d61049862f64df852ff0>@@PEBD@?$basic_string@DU?$char_traits@D@std@@V?$allocator@D@2@@std@@QEAAAEAV01@_KV<lambda_66f57f934f28d61049862f64df852ff0>@@PEBD@Z DD 043c21H
	DD	04743cH
	DD	0c5405H
	DD	imagerel ??$_Reallocate_for@V<lambda_66f57f934f28d61049862f64df852ff0>@@PEBD@?$basic_string@DU?$char_traits@D@std@@V?$allocator@D@2@@std@@QEAAAEAV01@_KV<lambda_66f57f934f28d61049862f64df852ff0>@@PEBD@Z
	DD	imagerel ??$_Reallocate_for@V<lambda_66f57f934f28d61049862f64df852ff0>@@PEBD@?$basic_string@DU?$char_traits@D@std@@V?$allocator@D@2@@std@@QEAAAEAV01@_KV<lambda_66f57f934f28d61049862f64df852ff0>@@PEBD@Z+39
	DD	imagerel $unwind$??$_Reallocate_for@V<lambda_66f57f934f28d61049862f64df852ff0>@@PEBD@?$basic_string@DU?$char_traits@D@std@@V?$allocator@D@2@@std@@QEAAAEAV01@_KV<lambda_66f57f934f28d61049862f64df852ff0>@@PEBD@Z
xdata	ENDS
;	COMDAT xdata
xdata	SEGMENT
$unwind$??$_Reallocate_for@V<lambda_66f57f934f28d61049862f64df852ff0>@@PEBD@?$basic_string@DU?$char_traits@D@std@@V?$allocator@D@2@@std@@QEAAAEAV01@_KV<lambda_66f57f934f28d61049862f64df852ff0>@@PEBD@Z DD 050b01H
	DD	0f007420bH
	DD	06003e005H
	DD	03002H
xdata	ENDS
;	COMDAT xdata
xdata	SEGMENT
$unwind$??$_Allocate@$0BA@U_Default_allocate_traits@std@@$0A@@std@@YAPEAX_K@Z DD 010401H
	DD	04204H
xdata	ENDS
;	COMDAT xdata
xdata	SEGMENT
$unwind$??$_Deallocate@$0BA@$0A@@std@@YAXPEAX_K@Z DD 010401H
	DD	04204H
xdata	ENDS
;	COMDAT xdata
xdata	SEGMENT
$unwind$?_Xlength@?$vector@V?$array@H$03@std@@V?$allocator@V?$array@H$03@std@@@2@@std@@CAXXZ DD 010401H
	DD	04204H
xdata	ENDS
;	COMDAT xdata
xdata	SEGMENT
$unwind$?_Change_array@?$vector@V?$array@H$03@std@@V?$allocator@V?$array@H$03@std@@@2@@std@@AEAAXQEAV?$array@H$03@2@_K1@Z DD 081401H
	DD	096414H
	DD	085414H
	DD	073414H
	DD	070103214H
xdata	ENDS
;	COMDAT xdata
xdata	SEGMENT
$unwind$?_Umove_if_noexcept@?$vector@V?$array@H$03@std@@V?$allocator@V?$array@H$03@std@@@2@@std@@AEAAXPEAV?$array@H$03@2@00@Z DD 011319H
	DD	06204H
	DD	imagerel __GSHandlerCheck
	DD	020H
xdata	ENDS
;	COMDAT xdata
xdata	SEGMENT
$unwind$?_Umove@?$vector@V?$array@H$03@std@@V?$allocator@V?$array@H$03@std@@@2@@std@@AEAAPEAV?$array@H$03@2@PEAV32@00@Z DD 040a01H
	DD	06340aH
	DD	07006320aH
xdata	ENDS
;	COMDAT xdata
xdata	SEGMENT
$unwind$?allocate@?$allocator@V?$array@H$03@std@@@std@@QEAAPEAV?$array@H$03@2@_K@Z DD 010401H
	DD	04204H
xdata	ENDS
;	COMDAT xdata
xdata	SEGMENT
$unwind$?_Xlen@?$basic_string@DU?$char_traits@D@std@@V?$allocator@D@2@@std@@SAXXZ DD 010401H
	DD	04204H
xdata	ENDS
;	COMDAT xdata
xdata	SEGMENT
$unwind$??$make_unique@V?$tuple@P6AXXZ@std@@A6AXXZ$0A@@std@@YA?AV?$unique_ptr@V?$tuple@P6AXXZ@std@@U?$default_delete@V?$tuple@P6AXXZ@std@@@2@@0@A6AXXZ@Z DD 040a01H
	DD	09340aH
	DD	07006520aH
xdata	ENDS
;	COMDAT xdata
xdata	SEGMENT
$ip2state$??$_Launch@V?$unique_ptr@V?$tuple@P6AXXZ@std@@U?$default_delete@V?$tuple@P6AXXZ@std@@@2@@std@@@std@@YAXPEAU_Thrd_imp_t@@$$QEAV?$unique_ptr@V?$tuple@P6AXXZ@std@@U?$default_delete@V?$tuple@P6AXXZ@std@@@2@@0@@Z DD imagerel ??$_Launch@V?$unique_ptr@V?$tuple@P6AXXZ@std@@U?$default_delete@V?$tuple@P6AXXZ@std@@@2@@std@@@std@@YAXPEAU_Thrd_imp_t@@$$QEAV?$unique_ptr@V?$tuple@P6AXXZ@std@@U?$default_delete@V?$tuple@P6AXXZ@std@@@2@@0@@Z+88
	DD	0ffffffffH
	DD	imagerel ??$_Launch@V?$unique_ptr@V?$tuple@P6AXXZ@std@@U?$default_delete@V?$tuple@P6AXXZ@std@@@2@@std@@@std@@YAXPEAU_Thrd_imp_t@@$$QEAV?$unique_ptr@V?$tuple@P6AXXZ@std@@U?$default_delete@V?$tuple@P6AXXZ@std@@@2@@0@@Z+135
	DD	00H
	DD	imagerel ??$_Launch@V?$unique_ptr@V?$tuple@P6AXXZ@std@@U?$default_delete@V?$tuple@P6AXXZ@std@@@2@@std@@@std@@YAXPEAU_Thrd_imp_t@@$$QEAV?$unique_ptr@V?$tuple@P6AXXZ@std@@U?$default_delete@V?$tuple@P6AXXZ@std@@@2@@0@@Z+173
	DD	01H
	DD	imagerel ??$_Launch@V?$unique_ptr@V?$tuple@P6AXXZ@std@@U?$default_delete@V?$tuple@P6AXXZ@std@@@2@@std@@@std@@YAXPEAU_Thrd_imp_t@@$$QEAV?$unique_ptr@V?$tuple@P6AXXZ@std@@U?$default_delete@V?$tuple@P6AXXZ@std@@@2@@0@@Z+237
	DD	02H
	DD	imagerel ??$_Launch@V?$unique_ptr@V?$tuple@P6AXXZ@std@@U?$default_delete@V?$tuple@P6AXXZ@std@@@2@@std@@@std@@YAXPEAU_Thrd_imp_t@@$$QEAV?$unique_ptr@V?$tuple@P6AXXZ@std@@U?$default_delete@V?$tuple@P6AXXZ@std@@@2@@0@@Z+288
	DD	0ffffffffH
	DD	imagerel ??$_Launch@V?$unique_ptr@V?$tuple@P6AXXZ@std@@U?$default_delete@V?$tuple@P6AXXZ@std@@@2@@std@@@std@@YAXPEAU_Thrd_imp_t@@$$QEAV?$unique_ptr@V?$tuple@P6AXXZ@std@@U?$default_delete@V?$tuple@P6AXXZ@std@@@2@@0@@Z+331
	DD	03H
	DD	imagerel ??$_Launch@V?$unique_ptr@V?$tuple@P6AXXZ@std@@U?$default_delete@V?$tuple@P6AXXZ@std@@@2@@std@@@std@@YAXPEAU_Thrd_imp_t@@$$QEAV?$unique_ptr@V?$tuple@P6AXXZ@std@@U?$default_delete@V?$tuple@P6AXXZ@std@@@2@@0@@Z+363
	DD	0ffffffffH
xdata	ENDS
;	COMDAT xdata
xdata	SEGMENT
$stateUnwindMap$??$_Launch@V?$unique_ptr@V?$tuple@P6AXXZ@std@@U?$default_delete@V?$tuple@P6AXXZ@std@@@2@@std@@@std@@YAXPEAU_Thrd_imp_t@@$$QEAV?$unique_ptr@V?$tuple@P6AXXZ@std@@U?$default_delete@V?$tuple@P6AXXZ@std@@@2@@0@@Z DD 0ffffffffH
	DD	imagerel ?dtor$3@?0???$_Launch@V?$unique_ptr@V?$tuple@P6AXXZ@std@@U?$default_delete@V?$tuple@P6AXXZ@std@@@2@@std@@@std@@YAXPEAU_Thrd_imp_t@@$$QEAV?$unique_ptr@V?$tuple@P6AXXZ@std@@U?$default_delete@V?$tuple@P6AXXZ@std@@@2@@0@@Z@4HA
	DD	00H
	DD	imagerel ?dtor$4@?0???$_Launch@V?$unique_ptr@V?$tuple@P6AXXZ@std@@U?$default_delete@V?$tuple@P6AXXZ@std@@@2@@std@@@std@@YAXPEAU_Thrd_imp_t@@$$QEAV?$unique_ptr@V?$tuple@P6AXXZ@std@@U?$default_delete@V?$tuple@P6AXXZ@std@@@2@@0@@Z@4HA
	DD	0ffffffffH
	DD	imagerel ?dtor$0@?0???$_Launch@V?$unique_ptr@V?$tuple@P6AXXZ@std@@U?$default_delete@V?$tuple@P6AXXZ@std@@@2@@std@@@std@@YAXPEAU_Thrd_imp_t@@$$QEAV?$unique_ptr@V?$tuple@P6AXXZ@std@@U?$default_delete@V?$tuple@P6AXXZ@std@@@2@@0@@Z@4HA
	DD	0ffffffffH
	DD	imagerel __imp___std_terminate
xdata	ENDS
;	COMDAT CONST
CONST	SEGMENT
$cppxdata$??$_Launch@V?$unique_ptr@V?$tuple@P6AXXZ@std@@U?$default_delete@V?$tuple@P6AXXZ@std@@@2@@std@@@std@@YAXPEAU_Thrd_imp_t@@$$QEAV?$unique_ptr@V?$tuple@P6AXXZ@std@@U?$default_delete@V?$tuple@P6AXXZ@std@@@2@@0@@Z DD 019930522H
	DD	04H
	DD	imagerel $stateUnwindMap$??$_Launch@V?$unique_ptr@V?$tuple@P6AXXZ@std@@U?$default_delete@V?$tuple@P6AXXZ@std@@@2@@std@@@std@@YAXPEAU_Thrd_imp_t@@$$QEAV?$unique_ptr@V?$tuple@P6AXXZ@std@@U?$default_delete@V?$tuple@P6AXXZ@std@@@2@@0@@Z
	DD	00H
	DD	00H
	DD	07H
	DD	imagerel $ip2state$??$_Launch@V?$unique_ptr@V?$tuple@P6AXXZ@std@@U?$default_delete@V?$tuple@P6AXXZ@std@@@2@@std@@@std@@YAXPEAU_Thrd_imp_t@@$$QEAV?$unique_ptr@V?$tuple@P6AXXZ@std@@U?$default_delete@V?$tuple@P6AXXZ@std@@@2@@0@@Z
	DD	020H
	DD	00H
	DD	01H
CONST	ENDS
;	COMDAT xdata
xdata	SEGMENT
$unwind$??$_Launch@V?$unique_ptr@V?$tuple@P6AXXZ@std@@U?$default_delete@V?$tuple@P6AXXZ@std@@@2@@std@@@std@@YAXPEAU_Thrd_imp_t@@$$QEAV?$unique_ptr@V?$tuple@P6AXXZ@std@@U?$default_delete@V?$tuple@P6AXXZ@std@@@2@@0@@Z DD 062c19H
	DD	016341eH
	DD	07004f20eH
	DD	050026003H
	DD	imagerel __GSHandlerCheck_EH
	DD	imagerel $cppxdata$??$_Launch@V?$unique_ptr@V?$tuple@P6AXXZ@std@@U?$default_delete@V?$tuple@P6AXXZ@std@@@2@@std@@@std@@YAXPEAU_Thrd_imp_t@@$$QEAV?$unique_ptr@V?$tuple@P6AXXZ@std@@U?$default_delete@V?$tuple@P6AXXZ@std@@@2@@0@@Z
	DD	072H
xdata	ENDS
;	COMDAT xdata
xdata	SEGMENT
$unwind$??$_To_xtime@_JU?$ratio@$00$00@std@@@std@@YA?AUxtime@@AEBV?$duration@_JU?$ratio@$00$00@std@@@chrono@0@@Z DD 040a01H
	DD	06340aH
	DD	07006320aH
xdata	ENDS
;	COMDAT xdata
xdata	SEGMENT
$unwind$??$_Allocate_manually_vector_aligned@U_Default_allocate_traits@std@@@std@@YAPEAX_K@Z DD 010401H
	DD	04204H
xdata	ENDS
;	COMDAT xdata
xdata	SEGMENT
$unwind$??$_Uninitialized_move@PEAV?$array@H$03@std@@PEAV12@V?$allocator@V?$array@H$03@std@@@2@@std@@YAPEAV?$array@H$03@0@QEAV10@0PEAV10@AEAV?$allocator@V?$array@H$03@std@@@0@@Z DD 040a01H
	DD	09340aH
	DD	07006320aH
xdata	ENDS
;	COMDAT xdata
xdata	SEGMENT
$ip2state$??1?$_LaunchPad@V?$unique_ptr@V?$tuple@P6AXXZ@std@@U?$default_delete@V?$tuple@P6AXXZ@std@@@2@@std@@@std@@QEAA@XZ DD imagerel ??1?$_LaunchPad@V?$unique_ptr@V?$tuple@P6AXXZ@std@@U?$default_delete@V?$tuple@P6AXXZ@std@@@2@@std@@@std@@QEAA@XZ+67
	DD	00H
xdata	ENDS
;	COMDAT xdata
xdata	SEGMENT
$stateUnwindMap$??1?$_LaunchPad@V?$unique_ptr@V?$tuple@P6AXXZ@std@@U?$default_delete@V?$tuple@P6AXXZ@std@@@2@@std@@@std@@QEAA@XZ DD 0ffffffffH
	DD	imagerel __imp___std_terminate
xdata	ENDS
;	COMDAT CONST
CONST	SEGMENT
$cppxdata$??1?$_LaunchPad@V?$unique_ptr@V?$tuple@P6AXXZ@std@@U?$default_delete@V?$tuple@P6AXXZ@std@@@2@@std@@@std@@QEAA@XZ DD 019930522H
	DD	01H
	DD	imagerel $stateUnwindMap$??1?$_LaunchPad@V?$unique_ptr@V?$tuple@P6AXXZ@std@@U?$default_delete@V?$tuple@P6AXXZ@std@@@2@@std@@@std@@QEAA@XZ
	DD	00H
	DD	00H
	DD	01H
	DD	imagerel $ip2state$??1?$_LaunchPad@V?$unique_ptr@V?$tuple@P6AXXZ@std@@U?$default_delete@V?$tuple@P6AXXZ@std@@@2@@std@@@std@@QEAA@XZ
	DD	020H
	DD	00H
	DD	05H
CONST	ENDS
;	COMDAT xdata
xdata	SEGMENT
$unwind$??1?$_LaunchPad@V?$unique_ptr@V?$tuple@P6AXXZ@std@@U?$default_delete@V?$tuple@P6AXXZ@std@@@2@@std@@@std@@QEAA@XZ DD 041419H
	DD	093414H
	DD	070025206H
	DD	imagerel __CxxFrameHandler3
	DD	imagerel $cppxdata$??1?$_LaunchPad@V?$unique_ptr@V?$tuple@P6AXXZ@std@@U?$default_delete@V?$tuple@P6AXXZ@std@@@2@@std@@@std@@QEAA@XZ
xdata	ENDS
;	COMDAT xdata
xdata	SEGMENT
$ip2state$?_Go@?$_LaunchPad@V?$unique_ptr@V?$tuple@P6AXXZ@std@@U?$default_delete@V?$tuple@P6AXXZ@std@@@2@@std@@@std@@UEAAXXZ DD imagerel ?_Go@?$_LaunchPad@V?$unique_ptr@V?$tuple@P6AXXZ@std@@U?$default_delete@V?$tuple@P6AXXZ@std@@@2@@std@@@std@@UEAAXXZ+51
	DD	00H
	DD	imagerel ?_Go@?$_LaunchPad@V?$unique_ptr@V?$tuple@P6AXXZ@std@@U?$default_delete@V?$tuple@P6AXXZ@std@@@2@@std@@@std@@UEAAXXZ+127
	DD	0ffffffffH
xdata	ENDS
;	COMDAT xdata
xdata	SEGMENT
$stateUnwindMap$?_Go@?$_LaunchPad@V?$unique_ptr@V?$tuple@P6AXXZ@std@@U?$default_delete@V?$tuple@P6AXXZ@std@@@2@@std@@@std@@UEAAXXZ DD 0ffffffffH
	DD	imagerel __imp___std_terminate
xdata	ENDS
;	COMDAT CONST
CONST	SEGMENT
$cppxdata$?_Go@?$_LaunchPad@V?$unique_ptr@V?$tuple@P6AXXZ@std@@U?$default_delete@V?$tuple@P6AXXZ@std@@@2@@std@@@std@@UEAAXXZ DD 019930522H
	DD	01H
	DD	imagerel $stateUnwindMap$?_Go@?$_LaunchPad@V?$unique_ptr@V?$tuple@P6AXXZ@std@@U?$default_delete@V?$tuple@P6AXXZ@std@@@2@@std@@@std@@UEAAXXZ
	DD	00H
	DD	00H
	DD	02H
	DD	imagerel $ip2state$?_Go@?$_LaunchPad@V?$unique_ptr@V?$tuple@P6AXXZ@std@@U?$default_delete@V?$tuple@P6AXXZ@std@@@2@@std@@@std@@UEAAXXZ
	DD	020H
	DD	00H
	DD	01H
CONST	ENDS
;	COMDAT xdata
xdata	SEGMENT
$unwind$?_Go@?$_LaunchPad@V?$unique_ptr@V?$tuple@P6AXXZ@std@@U?$default_delete@V?$tuple@P6AXXZ@std@@@2@@std@@@std@@UEAAXXZ DD 041411H
	DD	093414H
	DD	070025206H
	DD	imagerel __CxxFrameHandler3
	DD	imagerel $cppxdata$?_Go@?$_LaunchPad@V?$unique_ptr@V?$tuple@P6AXXZ@std@@U?$default_delete@V?$tuple@P6AXXZ@std@@@2@@std@@@std@@UEAAXXZ
xdata	ENDS
;	COMDAT xdata
xdata	SEGMENT
$ip2state$?_Run@?$_LaunchPad@V?$unique_ptr@V?$tuple@P6AXXZ@std@@U?$default_delete@V?$tuple@P6AXXZ@std@@@2@@std@@@std@@CAXPEAV12@@Z DD imagerel ?_Run@?$_LaunchPad@V?$unique_ptr@V?$tuple@P6AXXZ@std@@U?$default_delete@V?$tuple@P6AXXZ@std@@@2@@std@@@std@@CAXPEAV12@@Z+52
	DD	0ffffffffH
xdata	ENDS
;	COMDAT CONST
CONST	SEGMENT
$cppxdata$?_Run@?$_LaunchPad@V?$unique_ptr@V?$tuple@P6AXXZ@std@@U?$default_delete@V?$tuple@P6AXXZ@std@@@2@@std@@@std@@CAXPEAV12@@Z DD 019930522H
	DD	00H
	DD	00H
	DD	00H
	DD	00H
	DD	01H
	DD	imagerel $ip2state$?_Run@?$_LaunchPad@V?$unique_ptr@V?$tuple@P6AXXZ@std@@U?$default_delete@V?$tuple@P6AXXZ@std@@@2@@std@@@std@@CAXPEAV12@@Z
	DD	020H
	DD	00H
	DD	05H
CONST	ENDS
;	COMDAT xdata
xdata	SEGMENT
$unwind$?_Run@?$_LaunchPad@V?$unique_ptr@V?$tuple@P6AXXZ@std@@U?$default_delete@V?$tuple@P6AXXZ@std@@@2@@std@@@std@@CAXPEAV12@@Z DD 041419H
	DD	093414H
	DD	070025206H
	DD	imagerel __CxxFrameHandler3
	DD	imagerel $cppxdata$?_Run@?$_LaunchPad@V?$unique_ptr@V?$tuple@P6AXXZ@std@@U?$default_delete@V?$tuple@P6AXXZ@std@@@2@@std@@@std@@CAXPEAV12@@Z
xdata	ENDS
;	COMDAT xdata
xdata	SEGMENT
$ip2state$??$?0V?$unique_ptr@V?$tuple@P6AXXZ@std@@U?$default_delete@V?$tuple@P6AXXZ@std@@@2@@std@@@?$_LaunchPad@V?$unique_ptr@V?$tuple@P6AXXZ@std@@U?$default_delete@V?$tuple@P6AXXZ@std@@@2@@std@@@std@@QEAA@$$QEAV?$unique_ptr@V?$tuple@P6AXXZ@std@@U?$default_delete@V?$tuple@P6AXXZ@std@@@2@@1@@Z DD imagerel ??$?0V?$unique_ptr@V?$tuple@P6AXXZ@std@@U?$default_delete@V?$tuple@P6AXXZ@std@@@2@@std@@@?$_LaunchPad@V?$unique_ptr@V?$tuple@P6AXXZ@std@@U?$default_delete@V?$tuple@P6AXXZ@std@@@2@@std@@@std@@QEAA@$$QEAV?$unique_ptr@V?$tuple@P6AXXZ@std@@U?$default_delete@V?$tuple@P6AXXZ@std@@@2@@1@@Z+67
	DD	0ffffffffH
	DD	imagerel ??$?0V?$unique_ptr@V?$tuple@P6AXXZ@std@@U?$default_delete@V?$tuple@P6AXXZ@std@@@2@@std@@@?$_LaunchPad@V?$unique_ptr@V?$tuple@P6AXXZ@std@@U?$default_delete@V?$tuple@P6AXXZ@std@@@2@@std@@@std@@QEAA@$$QEAV?$unique_ptr@V?$tuple@P6AXXZ@std@@U?$default_delete@V?$tuple@P6AXXZ@std@@@2@@1@@Z+115
	DD	00H
	DD	imagerel ??$?0V?$unique_ptr@V?$tuple@P6AXXZ@std@@U?$default_delete@V?$tuple@P6AXXZ@std@@@2@@std@@@?$_LaunchPad@V?$unique_ptr@V?$tuple@P6AXXZ@std@@U?$default_delete@V?$tuple@P6AXXZ@std@@@2@@std@@@std@@QEAA@$$QEAV?$unique_ptr@V?$tuple@P6AXXZ@std@@U?$default_delete@V?$tuple@P6AXXZ@std@@@2@@1@@Z+157
	DD	01H
	DD	imagerel ??$?0V?$unique_ptr@V?$tuple@P6AXXZ@std@@U?$default_delete@V?$tuple@P6AXXZ@std@@@2@@std@@@?$_LaunchPad@V?$unique_ptr@V?$tuple@P6AXXZ@std@@U?$default_delete@V?$tuple@P6AXXZ@std@@@2@@std@@@std@@QEAA@$$QEAV?$unique_ptr@V?$tuple@P6AXXZ@std@@U?$default_delete@V?$tuple@P6AXXZ@std@@@2@@1@@Z+199
	DD	0ffffffffH
xdata	ENDS
;	COMDAT xdata
xdata	SEGMENT
$stateUnwindMap$??$?0V?$unique_ptr@V?$tuple@P6AXXZ@std@@U?$default_delete@V?$tuple@P6AXXZ@std@@@2@@std@@@?$_LaunchPad@V?$unique_ptr@V?$tuple@P6AXXZ@std@@U?$default_delete@V?$tuple@P6AXXZ@std@@@2@@std@@@std@@QEAA@$$QEAV?$unique_ptr@V?$tuple@P6AXXZ@std@@U?$default_delete@V?$tuple@P6AXXZ@std@@@2@@1@@Z DD 0ffffffffH
	DD	imagerel ?dtor$2@?0???$?0V?$unique_ptr@V?$tuple@P6AXXZ@std@@U?$default_delete@V?$tuple@P6AXXZ@std@@@2@@std@@@?$_LaunchPad@V?$unique_ptr@V?$tuple@P6AXXZ@std@@U?$default_delete@V?$tuple@P6AXXZ@std@@@2@@std@@@std@@QEAA@$$QEAV?$unique_ptr@V?$tuple@P6AXXZ@std@@U?$default_delete@V?$tuple@P6AXXZ@std@@@2@@1@@Z@4HA
	DD	00H
	DD	imagerel ?dtor$3@?0???$?0V?$unique_ptr@V?$tuple@P6AXXZ@std@@U?$default_delete@V?$tuple@P6AXXZ@std@@@2@@std@@@?$_LaunchPad@V?$unique_ptr@V?$tuple@P6AXXZ@std@@U?$default_delete@V?$tuple@P6AXXZ@std@@@2@@std@@@std@@QEAA@$$QEAV?$unique_ptr@V?$tuple@P6AXXZ@std@@U?$default_delete@V?$tuple@P6AXXZ@std@@@2@@1@@Z@4HA
xdata	ENDS
;	COMDAT CONST
CONST	SEGMENT
$cppxdata$??$?0V?$unique_ptr@V?$tuple@P6AXXZ@std@@U?$default_delete@V?$tuple@P6AXXZ@std@@@2@@std@@@?$_LaunchPad@V?$unique_ptr@V?$tuple@P6AXXZ@std@@U?$default_delete@V?$tuple@P6AXXZ@std@@@2@@std@@@std@@QEAA@$$QEAV?$unique_ptr@V?$tuple@P6AXXZ@std@@U?$default_delete@V?$tuple@P6AXXZ@std@@@2@@1@@Z DD 019930522H
	DD	02H
	DD	imagerel $stateUnwindMap$??$?0V?$unique_ptr@V?$tuple@P6AXXZ@std@@U?$default_delete@V?$tuple@P6AXXZ@std@@@2@@std@@@?$_LaunchPad@V?$unique_ptr@V?$tuple@P6AXXZ@std@@U?$default_delete@V?$tuple@P6AXXZ@std@@@2@@std@@@std@@QEAA@$$QEAV?$unique_ptr@V?$tuple@P6AXXZ@std@@U?$default_delete@V?$tuple@P6AXXZ@std@@@2@@1@@Z
	DD	00H
	DD	00H
	DD	04H
	DD	imagerel $ip2state$??$?0V?$unique_ptr@V?$tuple@P6AXXZ@std@@U?$default_delete@V?$tuple@P6AXXZ@std@@@2@@std@@@?$_LaunchPad@V?$unique_ptr@V?$tuple@P6AXXZ@std@@U?$default_delete@V?$tuple@P6AXXZ@std@@@2@@std@@@std@@QEAA@$$QEAV?$unique_ptr@V?$tuple@P6AXXZ@std@@U?$default_delete@V?$tuple@P6AXXZ@std@@@2@@1@@Z
	DD	020H
	DD	00H
	DD	01H
CONST	ENDS
;	COMDAT xdata
xdata	SEGMENT
$unwind$??$?0V?$unique_ptr@V?$tuple@P6AXXZ@std@@U?$default_delete@V?$tuple@P6AXXZ@std@@@2@@std@@@?$_LaunchPad@V?$unique_ptr@V?$tuple@P6AXXZ@std@@U?$default_delete@V?$tuple@P6AXXZ@std@@@2@@std@@@std@@QEAA@$$QEAV?$unique_ptr@V?$tuple@P6AXXZ@std@@U?$default_delete@V?$tuple@P6AXXZ@std@@@2@@1@@Z DD 062819H
	DD	0f6419H
	DD	0e3414H
	DD	070029206H
	DD	imagerel __GSHandlerCheck_EH
	DD	imagerel $cppxdata$??$?0V?$unique_ptr@V?$tuple@P6AXXZ@std@@U?$default_delete@V?$tuple@P6AXXZ@std@@@2@@std@@@?$_LaunchPad@V?$unique_ptr@V?$tuple@P6AXXZ@std@@U?$default_delete@V?$tuple@P6AXXZ@std@@@2@@std@@@std@@QEAA@$$QEAV?$unique_ptr@V?$tuple@P6AXXZ@std@@U?$default_delete@V?$tuple@P6AXXZ@std@@@2@@1@@Z
	DD	04aH
xdata	ENDS
;	COMDAT xdata
xdata	SEGMENT
$unwind$??$_Uninitialized_move_al_unchecked@V?$array@H$03@std@@V12@V?$allocator@V?$array@H$03@std@@@2@@std@@YAPEAV?$array@H$03@0@QEAV10@00AEAV?$allocator@V?$array@H$03@std@@@0@U_Really_trivial_ptr_iterator_tag@0@U?$integral_constant@_N$00@0@@Z DD 040a01H
	DD	06340aH
	DD	07006320aH
xdata	ENDS
;	COMDAT xdata
xdata	SEGMENT
$unwind$??$_Copy_memmove@PEAV?$array@H$03@std@@PEAV12@@std@@YAPEAV?$array@H$03@0@PEAV10@00@Z DD 040a01H
	DD	06340aH
	DD	07006320aH
xdata	ENDS
;	COMDAT xdata
xdata	SEGMENT
$unwind$memmove_s DD 010401H
	DD	04204H
; Function compile flags: /Ogtpy
;	COMDAT ??2@YAPEAX_KPEAX@Z
_TEXT	SEGMENT
_Size$dead$ = 8
_Where$ = 16
??2@YAPEAX_KPEAX@Z PROC					; operator new, COMDAT
; File c:\program files (x86)\microsoft visual studio\2017\community\vc\tools\msvc\14.15.26726\include\vcruntime_new.h
; Line 187
	mov	rax, rdx
; Line 188
	ret	0
??2@YAPEAX_KPEAX@Z ENDP					; operator new
_TEXT	ENDS
; Function compile flags: /Ogtpy
;	COMDAT ?max@?$numeric_limits@_J@std@@SA_JXZ
_TEXT	SEGMENT
?max@?$numeric_limits@_J@std@@SA_JXZ PROC		; std::numeric_limits<__int64>::max, COMDAT
; File c:\program files (x86)\microsoft visual studio\2017\community\vc\tools\msvc\14.15.26726\include\limits
; Line 894
	mov	rax, 9223372036854775807		; 7fffffffffffffffH
; Line 895
	ret	0
?max@?$numeric_limits@_J@std@@SA_JXZ ENDP		; std::numeric_limits<__int64>::max
_TEXT	ENDS
; Function compile flags: /Ogtpy
;	COMDAT ?length@?$char_traits@D@std@@SA_KQEBD@Z
_TEXT	SEGMENT
_First$ = 8
?length@?$char_traits@D@std@@SA_KQEBD@Z PROC		; std::char_traits<char>::length, COMDAT
; File c:\program files (x86)\microsoft visual studio\2017\community\vc\tools\msvc\14.15.26726\include\iosfwd
; Line 464
	mov	rax, -1
$LL3@length:
	inc	rax
	cmp	BYTE PTR [rcx+rax], 0
	jne	SHORT $LL3@length
; Line 466
	ret	0
?length@?$char_traits@D@std@@SA_KQEBD@Z ENDP		; std::char_traits<char>::length
_TEXT	ENDS
; Function compile flags: /Ogtpy
;	COMDAT ?copy@?$char_traits@D@std@@SAPEADQEADQEBD_K@Z
_TEXT	SEGMENT
_First1$ = 48
_First2$ = 56
_Count$ = 64
?copy@?$char_traits@D@std@@SAPEADQEADQEBD_K@Z PROC	; std::char_traits<char>::copy, COMDAT
; File c:\program files (x86)\microsoft visual studio\2017\community\vc\tools\msvc\14.15.26726\include\iosfwd
; Line 470
$LN5:
	push	rbx
	sub	rsp, 32					; 00000020H
	mov	rbx, rcx
; Line 471
	call	memcpy
	mov	rax, rbx
; Line 472
	add	rsp, 32					; 00000020H
	pop	rbx
	ret	0
?copy@?$char_traits@D@std@@SAPEADQEADQEBD_K@Z ENDP	; std::char_traits<char>::copy
_TEXT	ENDS
; Function compile flags: /Ogtpy
;	COMDAT ?move@?$char_traits@D@std@@SAPEADQEADQEBD_K@Z
_TEXT	SEGMENT
_First1$ = 8
_First2$ = 16
_Count$ = 24
?move@?$char_traits@D@std@@SAPEADQEADQEBD_K@Z PROC	; std::char_traits<char>::move, COMDAT
; File c:\program files (x86)\microsoft visual studio\2017\community\vc\tools\msvc\14.15.26726\include\iosfwd
; Line 495
	jmp	memmove
?move@?$char_traits@D@std@@SAPEADQEADQEBD_K@Z ENDP	; std::char_traits<char>::move
_TEXT	ENDS
; Function compile flags: /Ogtpy
;	COMDAT ?assign@?$char_traits@D@std@@SAXAEADAEBD@Z
_TEXT	SEGMENT
_Left$ = 8
_Right$ = 16
?assign@?$char_traits@D@std@@SAXAEADAEBD@Z PROC		; std::char_traits<char>::assign, COMDAT
; File c:\program files (x86)\microsoft visual studio\2017\community\vc\tools\msvc\14.15.26726\include\iosfwd
; Line 506
	movzx	eax, BYTE PTR [rdx]
	mov	BYTE PTR [rcx], al
; Line 507
	ret	0
?assign@?$char_traits@D@std@@SAXAEADAEBD@Z ENDP		; std::char_traits<char>::assign
_TEXT	ENDS
; Function compile flags: /Ogtpy
;	COMDAT ?_Orphan_all@_Container_base0@std@@QEAAXXZ
_TEXT	SEGMENT
this$dead$ = 8
?_Orphan_all@_Container_base0@std@@QEAAXXZ PROC		; std::_Container_base0::_Orphan_all, COMDAT
; File c:\program files (x86)\microsoft visual studio\2017\community\vc\tools\msvc\14.15.26726\include\xutility
; Line 43
	ret	0
?_Orphan_all@_Container_base0@std@@QEAAXXZ ENDP		; std::_Container_base0::_Orphan_all
_TEXT	ENDS
; Function compile flags: /Ogtpy
;	COMDAT ??$_Get_size_of_n@$00@std@@YA_K_K@Z
_TEXT	SEGMENT
_Count$ = 8
??$_Get_size_of_n@$00@std@@YA_K_K@Z PROC		; std::_Get_size_of_n<1>, COMDAT
; File c:\program files (x86)\microsoft visual studio\2017\community\vc\tools\msvc\14.15.26726\include\xmemory0
; Line 38
	mov	rax, rcx
; Line 39
	ret	0
??$_Get_size_of_n@$00@std@@YA_K_K@Z ENDP		; std::_Get_size_of_n<1>
_TEXT	ENDS
; Function compile flags: /Ogtpy
;	COMDAT ?_Allocate@_Default_allocate_traits@std@@SAPEAX_K@Z
_TEXT	SEGMENT
_Bytes$ = 8
?_Allocate@_Default_allocate_traits@std@@SAPEAX_K@Z PROC ; std::_Default_allocate_traits::_Allocate, COMDAT
; File c:\program files (x86)\microsoft visual studio\2017\community\vc\tools\msvc\14.15.26726\include\xmemory0
; Line 52
	jmp	??2@YAPEAX_K@Z				; operator new
?_Allocate@_Default_allocate_traits@std@@SAPEAX_K@Z ENDP ; std::_Default_allocate_traits::_Allocate
_TEXT	ENDS
; Function compile flags: /Ogtpy
;	COMDAT ?_Adjust_manually_vector_aligned@std@@YAXAEAPEAXAEA_K@Z
_TEXT	SEGMENT
_Ptr$ = 48
_Bytes$ = 56
?_Adjust_manually_vector_aligned@std@@YAXAEAPEAXAEA_K@Z PROC ; std::_Adjust_manually_vector_aligned, COMDAT
; File c:\program files (x86)\microsoft visual studio\2017\community\vc\tools\msvc\14.15.26726\include\xmemory0
; Line 114
$LN13:
	sub	rsp, 40					; 00000028H
; Line 115
	add	QWORD PTR [rdx], 39			; 00000027H
; Line 118
	mov	rax, QWORD PTR [rcx]
	mov	rdx, QWORD PTR [rax-8]
; Line 131
	sub	rax, rdx
; Line 132
	add	rax, -8
	cmp	rax, 31
	ja	SHORT $LN7@Adjust_man
; Line 133
	mov	QWORD PTR [rcx], rdx
; Line 134
	add	rsp, 40					; 00000028H
	ret	0
$LN7@Adjust_man:
; Line 132
	call	QWORD PTR __imp__invalid_parameter_noinfo_noreturn
	int	3
$LN11@Adjust_man:
?_Adjust_manually_vector_aligned@std@@YAXAEAPEAXAEA_K@Z ENDP ; std::_Adjust_manually_vector_aligned
_TEXT	ENDS
; Function compile flags: /Ogtpy
;	COMDAT ??$_Convert_size@_K@std@@YA_K_K@Z
_TEXT	SEGMENT
_Len$ = 8
??$_Convert_size@_K@std@@YA_K_K@Z PROC			; std::_Convert_size<unsigned __int64>, COMDAT
; File c:\program files (x86)\microsoft visual studio\2017\community\vc\tools\msvc\14.15.26726\include\xmemory0
; Line 1204
	mov	rax, rcx
; Line 1205
	ret	0
??$_Convert_size@_K@std@@YA_K_K@Z ENDP			; std::_Convert_size<unsigned __int64>
_TEXT	ENDS
; Function compile flags: /Ogtpy
;	COMDAT ?_AtlGetConversionACP@ATL@@YAIXZ
_TEXT	SEGMENT
?_AtlGetConversionACP@ATL@@YAIXZ PROC			; ATL::_AtlGetConversionACP, COMDAT
; File c:\program files (x86)\microsoft visual studio\2017\community\vc\tools\msvc\14.15.26726\atlmfc\include\atlconv.h
; Line 102
	mov	eax, 3
; Line 104
	ret	0
?_AtlGetConversionACP@ATL@@YAIXZ ENDP			; ATL::_AtlGetConversionACP
_TEXT	ENDS
; Function compile flags: /Ogtpy
;	COMDAT ?IsLocked@CStringData@ATL@@QEBA_NXZ
_TEXT	SEGMENT
this$ = 8
?IsLocked@CStringData@ATL@@QEBA_NXZ PROC		; ATL::CStringData::IsLocked, COMDAT
; File c:\program files (x86)\microsoft visual studio\2017\community\vc\tools\msvc\14.15.26726\atlmfc\include\atlsimpstr.h
; Line 69
	mov	eax, DWORD PTR [rcx+16]
	shr	eax, 31
; Line 70
	ret	0
?IsLocked@CStringData@ATL@@QEBA_NXZ ENDP		; ATL::CStringData::IsLocked
_TEXT	ENDS
; Function compile flags: /Ogtpy
;	COMDAT ?GetBaseTypeLength@?$ChTraitsCRT@_W@ATL@@SAHPEBD@Z
_TEXT	SEGMENT
pszSrc$ = 64
?GetBaseTypeLength@?$ChTraitsCRT@_W@ATL@@SAHPEBD@Z PROC	; ATL::ChTraitsCRT<wchar_t>::GetBaseTypeLength, COMDAT
; File c:\program files (x86)\microsoft visual studio\2017\community\vc\tools\msvc\14.15.26726\atlmfc\include\cstringt.h
; Line 742
$LN6:
	sub	rsp, 56					; 00000038H
; Line 744
	xor	eax, eax
	mov	r8, rcx
	mov	DWORD PTR [rsp+40], eax
	xor	edx, edx
	mov	QWORD PTR [rsp+32], rax
	lea	r9d, QWORD PTR [rax-1]
	lea	ecx, QWORD PTR [rax+3]
	call	QWORD PTR __imp_MultiByteToWideChar
	dec	eax
; Line 745
	add	rsp, 56					; 00000038H
	ret	0
?GetBaseTypeLength@?$ChTraitsCRT@_W@ATL@@SAHPEBD@Z ENDP	; ATL::ChTraitsCRT<wchar_t>::GetBaseTypeLength
_TEXT	ENDS
; Function compile flags: /Ogtpy
;	COMDAT ?ConvertToBaseType@?$ChTraitsCRT@_W@ATL@@SAXPEA_WHPEBDH@Z
_TEXT	SEGMENT
pszDest$ = 64
nDestLength$ = 72
pszSrc$ = 80
nSrcLength$dead$ = 88
?ConvertToBaseType@?$ChTraitsCRT@_W@ATL@@SAXPEA_WHPEBDH@Z PROC ; ATL::ChTraitsCRT<wchar_t>::ConvertToBaseType, COMDAT
; File c:\program files (x86)\microsoft visual studio\2017\community\vc\tools\msvc\14.15.26726\atlmfc\include\cstringt.h
; Line 775
$LN6:
	sub	rsp, 56					; 00000038H
; Line 777
	mov	DWORD PTR [rsp+40], edx
	xor	edx, edx
	mov	QWORD PTR [rsp+32], rcx
	lea	r9d, QWORD PTR [rdx-1]
	lea	ecx, QWORD PTR [rdx+3]
	call	QWORD PTR __imp_MultiByteToWideChar
; Line 778
	add	rsp, 56					; 00000038H
	ret	0
?ConvertToBaseType@?$ChTraitsCRT@_W@ATL@@SAXPEA_WHPEBDH@Z ENDP ; ATL::ChTraitsCRT<wchar_t>::ConvertToBaseType
_TEXT	ENDS
; Function compile flags: /Ogtpy
;	COMDAT ?now@system_clock@chrono@std@@SA?AV?$time_point@Usystem_clock@chrono@std@@V?$duration@_JU?$ratio@$00$0JIJGIA@@std@@@23@@23@XZ
_TEXT	SEGMENT
__$ReturnUdt$ = 48
?now@system_clock@chrono@std@@SA?AV?$time_point@Usystem_clock@chrono@std@@V?$duration@_JU?$ratio@$00$0JIJGIA@@std@@@23@@23@XZ PROC ; std::chrono::system_clock::now, COMDAT
; File c:\program files (x86)\microsoft visual studio\2017\community\vc\tools\msvc\14.15.26726\include\chrono
; Line 774
$LN9:
	push	rbx
	sub	rsp, 32					; 00000020H
	mov	rbx, rcx
; Line 775
	call	QWORD PTR __imp__Xtime_get_ticks
; Line 210
	mov	QWORD PTR [rbx], rax
; Line 775
	mov	rax, rbx
; Line 776
	add	rsp, 32					; 00000020H
	pop	rbx
	ret	0
?now@system_clock@chrono@std@@SA?AV?$time_point@Usystem_clock@chrono@std@@V?$duration@_JU?$ratio@$00$0JIJGIA@@std@@@23@@23@XZ ENDP ; std::chrono::system_clock::now
_TEXT	ENDS
; Function compile flags: /Ogtpy
;	COMDAT ?sleep_until@this_thread@std@@YAXPEBUxtime@@@Z
_TEXT	SEGMENT
_Abs_time$ = 8
?sleep_until@this_thread@std@@YAXPEBUxtime@@@Z PROC	; std::this_thread::sleep_until, COMDAT
; File c:\program files (x86)\microsoft visual studio\2017\community\vc\tools\msvc\14.15.26726\include\thread
; Line 128
	rex_jmp	QWORD PTR __imp__Thrd_sleep
?sleep_until@this_thread@std@@YAXPEBUxtime@@@Z ENDP	; std::this_thread::sleep_until
_TEXT	ENDS
; Function compile flags: /Ogtpy
;	COMDAT wWinMain
_TEXT	SEGMENT
$T47 = 96
$T34 = 96
$T24 = 96
$T11 = 96
wcex$53 = 112
msg$ = 192
cpu_status_thread$ = 240
mem_thread$ = 256
__$ArrayPad$ = 272
hInstance$ = 320
hPrevInstance$ = 328
lpCmdLine$ = 336
nCmdShow$ = 344
wWinMain PROC						; COMDAT
; File d:\visual studio\cpu_benchmark\cpu_benchmark\cpu_benchmark.cpp
; Line 50
$LN183:
	mov	QWORD PTR [rsp+16], rbx
	mov	QWORD PTR [rsp+24], rsi
	push	rbp
	push	rdi
	push	r14
	lea	rbp, QWORD PTR [rsp-32]
	sub	rsp, 288				; 00000120H
	mov	rax, QWORD PTR __security_cookie
	xor	rax, rsp
	mov	QWORD PTR __$ArrayPad$[rbp-256], rax
	mov	edi, r9d
; Line 54
	mov	DWORD PTR ?mem_status@@3U_MEMORYSTATUSEX@@A, 64 ; 00000040H
; Line 56
	mov	r9d, 100				; 00000064H
	lea	r8, OFFSET FLAT:?szTitle@@3PA_WA	; szTitle
	mov	rbx, rcx
	lea	edx, QWORD PTR [r9+3]
	call	QWORD PTR __imp_LoadStringW
; Line 57
	mov	r9d, 100				; 00000064H
	lea	rsi, OFFSET FLAT:?szWindowClass@@3PA_WA	; szWindowClass
	mov	r8, rsi
	mov	rcx, rbx
	lea	edx, QWORD PTR [r9+9]
	call	QWORD PTR __imp_LoadStringW
; Line 98
	xor	r14d, r14d
	mov	DWORD PTR wcex$53[rsp], 80		; 00000050H
	lea	rax, OFFSET FLAT:?WndProc@@YA_JPEAUHWND__@@I_K_J@Z ; WndProc
	mov	DWORD PTR wcex$53[rsp+4], 3
; Line 101
	mov	rcx, rbx
	mov	QWORD PTR wcex$53[rsp+8], rax
	mov	QWORD PTR wcex$53[rbp-240], r14
	lea	edx, QWORD PTR [r14+107]
	mov	QWORD PTR wcex$53[rbp-232], rbx
	call	QWORD PTR __imp_LoadIconW
; Line 102
	mov	edx, 32512				; 00007f00H
	xor	ecx, ecx
	mov	QWORD PTR wcex$53[rbp-224], rax
	call	QWORD PTR __imp_LoadCursorW
; Line 103
	movdqa	xmm0, XMMWORD PTR __xmm@000000000000006d0000000000000006
; Line 106
	lea	edx, QWORD PTR [r14+108]
	mov	rcx, QWORD PTR wcex$53[rbp-232]
	movdqa	XMMWORD PTR wcex$53[rbp-208], xmm0
	mov	QWORD PTR wcex$53[rbp-216], rax
	mov	QWORD PTR wcex$53[rbp-192], rsi
	call	QWORD PTR __imp_LoadIconW
; Line 108
	lea	rcx, QWORD PTR wcex$53[rsp]
	mov	QWORD PTR wcex$53[rbp-184], rax
	call	QWORD PTR __imp_RegisterClassExW
; Line 115
	mov	QWORD PTR [rsp+88], r14
	lea	r8, OFFSET FLAT:?szTitle@@3PA_WA	; szTitle
	mov	QWORD PTR [rsp+80], rbx
	mov	r9d, 13565952				; 00cf0000H
	mov	QWORD PTR [rsp+72], r14
	mov	rdx, rsi
	mov	QWORD PTR [rsp+64], r14
	xor	ecx, ecx
	mov	DWORD PTR [rsp+56], r14d
	mov	DWORD PTR [rsp+48], -2147483648		; ffffffff80000000H
	mov	DWORD PTR [rsp+40], r14d
	mov	DWORD PTR [rsp+32], -2147483648		; ffffffff80000000H
	mov	QWORD PTR ?hInst@@3PEAUHINSTANCE__@@EA, rbx ; hInst
	call	QWORD PTR __imp_CreateWindowExW
	mov	QWORD PTR ?hWnd@@3PEAUHWND__@@EA, rax	; hWnd
; Line 118
	test	rax, rax
	je	$LN1@wWinMain
; Line 123
	mov	edx, edi
	mov	rcx, rax
	call	QWORD PTR __imp_ShowWindow
; Line 124
	mov	rcx, QWORD PTR ?hWnd@@3PEAUHWND__@@EA	; hWnd
	call	QWORD PTR __imp_UpdateWindow
; Line 126
	mov	rax, QWORD PTR ?hWnd@@3PEAUHWND__@@EA	; hWnd
	lea	r8, OFFSET FLAT:??_C@_1BM@LNAGOHNF@?$AAR?$AAu?$AAn?$AA?5?$AAB?$AAe?$AAn?$AAc?$AAh?$AAm?$AAa?$AAr?$AAk@
	mov	QWORD PTR [rsp+88], r14
	lea	rdx, OFFSET FLAT:??_C@_1O@KPNLMGP@?$AAb?$AAu?$AAt?$AAt?$AAo?$AAn@
	mov	QWORD PTR [rsp+80], r14
	mov	r9d, 1342177280				; 50000000H
	mov	QWORD PTR [rsp+72], 101			; 00000065H
	xor	ecx, ecx
	mov	QWORD PTR [rsp+64], rax
	mov	DWORD PTR [rsp+56], 30
	mov	DWORD PTR [rsp+48], 120			; 00000078H
	mov	DWORD PTR [rsp+40], 250			; 000000faH
	mov	DWORD PTR [rsp+32], 85			; 00000055H
	call	QWORD PTR __imp_CreateWindowExW
; Line 65
	lea	edx, QWORD PTR [r14+109]
	mov	rcx, rbx
	call	QWORD PTR __imp_LoadAcceleratorsW
; Line 67
	mov	rcx, QWORD PTR ?hWnd@@3PEAUHWND__@@EA	; hWnd
	lea	r8, OFFSET FLAT:??_C@_01CLKCMJKC@?5@
	mov	QWORD PTR [rsp+88], r14
	lea	rdx, OFFSET FLAT:??_C@_1O@ELLBDENI@?$AAS?$AAT?$AAA?$AAT?$AAI?$AAC@
	mov	QWORD PTR [rsp+80], r14
	mov	r9d, 1342177312				; 50000020H
	mov	QWORD PTR [rsp+72], r14
	mov	rdi, rax
	mov	QWORD PTR [rsp+64], rcx
	xor	ecx, ecx
	mov	DWORD PTR [rsp+56], 100			; 00000064H
	mov	DWORD PTR [rsp+48], 300			; 0000012cH
	mov	DWORD PTR [rsp+40], 75			; 0000004bH
	mov	DWORD PTR [rsp+32], 25
	call	QWORD PTR __imp_CreateWindowExW
; Line 68
	mov	QWORD PTR [rsp+88], r14
	lea	r8, OFFSET FLAT:??_C@_01CLKCMJKC@?5@
	mov	QWORD PTR [rsp+80], r14
	lea	rdx, OFFSET FLAT:??_C@_1O@ELLBDENI@?$AAS?$AAT?$AAA?$AAT?$AAI?$AAC@
	mov	QWORD PTR [rsp+72], r14
	mov	r9d, 1342177312				; 50000020H
	mov	QWORD PTR ?mem@@3PEAUHWND__@@EA, rax	; mem
	xor	ecx, ecx
	mov	rax, QWORD PTR ?hWnd@@3PEAUHWND__@@EA	; hWnd
	mov	QWORD PTR [rsp+64], rax
	mov	DWORD PTR [rsp+56], 100			; 00000064H
	mov	DWORD PTR [rsp+48], 300			; 0000012cH
	mov	DWORD PTR [rsp+40], 75			; 0000004bH
	mov	DWORD PTR [rsp+32], 350			; 0000015eH
	call	QWORD PTR __imp_CreateWindowExW
; Line 69
	mov	QWORD PTR [rsp+88], r14
	lea	r8, OFFSET FLAT:??_C@_01CLKCMJKC@?5@
	mov	QWORD PTR [rsp+80], r14
	lea	rdx, OFFSET FLAT:??_C@_1O@ELLBDENI@?$AAS?$AAT?$AAA?$AAT?$AAI?$AAC@
	mov	QWORD PTR [rsp+72], r14
	mov	r9d, 1342177312				; 50000020H
	mov	QWORD PTR ?processor_info@@3PEAUHWND__@@EA, rax ; processor_info
	xor	ecx, ecx
	mov	rax, QWORD PTR ?hWnd@@3PEAUHWND__@@EA	; hWnd
	mov	QWORD PTR [rsp+64], rax
	mov	DWORD PTR [rsp+56], 100			; 00000064H
	mov	DWORD PTR [rsp+48], 300			; 0000012cH
	mov	DWORD PTR [rsp+40], 141			; 0000008dH
	mov	DWORD PTR [rsp+32], 350			; 0000015eH
	call	QWORD PTR __imp_CreateWindowExW
	mov	QWORD PTR ?processor_status@@3PEAUHWND__@@EA, rax ; processor_status
; Line 70
	call	?get_cpu_info@@YAXXZ			; get_cpu_info
; File c:\program files (x86)\microsoft visual studio\2017\community\vc\tools\msvc\14.15.26726\include\memory
; Line 2539
	lea	ecx, QWORD PTR [r14+8]
	call	??2@YAPEAX_K@Z				; operator new
; File c:\program files (x86)\microsoft visual studio\2017\community\vc\tools\msvc\14.15.26726\include\tuple
; Line 236
	lea	rcx, OFFSET FLAT:?update_status@@YAXXZ	; update_status
; File c:\program files (x86)\microsoft visual studio\2017\community\vc\tools\msvc\14.15.26726\include\xutility
; Line 277
	mov	QWORD PTR $T11[rsp], rax
; File c:\program files (x86)\microsoft visual studio\2017\community\vc\tools\msvc\14.15.26726\include\thread
; Line 47
	lea	rdx, QWORD PTR $T11[rsp]
; File c:\program files (x86)\microsoft visual studio\2017\community\vc\tools\msvc\14.15.26726\include\tuple
; Line 236
	mov	QWORD PTR [rax], rcx
; File c:\program files (x86)\microsoft visual studio\2017\community\vc\tools\msvc\14.15.26726\include\thread
; Line 47
	lea	rcx, QWORD PTR mem_thread$[rbp-256]
	call	??$_Launch@V?$unique_ptr@V?$tuple@P6AXXZ@std@@U?$default_delete@V?$tuple@P6AXXZ@std@@@2@@std@@@std@@YAXPEAU_Thrd_imp_t@@$$QEAV?$unique_ptr@V?$tuple@P6AXXZ@std@@U?$default_delete@V?$tuple@P6AXXZ@std@@@2@@0@@Z ; std::_Launch<std::unique_ptr<std::tuple<void (__cdecl*)(void)>,std::default_delete<std::tuple<void (__cdecl*)(void)> > > >
; File c:\program files (x86)\microsoft visual studio\2017\community\vc\tools\msvc\14.15.26726\include\memory
; Line 2294
	mov	rcx, QWORD PTR $T11[rsp]
	test	rcx, rcx
	je	SHORT $LN65@wWinMain
; Line 2084
	lea	edx, QWORD PTR [r14+8]
	call	??3@YAXPEAX_K@Z				; operator delete
$LN65@wWinMain:
; File c:\program files (x86)\microsoft visual studio\2017\community\vc\tools\msvc\14.15.26726\include\thread
; Line 87
	cmp	DWORD PTR mem_thread$[rbp-248], r14d
	jne	SHORT $LN68@wWinMain
; Line 88
	mov	ecx, 1
	call	QWORD PTR __imp_?_Throw_Cpp_error@std@@YAXH@Z
$LN68@wWinMain:
; File c:\program files (x86)\microsoft visual studio\2017\community\vc\tools\msvc\14.15.26726\include\thr\xthread
; Line 57
	movaps	xmm0, XMMWORD PTR mem_thread$[rbp-256]
	lea	rcx, QWORD PTR $T24[rsp]
	movdqa	XMMWORD PTR $T24[rsp], xmm0
	call	QWORD PTR __imp__Thrd_detach
; Line 36
	test	eax, eax
	je	SHORT $LN75@wWinMain
; Line 37
	mov	ecx, eax
	call	QWORD PTR __imp_?_Throw_C_error@std@@YAXH@Z
$LN75@wWinMain:
; File c:\program files (x86)\microsoft visual studio\2017\community\vc\tools\msvc\14.15.26726\include\memory
; Line 2539
	mov	ecx, 8
; File c:\program files (x86)\microsoft visual studio\2017\community\vc\tools\msvc\14.15.26726\include\thread
; Line 90
	mov	QWORD PTR mem_thread$[rbp-256], r14
	mov	DWORD PTR mem_thread$[rbp-248], r14d
; File c:\program files (x86)\microsoft visual studio\2017\community\vc\tools\msvc\14.15.26726\include\memory
; Line 2539
	call	??2@YAPEAX_K@Z				; operator new
; File c:\program files (x86)\microsoft visual studio\2017\community\vc\tools\msvc\14.15.26726\include\tuple
; Line 236
	lea	rcx, OFFSET FLAT:?get_cpu_status@@YAXXZ	; get_cpu_status
; File c:\program files (x86)\microsoft visual studio\2017\community\vc\tools\msvc\14.15.26726\include\xutility
; Line 277
	mov	QWORD PTR $T34[rsp], rax
; File c:\program files (x86)\microsoft visual studio\2017\community\vc\tools\msvc\14.15.26726\include\thread
; Line 47
	lea	rdx, QWORD PTR $T34[rsp]
; File c:\program files (x86)\microsoft visual studio\2017\community\vc\tools\msvc\14.15.26726\include\tuple
; Line 236
	mov	QWORD PTR [rax], rcx
; File c:\program files (x86)\microsoft visual studio\2017\community\vc\tools\msvc\14.15.26726\include\thread
; Line 47
	lea	rcx, QWORD PTR cpu_status_thread$[rbp-256]
	call	??$_Launch@V?$unique_ptr@V?$tuple@P6AXXZ@std@@U?$default_delete@V?$tuple@P6AXXZ@std@@@2@@std@@@std@@YAXPEAU_Thrd_imp_t@@$$QEAV?$unique_ptr@V?$tuple@P6AXXZ@std@@U?$default_delete@V?$tuple@P6AXXZ@std@@@2@@0@@Z ; std::_Launch<std::unique_ptr<std::tuple<void (__cdecl*)(void)>,std::default_delete<std::tuple<void (__cdecl*)(void)> > > >
; File c:\program files (x86)\microsoft visual studio\2017\community\vc\tools\msvc\14.15.26726\include\memory
; Line 2294
	mov	rcx, QWORD PTR $T34[rsp]
	test	rcx, rcx
	je	SHORT $LN128@wWinMain
; Line 2084
	mov	edx, 8
	call	??3@YAXPEAX_K@Z				; operator delete
$LN128@wWinMain:
; File c:\program files (x86)\microsoft visual studio\2017\community\vc\tools\msvc\14.15.26726\include\thread
; Line 87
	cmp	DWORD PTR cpu_status_thread$[rbp-248], r14d
	jne	SHORT $LN131@wWinMain
; Line 88
	mov	ecx, 1
	call	QWORD PTR __imp_?_Throw_Cpp_error@std@@YAXH@Z
$LN131@wWinMain:
; File c:\program files (x86)\microsoft visual studio\2017\community\vc\tools\msvc\14.15.26726\include\thr\xthread
; Line 57
	movaps	xmm0, XMMWORD PTR cpu_status_thread$[rbp-256]
	lea	rcx, QWORD PTR $T47[rsp]
	movdqa	XMMWORD PTR $T47[rsp], xmm0
	call	QWORD PTR __imp__Thrd_detach
; Line 36
	test	eax, eax
	je	SHORT $LN138@wWinMain
; Line 37
	mov	ecx, eax
	call	QWORD PTR __imp_?_Throw_C_error@std@@YAXH@Z
$LN138@wWinMain:
; File d:\visual studio\cpu_benchmark\cpu_benchmark\cpu_benchmark.cpp
; Line 75
	mov	ecx, 4314104				; 0041d3f8H
; File c:\program files (x86)\microsoft visual studio\2017\community\vc\tools\msvc\14.15.26726\include\thread
; Line 90
	mov	QWORD PTR cpu_status_thread$[rbp-256], r14
	mov	DWORD PTR cpu_status_thread$[rbp-248], r14d
; File d:\visual studio\cpu_benchmark\cpu_benchmark\cpu_benchmark.cpp
; Line 75
	call	??2@YAPEAX_K@Z				; operator new
	xor	edx, edx
	mov	r8d, 4314104				; 0041d3f8H
	mov	rcx, rax
	mov	rbx, rax
	call	memset
	mov	rsi, QWORD PTR ?hWnd@@3PEAUHWND__@@EA	; hWnd
; File c:\program files (x86)\microsoft visual studio\2017\community\vc\tools\msvc\14.15.26726\atlmfc\include\atlstr.h
; Line 1259
	call	?GetInstance@CAtlStringMgr@ATL@@SAPEAUIAtlStringMgr@2@XZ ; ATL::CAtlStringMgr::GetInstance
	mov	rcx, rax
; File c:\program files (x86)\microsoft visual studio\2017\community\vc\tools\msvc\14.15.26726\atlmfc\include\atlsimpstr.h
; Line 205
	test	rax, rax
	je	$LN181@wWinMain
; Line 206
	mov	rax, QWORD PTR [rax]
	call	QWORD PTR [rax+24]
; File d:\visual studio\cpu_benchmark\cpu_benchmark\cpu_benchmark.cpp
; Line 78
	xor	r9d, r9d
	mov	QWORD PTR ?b@@3PEAVBenchmark@@EA, rbx	; b
; File c:\program files (x86)\microsoft visual studio\2017\community\vc\tools\msvc\14.15.26726\atlmfc\include\atlsimpstr.h
; Line 59
	add	rax, 24
; File d:\visual studio\cpu_benchmark\cpu_benchmark\cpu_benchmark.cpp
; Line 78
	lea	rcx, QWORD PTR msg$[rbp-256]
; File c:\program files (x86)\microsoft visual studio\2017\community\vc\tools\msvc\14.15.26726\atlmfc\include\atlsimpstr.h
; Line 780
	mov	QWORD PTR [rbx+4314088], rax
; File d:\visual studio\cpu_benchmark\cpu_benchmark\cpu_benchmark.cpp
; Line 78
	xor	r8d, r8d
; File d:\visual studio\cpu_benchmark\cpu_benchmark\benchmark.cpp
; Line 7
	lea	rax, OFFSET FLAT:?affinity@@3HA		; affinity
	mov	QWORD PTR [rbx], rsi
; File d:\visual studio\cpu_benchmark\cpu_benchmark\cpu_benchmark.cpp
; Line 78
	xor	edx, edx
; File d:\visual studio\cpu_benchmark\cpu_benchmark\benchmark.cpp
; Line 7
	mov	QWORD PTR [rbx+4314064], rax
; File d:\visual studio\cpu_benchmark\cpu_benchmark\cpu_benchmark.cpp
; Line 78
	call	QWORD PTR __imp_GetMessageW
	test	eax, eax
	je	SHORT $LN3@wWinMain
	npad	2
$LL2@wWinMain:
; Line 80
	mov	rcx, QWORD PTR msg$[rbp-256]
	lea	r8, QWORD PTR msg$[rbp-256]
	mov	rdx, rdi
	call	QWORD PTR __imp_TranslateAcceleratorW
	test	eax, eax
	jne	SHORT $LN5@wWinMain
; Line 82
	lea	rcx, QWORD PTR msg$[rbp-256]
	call	QWORD PTR __imp_TranslateMessage
; Line 83
	lea	rcx, QWORD PTR msg$[rbp-256]
	call	QWORD PTR __imp_DispatchMessageW
$LN5@wWinMain:
; Line 78
	xor	r9d, r9d
	lea	rcx, QWORD PTR msg$[rbp-256]
	xor	r8d, r8d
	xor	edx, edx
	call	QWORD PTR __imp_GetMessageW
	test	eax, eax
	jne	SHORT $LL2@wWinMain
$LN3@wWinMain:
; File c:\program files (x86)\microsoft visual studio\2017\community\vc\tools\msvc\14.15.26726\include\thread
; Line 80
	cmp	DWORD PTR cpu_status_thread$[rbp-248], r14d
; Line 55
	jne	SHORT $LN178@wWinMain
; Line 80
	cmp	DWORD PTR mem_thread$[rbp-248], r14d
; Line 55
	jne	SHORT $LN178@wWinMain
; File d:\visual studio\cpu_benchmark\cpu_benchmark\cpu_benchmark.cpp
; Line 87
	mov	eax, DWORD PTR msg$[rbp-240]
$LN1@wWinMain:
; Line 88
	mov	rcx, QWORD PTR __$ArrayPad$[rbp-256]
	xor	rcx, rsp
	call	__security_check_cookie
	lea	r11, QWORD PTR [rsp+288]
	mov	rbx, QWORD PTR [r11+40]
	mov	rsi, QWORD PTR [r11+48]
	mov	rsp, r11
	pop	r14
	pop	rdi
	pop	rbp
	ret	0
$LN178@wWinMain:
; File c:\program files (x86)\microsoft visual studio\2017\community\vc\tools\msvc\14.15.26726\include\thread
; Line 56
	call	QWORD PTR __imp_terminate
	int	3
$LN181@wWinMain:
; File c:\program files (x86)\microsoft visual studio\2017\community\vc\tools\msvc\14.15.26726\atlmfc\include\atlsimpstr.h
; Line 205
	mov	ecx, -2147467259			; ffffffff80004005H
	call	?AtlThrowImpl@ATL@@YAXJ@Z		; ATL::AtlThrowImpl
	int	3
$LN179@wWinMain:
wWinMain ENDP
_TEXT	ENDS
; Function compile flags: /Ogtpy
;	COMDAT ?__autoclassinit2@Benchmark@@QEAAX_K@Z
_TEXT	SEGMENT
this$ = 8
classSize$dead$ = 16
?__autoclassinit2@Benchmark@@QEAAX_K@Z PROC		; Benchmark::__autoclassinit2, COMDAT
	xor	edx, edx
	mov	r8d, 4314104				; 0041d3f8H
	jmp	memset
?__autoclassinit2@Benchmark@@QEAAX_K@Z ENDP		; Benchmark::__autoclassinit2
_TEXT	ENDS
; Function compile flags: /Ogtpy
;	COMDAT ?MyRegisterClass@@YAGPEAUHINSTANCE__@@@Z
_TEXT	SEGMENT
wcex$ = 32
__$ArrayPad$ = 112
hInstance$ = 144
?MyRegisterClass@@YAGPEAUHINSTANCE__@@@Z PROC		; MyRegisterClass, COMDAT
; File d:\visual studio\cpu_benchmark\cpu_benchmark\cpu_benchmark.cpp
; Line 91
$LN4:
	sub	rsp, 136				; 00000088H
	mov	rax, QWORD PTR __security_cookie
	xor	rax, rsp
	mov	QWORD PTR __$ArrayPad$[rsp], rax
; Line 97
	lea	rax, OFFSET FLAT:?WndProc@@YA_JPEAUHWND__@@I_K_J@Z ; WndProc
	mov	DWORD PTR wcex$[rsp], 80		; 00000050H
	mov	QWORD PTR wcex$[rsp+8], rax
; Line 98
	xor	eax, eax
	mov	DWORD PTR wcex$[rsp+4], 3
	mov	QWORD PTR wcex$[rsp+16], rax
; Line 100
	mov	QWORD PTR wcex$[rsp+24], rcx
; Line 101
	lea	edx, QWORD PTR [rax+107]
	call	QWORD PTR __imp_LoadIconW
; Line 102
	mov	edx, 32512				; 00007f00H
	xor	ecx, ecx
	mov	QWORD PTR wcex$[rsp+32], rax
	call	QWORD PTR __imp_LoadCursorW
; Line 103
	movdqa	xmm0, XMMWORD PTR __xmm@000000000000006d0000000000000006
; Line 106
	mov	edx, 108				; 0000006cH
	mov	rcx, QWORD PTR wcex$[rsp+24]
	mov	QWORD PTR wcex$[rsp+40], rax
	lea	rax, OFFSET FLAT:?szWindowClass@@3PA_WA	; szWindowClass
	mov	QWORD PTR wcex$[rsp+64], rax
	movdqa	XMMWORD PTR wcex$[rsp+48], xmm0
	call	QWORD PTR __imp_LoadIconW
; Line 108
	lea	rcx, QWORD PTR wcex$[rsp]
	mov	QWORD PTR wcex$[rsp+72], rax
	call	QWORD PTR __imp_RegisterClassExW
; Line 109
	mov	rcx, QWORD PTR __$ArrayPad$[rsp]
	xor	rcx, rsp
	call	__security_check_cookie
	add	rsp, 136				; 00000088H
	ret	0
?MyRegisterClass@@YAGPEAUHINSTANCE__@@@Z ENDP		; MyRegisterClass
_TEXT	ENDS
; Function compile flags: /Ogtpy
;	COMDAT ?InitInstance@@YAHPEAUHINSTANCE__@@H@Z
_TEXT	SEGMENT
hInstance$ = 112
nCmdShow$ = 120
?InitInstance@@YAHPEAUHINSTANCE__@@H@Z PROC		; InitInstance, COMDAT
; File d:\visual studio\cpu_benchmark\cpu_benchmark\cpu_benchmark.cpp
; Line 112
$LN5:
	mov	rax, rsp
	mov	QWORD PTR [rax+8], rbx
	push	rdi
	sub	rsp, 96					; 00000060H
; Line 115
	xor	edi, edi
	mov	QWORD PTR ?hInst@@3PEAUHINSTANCE__@@EA, rcx ; hInst
	mov	QWORD PTR [rax-16], rdi
	lea	r8, OFFSET FLAT:?szTitle@@3PA_WA	; szTitle
	mov	QWORD PTR [rax-24], rcx
	mov	ebx, edx
	mov	QWORD PTR [rax-32], rdi
	lea	rdx, OFFSET FLAT:?szWindowClass@@3PA_WA	; szWindowClass
	mov	QWORD PTR [rax-40], rdi
	mov	r9d, 13565952				; 00cf0000H
	mov	DWORD PTR [rax-48], edi
	xor	ecx, ecx
	mov	DWORD PTR [rax-56], -2147483648		; ffffffff80000000H
	mov	DWORD PTR [rax-64], edi
	mov	DWORD PTR [rax-72], -2147483648		; ffffffff80000000H
	call	QWORD PTR __imp_CreateWindowExW
	mov	QWORD PTR ?hWnd@@3PEAUHWND__@@EA, rax	; hWnd
; Line 118
	test	rax, rax
	jne	SHORT $LN2@InitInstan
; Line 130
	mov	rbx, QWORD PTR [rsp+112]
	add	rsp, 96					; 00000060H
	pop	rdi
	ret	0
$LN2@InitInstan:
; Line 123
	mov	edx, ebx
	mov	rcx, rax
	call	QWORD PTR __imp_ShowWindow
; Line 124
	mov	rcx, QWORD PTR ?hWnd@@3PEAUHWND__@@EA	; hWnd
	call	QWORD PTR __imp_UpdateWindow
; Line 126
	mov	rax, QWORD PTR ?hWnd@@3PEAUHWND__@@EA	; hWnd
	lea	r8, OFFSET FLAT:??_C@_1BM@LNAGOHNF@?$AAR?$AAu?$AAn?$AA?5?$AAB?$AAe?$AAn?$AAc?$AAh?$AAm?$AAa?$AAr?$AAk@
	mov	QWORD PTR [rsp+88], rdi
	lea	rdx, OFFSET FLAT:??_C@_1O@KPNLMGP@?$AAb?$AAu?$AAt?$AAt?$AAo?$AAn@
	mov	QWORD PTR [rsp+80], rdi
	mov	r9d, 1342177280				; 50000000H
	mov	QWORD PTR [rsp+72], 101			; 00000065H
	xor	ecx, ecx
	mov	QWORD PTR [rsp+64], rax
	mov	DWORD PTR [rsp+56], 30
	mov	DWORD PTR [rsp+48], 120			; 00000078H
	mov	DWORD PTR [rsp+40], 250			; 000000faH
	mov	DWORD PTR [rsp+32], 85			; 00000055H
	call	QWORD PTR __imp_CreateWindowExW
; Line 130
	mov	rbx, QWORD PTR [rsp+112]
	mov	eax, 1
	add	rsp, 96					; 00000060H
	pop	rdi
	ret	0
?InitInstance@@YAHPEAUHINSTANCE__@@H@Z ENDP		; InitInstance
_TEXT	ENDS
; Function compile flags: /Ogtpy
;	COMDAT ?WndProc@@YA_JPEAUHWND__@@I_K_J@Z
_TEXT	SEGMENT
$T33 = 96
$T20 = 96
$T35 = 112
run_bench$36 = 128
ps$37 = 144
__$ArrayPad$ = 224
hWnd$ = 272
message$ = 280
wParam$ = 288
lParam$ = 296
?WndProc@@YA_JPEAUHWND__@@I_K_J@Z PROC			; WndProc, COMDAT
; File d:\visual studio\cpu_benchmark\cpu_benchmark\cpu_benchmark.cpp
; Line 133
$LN113:
	push	rbx
	push	rdi
	sub	rsp, 248				; 000000f8H
	mov	QWORD PTR $T35[rsp], -2
	mov	rax, QWORD PTR __security_cookie
	xor	rax, rsp
	mov	QWORD PTR __$ArrayPad$[rsp], rax
	mov	rdi, r8
	mov	rbx, rcx
; Line 135
	mov	eax, edx
	sub	eax, 2
	je	$LN13@WndProc
	sub	eax, 13
	je	$LN11@WndProc
	sub	eax, 258				; 00000102H
	je	SHORT $LN6@WndProc
	cmp	eax, 39					; 00000027H
	jne	SHORT $LN110@WndProc
; Line 166
	xor	edx, edx
	mov	rcx, r8
	call	QWORD PTR __imp_SetTextColor
; Line 167
	mov	edx, 1
	mov	rcx, rdi
	call	QWORD PTR __imp_SetBkMode
; Line 168
	mov	ecx, 5
	call	QWORD PTR __imp_GetStockObject
	jmp	$LN1@WndProc
$LN6@WndProc:
; Line 139
	movzx	ecx, di
; Line 140
	sub	ecx, 101				; 00000065H
	je	SHORT $LN7@WndProc
	sub	ecx, 3
	je	SHORT $LN8@WndProc
	cmp	ecx, 1
	mov	rcx, rbx
	je	SHORT $LN9@WndProc
; Line 152
	mov	edx, 273				; 00000111H
$LN110@WndProc:
; Line 177
	call	QWORD PTR __imp_DefWindowProcW
	jmp	$LN1@WndProc
$LN9@WndProc:
; Line 149
	call	QWORD PTR __imp_DestroyWindow
; Line 150
	jmp	$LN2@WndProc
$LN8@WndProc:
; Line 146
	xor	eax, eax
	mov	QWORD PTR [rsp+32], rax
	lea	r9, OFFSET FLAT:?About@@YA_JPEAUHWND__@@I_K_J@Z ; About
	mov	r8, rbx
	lea	edx, QWORD PTR [rax+103]
	mov	rcx, QWORD PTR ?hInst@@3PEAUHINSTANCE__@@EA ; hInst
	call	QWORD PTR __imp_DialogBoxParamW
; Line 147
	jmp	$LN2@WndProc
$LN7@WndProc:
; Line 143
	mov	rbx, QWORD PTR ?b@@3PEAVBenchmark@@EA	; b
; File c:\program files (x86)\microsoft visual studio\2017\community\vc\tools\msvc\14.15.26726\include\memory
; Line 2539
	mov	ecx, 16
	call	??2@YAPEAX_K@Z				; operator new
; File c:\program files (x86)\microsoft visual studio\2017\community\vc\tools\msvc\14.15.26726\include\tuple
; Line 236
	mov	QWORD PTR [rax], rbx
	lea	rcx, OFFSET FLAT:?run@Benchmark@@AEAAHXZ ; Benchmark::run
	mov	QWORD PTR [rax+8], rcx
; File c:\program files (x86)\microsoft visual studio\2017\community\vc\tools\msvc\14.15.26726\include\xutility
; Line 277
	mov	QWORD PTR $T20[rsp], rax
; File c:\program files (x86)\microsoft visual studio\2017\community\vc\tools\msvc\14.15.26726\include\thread
; Line 47
	lea	rdx, QWORD PTR $T20[rsp]
	lea	rcx, QWORD PTR run_bench$36[rsp]
	call	??$_Launch@V?$unique_ptr@V?$tuple@P8Benchmark@@EAAHXZPEAV1@@std@@U?$default_delete@V?$tuple@P8Benchmark@@EAAHXZPEAV1@@std@@@2@@std@@@std@@YAXPEAU_Thrd_imp_t@@$$QEAV?$unique_ptr@V?$tuple@P8Benchmark@@EAAHXZPEAV1@@std@@U?$default_delete@V?$tuple@P8Benchmark@@EAAHXZPEAV1@@std@@@2@@0@@Z ; std::_Launch<std::unique_ptr<std::tuple<int (__cdecl Benchmark::*)(void),Benchmark *>,std::default_delete<std::tuple<int (__cdecl Benchmark::*)(void),Benchmark *> > > >
	npad	1
; File c:\program files (x86)\microsoft visual studio\2017\community\vc\tools\msvc\14.15.26726\include\memory
; Line 2294
	mov	rcx, QWORD PTR $T20[rsp]
	test	rcx, rcx
	je	SHORT $LN91@WndProc
; Line 2084
	mov	edx, 16
	call	??3@YAXPEAX_K@Z				; operator delete
	npad	1
$LN91@WndProc:
; File d:\visual studio\cpu_benchmark\cpu_benchmark\benchmark.cpp
; Line 12
	xor	eax, eax
	mov	QWORD PTR [rsp+88], rax
	mov	QWORD PTR [rsp+80], rax
	mov	QWORD PTR [rsp+72], rax
	mov	rax, QWORD PTR [rbx]
	mov	QWORD PTR [rsp+64], rax
	mov	DWORD PTR [rsp+56], 17
	mov	DWORD PTR [rsp+48], 198			; 000000c6H
	mov	DWORD PTR [rsp+40], 750			; 000002eeH
	mov	DWORD PTR [rsp+32], 750			; 000002eeH
	mov	r9d, 1342177280				; 50000000H
	lea	r8, OFFSET FLAT:??_C@_1CE@OLELPDNA@?$AAR?$AAu?$AAn?$AAn?$AAi?$AAn?$AAg?$AA?5?$AAB?$AAe?$AAn?$AAc?$AAh?$AAm?$AAa@
	lea	rdx, OFFSET FLAT:??_C@_1O@ELLBDENI@?$AAS?$AAT?$AAA?$AAT?$AAI?$AAC@
	xor	ecx, ecx
	call	QWORD PTR __imp_CreateWindowExW
	mov	QWORD PTR [rbx+8], rax
; File c:\program files (x86)\microsoft visual studio\2017\community\vc\tools\msvc\14.15.26726\include\thread
; Line 87
	cmp	DWORD PTR run_bench$36[rsp+8], 0
	jne	SHORT $LN94@WndProc
; Line 88
	mov	ecx, 1
	call	QWORD PTR __imp_?_Throw_Cpp_error@std@@YAXH@Z
$LN94@WndProc:
; File c:\program files (x86)\microsoft visual studio\2017\community\vc\tools\msvc\14.15.26726\include\thr\xthread
; Line 57
	movaps	xmm0, XMMWORD PTR run_bench$36[rsp]
	movdqa	XMMWORD PTR $T33[rsp], xmm0
	lea	rcx, QWORD PTR $T33[rsp]
	call	QWORD PTR __imp__Thrd_detach
; Line 36
	test	eax, eax
	je	SHORT $LN101@WndProc
; Line 37
	mov	ecx, eax
	call	QWORD PTR __imp_?_Throw_C_error@std@@YAXH@Z
	npad	1
$LN101@WndProc:
; File d:\visual studio\cpu_benchmark\cpu_benchmark\cpu_benchmark.cpp
; Line 155
	jmp	SHORT $LN2@WndProc
$LN11@WndProc:
; Line 159
	lea	rdx, QWORD PTR ps$37[rsp]
	call	QWORD PTR __imp_BeginPaint
; Line 161
	lea	rdx, QWORD PTR ps$37[rsp]
	mov	rcx, rbx
	call	QWORD PTR __imp_EndPaint
; Line 163
	jmp	SHORT $LN2@WndProc
$LN13@WndProc:
; Line 171
	xor	ecx, ecx
	call	QWORD PTR __imp_PostQuitMessage
$LN2@WndProc:
; Line 176
	xor	eax, eax
$LN1@WndProc:
; Line 177
	mov	rcx, QWORD PTR __$ArrayPad$[rsp]
	xor	rcx, rsp
	call	__security_check_cookie
	add	rsp, 248				; 000000f8H
	pop	rdi
	pop	rbx
	ret	0
?WndProc@@YA_JPEAUHWND__@@I_K_J@Z ENDP			; WndProc
_TEXT	ENDS
;	COMDAT text$x
text$x	SEGMENT
$T33 = 96
$T20 = 96
$T35 = 112
run_bench$36 = 128
ps$37 = 144
__$ArrayPad$ = 224
hWnd$ = 272
message$ = 280
wParam$ = 288
lParam$ = 296
?dtor$1@?0??WndProc@@YA_JPEAUHWND__@@I_K_J@Z@4HA PROC	; `WndProc'::`1'::dtor$1
	lea	rcx, QWORD PTR $T20[rdx]
	jmp	??1?$unique_ptr@V?$tuple@P8Benchmark@@EAAHXZPEAV1@@std@@U?$default_delete@V?$tuple@P8Benchmark@@EAAHXZPEAV1@@std@@@2@@std@@QEAA@XZ ; std::unique_ptr<std::tuple<int (__cdecl Benchmark::*)(void),Benchmark *>,std::default_delete<std::tuple<int (__cdecl Benchmark::*)(void),Benchmark *> > >::~unique_ptr<std::tuple<int (__cdecl Benchmark::*)(void),Benchmark *>,std::default_delete<std::tuple<int (__cdecl Benchmark::*)(void),Benchmark *> > >
?dtor$1@?0??WndProc@@YA_JPEAUHWND__@@I_K_J@Z@4HA ENDP	; `WndProc'::`1'::dtor$1
$T33 = 96
$T20 = 96
$T35 = 112
run_bench$36 = 128
ps$37 = 144
__$ArrayPad$ = 224
hWnd$ = 272
message$ = 280
wParam$ = 288
lParam$ = 296
?dtor$0@?0??WndProc@@YA_JPEAUHWND__@@I_K_J@Z@4HA PROC	; `WndProc'::`1'::dtor$0
	lea	rcx, QWORD PTR run_bench$36[rdx]
	jmp	??1thread@std@@QEAA@XZ			; std::thread::~thread
?dtor$0@?0??WndProc@@YA_JPEAUHWND__@@I_K_J@Z@4HA ENDP	; `WndProc'::`1'::dtor$0
text$x	ENDS
; Function compile flags: /Ogtpy
;	COMDAT text$x
text$x	SEGMENT
$T33 = 96
$T20 = 96
$T35 = 112
run_bench$36 = 128
ps$37 = 144
__$ArrayPad$ = 224
hWnd$ = 272
message$ = 280
wParam$ = 288
lParam$ = 296
?dtor$1@?0??WndProc@@YA_JPEAUHWND__@@I_K_J@Z@4HA PROC	; `WndProc'::`1'::dtor$1
	lea	rcx, QWORD PTR $T20[rdx]
	jmp	??1?$unique_ptr@V?$tuple@P8Benchmark@@EAAHXZPEAV1@@std@@U?$default_delete@V?$tuple@P8Benchmark@@EAAHXZPEAV1@@std@@@2@@std@@QEAA@XZ ; std::unique_ptr<std::tuple<int (__cdecl Benchmark::*)(void),Benchmark *>,std::default_delete<std::tuple<int (__cdecl Benchmark::*)(void),Benchmark *> > >::~unique_ptr<std::tuple<int (__cdecl Benchmark::*)(void),Benchmark *>,std::default_delete<std::tuple<int (__cdecl Benchmark::*)(void),Benchmark *> > >
?dtor$1@?0??WndProc@@YA_JPEAUHWND__@@I_K_J@Z@4HA ENDP	; `WndProc'::`1'::dtor$1
text$x	ENDS
; Function compile flags: /Ogtpy
;	COMDAT text$x
text$x	SEGMENT
$T33 = 96
$T20 = 96
$T35 = 112
run_bench$36 = 128
ps$37 = 144
__$ArrayPad$ = 224
hWnd$ = 272
message$ = 280
wParam$ = 288
lParam$ = 296
?dtor$0@?0??WndProc@@YA_JPEAUHWND__@@I_K_J@Z@4HA PROC	; `WndProc'::`1'::dtor$0
	lea	rcx, QWORD PTR run_bench$36[rdx]
	jmp	??1thread@std@@QEAA@XZ			; std::thread::~thread
?dtor$0@?0??WndProc@@YA_JPEAUHWND__@@I_K_J@Z@4HA ENDP	; `WndProc'::`1'::dtor$0
text$x	ENDS
; Function compile flags: /Ogtpy
;	COMDAT ?About@@YA_JPEAUHWND__@@I_K_J@Z
_TEXT	SEGMENT
hDlg$ = 48
message$ = 56
wParam$ = 64
lParam$ = 72
?About@@YA_JPEAUHWND__@@I_K_J@Z PROC			; About, COMDAT
; File d:\visual studio\cpu_benchmark\cpu_benchmark\cpu_benchmark.cpp
; Line 180
$LN11:
	sub	rsp, 40					; 00000028H
; Line 182
	sub	edx, 272				; 00000110H
	je	SHORT $LN4@About
	cmp	edx, 1
	jne	SHORT $LN6@About
; Line 187
	lea	eax, DWORD PTR [r8-1]
	cmp	ax, dx
	ja	SHORT $LN6@About
; Line 189
	movzx	edx, r8w
	call	QWORD PTR __imp_EndDialog
$LN4@About:
; Line 195
	mov	eax, 1
	add	rsp, 40					; 00000028H
	ret	0
$LN6@About:
; Line 194
	xor	eax, eax
; Line 195
	add	rsp, 40					; 00000028H
	ret	0
?About@@YA_JPEAUHWND__@@I_K_J@Z ENDP			; About
_TEXT	ENDS
; Function compile flags: /Ogtpy
;	COMDAT ?update_status@@YAXXZ
_TEXT	SEGMENT
$T11 = 48
$T96 = 64
str$ = 72
_Tgt$97 = 80
__$ArrayPad$ = 96
?update_status@@YAXXZ PROC				; update_status, COMDAT
; File d:\visual studio\cpu_benchmark\cpu_benchmark\cpu_benchmark.cpp
; Line 197
$LN192:
	push	rbx
	sub	rsp, 112				; 00000070H
	mov	QWORD PTR $T96[rsp], -2
	mov	rax, QWORD PTR __security_cookie
	xor	rax, rsp
	mov	QWORD PTR __$ArrayPad$[rsp], rax
; File c:\program files (x86)\microsoft visual studio\2017\community\vc\tools\msvc\14.15.26726\atlmfc\include\atlstr.h
; Line 1259
	call	?GetInstance@CAtlStringMgr@ATL@@SAPEAUIAtlStringMgr@2@XZ ; ATL::CAtlStringMgr::GetInstance
	mov	rcx, rax
; File c:\program files (x86)\microsoft visual studio\2017\community\vc\tools\msvc\14.15.26726\atlmfc\include\atlsimpstr.h
; Line 205
	test	rax, rax
	jne	SHORT $LN14@update_sta
	mov	ecx, -2147467259			; ffffffff80004005H
	call	?AtlThrowImpl@ATL@@YAXJ@Z		; ATL::AtlThrowImpl
	int	3
$LN14@update_sta:
; Line 206
	mov	rax, QWORD PTR [rax]
	call	QWORD PTR [rax+24]
; Line 59
	add	rax, 24
	mov	QWORD PTR str$[rsp], rax
; File d:\visual studio\cpu_benchmark\cpu_benchmark\cpu_benchmark.cpp
; Line 198
	mov	rbx, 1237940039285380275		; 112e0be826d694b3H
	npad	1
$LL2@update_sta:
; Line 201
	lea	rcx, OFFSET FLAT:?mem_status@@3U_MEMORYSTATUSEX@@A ; mem_status
	call	QWORD PTR __imp_GlobalMemoryStatusEx
; Line 202
	mov	rdx, QWORD PTR ?mem_status@@3U_MEMORYSTATUSEX@@A+16
	shr	rdx, 20
	mov	r9, QWORD PTR ?mem_status@@3U_MEMORYSTATUSEX@@A+8
	mov	rcx, r9
	shr	rcx, 20
	sub	r9, QWORD PTR ?mem_status@@3U_MEMORYSTATUSEX@@A+16
	shr	r9, 20
	mov	QWORD PTR [rsp+40], rdx
	mov	QWORD PTR [rsp+32], rcx
	mov	r8d, DWORD PTR ?mem_status@@3U_MEMORYSTATUSEX@@A+4
	lea	rdx, OFFSET FLAT:??_C@_1BEM@CGCCBALC@?$AAS?$AAy?$AAs?$AAt?$AAe?$AAm?$AA?5?$AAM?$AAe?$AAm?$AAo?$AAr?$AAy?$AA?5?$AAS@
	lea	rcx, QWORD PTR str$[rsp]
	call	?Format@?$CStringT@_WV?$StrTraitATL@_WV?$ChTraitsCRT@_W@ATL@@@ATL@@@ATL@@QEAAXPEB_WZZ ; ATL::CStringT<wchar_t,ATL::StrTraitATL<wchar_t,ATL::ChTraitsCRT<wchar_t> > >::Format
; Line 209
	mov	rdx, QWORD PTR str$[rsp]
	mov	rcx, QWORD PTR ?mem@@3PEAUHWND__@@EA	; mem
	call	QWORD PTR __imp_SetWindowTextW
; Line 210
	xor	edx, edx
	mov	rcx, QWORD PTR ?mem@@3PEAUHWND__@@EA	; mem
	call	QWORD PTR __imp_ShowWindow
; Line 211
	mov	edx, 5
	mov	rcx, QWORD PTR ?mem@@3PEAUHWND__@@EA	; mem
	call	QWORD PTR __imp_ShowWindow
; Line 212
	mov	rax, QWORD PTR ?mem_status@@3U_MEMORYSTATUSEX@@A+8
	sub	rax, QWORD PTR ?mem_status@@3U_MEMORYSTATUSEX@@A+16
	shr	rax, 20
	mov	DWORD PTR ?mem_percent@@3PAHA, eax
; File c:\program files (x86)\microsoft visual studio\2017\community\vc\tools\msvc\14.15.26726\include\chrono
; Line 775
	call	QWORD PTR __imp__Xtime_get_ticks
; Line 507
	add	rax, 10000000				; 00989680H
	imul	rcx, rax, 100				; 00000064H
; Line 141
	mov	rax, rbx
	imul	rcx
	sar	rdx, 26
	mov	rax, rdx
	shr	rax, 63					; 0000003fH
	add	rdx, rax
; Line 828
	mov	QWORD PTR $T11[rsp], rdx
	imul	eax, edx, 1000000000			; 3b9aca00H
; Line 507
	sub	ecx, eax
; Line 830
	mov	DWORD PTR $T11[rsp+8], ecx
; File c:\program files (x86)\microsoft visual studio\2017\community\vc\tools\msvc\14.15.26726\include\thread
; Line 135
	movaps	xmm0, XMMWORD PTR $T11[rsp]
	movdqa	XMMWORD PTR _Tgt$97[rsp], xmm0
; Line 128
	lea	rcx, QWORD PTR _Tgt$97[rsp]
	call	QWORD PTR __imp__Thrd_sleep
; File d:\visual studio\cpu_benchmark\cpu_benchmark\cpu_benchmark.cpp
; Line 216
	jmp	$LL2@update_sta
	int	3
$LN191@update_sta:
?update_status@@YAXXZ ENDP				; update_status
_TEXT	ENDS
;	COMDAT text$x
text$x	SEGMENT
$T11 = 48
$T96 = 64
str$ = 72
_Tgt$97 = 80
__$ArrayPad$ = 96
?dtor$0@?0??update_status@@YAXXZ@4HA PROC		; `update_status'::`1'::dtor$0
	lea	rcx, QWORD PTR str$[rdx]
	jmp	??1?$CStringT@_WV?$StrTraitATL@_WV?$ChTraitsCRT@_W@ATL@@@ATL@@@ATL@@QEAA@XZ ; ATL::CStringT<wchar_t,ATL::StrTraitATL<wchar_t,ATL::ChTraitsCRT<wchar_t> > >::~CStringT<wchar_t,ATL::StrTraitATL<wchar_t,ATL::ChTraitsCRT<wchar_t> > >
?dtor$0@?0??update_status@@YAXXZ@4HA ENDP		; `update_status'::`1'::dtor$0
text$x	ENDS
; Function compile flags: /Ogtpy
;	COMDAT text$x
text$x	SEGMENT
$T11 = 48
$T96 = 64
str$ = 72
_Tgt$97 = 80
__$ArrayPad$ = 96
?dtor$0@?0??update_status@@YAXXZ@4HA PROC		; `update_status'::`1'::dtor$0
	lea	rcx, QWORD PTR str$[rdx]
	jmp	??1?$CStringT@_WV?$StrTraitATL@_WV?$ChTraitsCRT@_W@ATL@@@ATL@@@ATL@@QEAA@XZ ; ATL::CStringT<wchar_t,ATL::StrTraitATL<wchar_t,ATL::ChTraitsCRT<wchar_t> > >::~CStringT<wchar_t,ATL::StrTraitATL<wchar_t,ATL::ChTraitsCRT<wchar_t> > >
?dtor$0@?0??update_status@@YAXXZ@4HA ENDP		; `update_status'::`1'::dtor$0
text$x	ENDS
; Function compile flags: /Ogtpy
;	COMDAT ?__autoclassinit2@?$CStringT@_WV?$StrTraitATL@_WV?$ChTraitsCRT@_W@ATL@@@ATL@@@ATL@@QEAAX_K@Z
_TEXT	SEGMENT
this$ = 8
classSize$dead$ = 16
?__autoclassinit2@?$CStringT@_WV?$StrTraitATL@_WV?$ChTraitsCRT@_W@ATL@@@ATL@@@ATL@@QEAAX_K@Z PROC ; ATL::CStringT<wchar_t,ATL::StrTraitATL<wchar_t,ATL::ChTraitsCRT<wchar_t> > >::__autoclassinit2, COMDAT
	xor	eax, eax
	mov	QWORD PTR [rcx], rax
	ret	0
?__autoclassinit2@?$CStringT@_WV?$StrTraitATL@_WV?$ChTraitsCRT@_W@ATL@@@ATL@@@ATL@@QEAAX_K@Z ENDP ; ATL::CStringT<wchar_t,ATL::StrTraitATL<wchar_t,ATL::ChTraitsCRT<wchar_t> > >::__autoclassinit2
_TEXT	ENDS
; Function compile flags: /Ogtpy
;	COMDAT ?get_cpu_info@@YAXXZ
_TEXT	SEGMENT
$T1 = 48
$T183 = 52
$T184 = 52
$T185 = 52
$T85 = 56
$T186 = 64
$T67 = 72
$T77 = 80
$T97 = 88
$T93 = 96
pData$1$ = 104
$T187 = 112
hKey$ = 120
str$ = 128
dwMHz$ = 136
cpu_info$ = 144
extdata_$ = 160
BufSize$ = 184
sMHz$ = 192
brand_$ = 200
data_$ = 232
temp$ = 256
brand$ = 272
__$ArrayPad$ = 336
?get_cpu_info@@YAXXZ PROC				; get_cpu_info, COMDAT
; File d:\visual studio\cpu_benchmark\cpu_benchmark\cpu_benchmark.cpp
; Line 219
$LN1035:
	mov	rax, rsp
	push	rbp
	push	r12
	push	r13
	push	r14
	push	r15
	lea	rbp, QWORD PTR [rsp-96]
	sub	rsp, 352				; 00000160H
	mov	QWORD PTR $T187[rsp], -2
	mov	QWORD PTR [rax+8], rbx
	mov	QWORD PTR [rax+16], rsi
	mov	QWORD PTR [rax+24], rdi
	mov	rax, QWORD PTR __security_cookie
	xor	rax, rsp
	mov	QWORD PTR __$ArrayPad$[rbp-256], rax
	xor	r12d, r12d
	mov	DWORD PTR $T1[rsp], r12d
; File c:\program files (x86)\microsoft visual studio\2017\community\vc\tools\msvc\14.15.26726\atlmfc\include\atlstr.h
; Line 1259
	call	?GetInstance@CAtlStringMgr@ATL@@SAPEAUIAtlStringMgr@2@XZ ; ATL::CAtlStringMgr::GetInstance
	mov	rcx, rax
; File c:\program files (x86)\microsoft visual studio\2017\community\vc\tools\msvc\14.15.26726\atlmfc\include\atlsimpstr.h
; Line 205
	test	rax, rax
	je	$LN1022@get_cpu_in
; Line 206
	mov	rax, QWORD PTR [rax]
	call	QWORD PTR [rax+24]
; Line 59
	add	rax, 24
	mov	QWORD PTR sMHz$[rbp-256], rax
; File d:\visual studio\cpu_benchmark\cpu_benchmark\cpu_benchmark.cpp
; Line 222
	mov	DWORD PTR BufSize$[rbp-256], 260	; 00000104H
; Line 223
	mov	DWORD PTR dwMHz$[rbp-256], 260		; 00000104H
; File c:\program files (x86)\microsoft visual studio\2017\community\vc\tools\msvc\14.15.26726\atlmfc\include\atlstr.h
; Line 1259
	call	?GetInstance@CAtlStringMgr@ATL@@SAPEAUIAtlStringMgr@2@XZ ; ATL::CAtlStringMgr::GetInstance
	mov	rcx, rax
; File c:\program files (x86)\microsoft visual studio\2017\community\vc\tools\msvc\14.15.26726\atlmfc\include\atlsimpstr.h
; Line 205
	test	rax, rax
	je	$LN1023@get_cpu_in
; Line 206
	mov	rax, QWORD PTR [rax]
	call	QWORD PTR [rax+24]
; Line 59
	lea	rdi, QWORD PTR [rax+24]
	mov	QWORD PTR str$[rbp-256], rdi
; File c:\program files (x86)\microsoft visual studio\2017\community\vc\tools\msvc\14.15.26726\atlmfc\include\atlstr.h
; Line 1259
	call	?GetInstance@CAtlStringMgr@ATL@@SAPEAUIAtlStringMgr@2@XZ ; ATL::CAtlStringMgr::GetInstance
	mov	rcx, rax
; File c:\program files (x86)\microsoft visual studio\2017\community\vc\tools\msvc\14.15.26726\atlmfc\include\atlsimpstr.h
; Line 205
	test	rax, rax
	je	$LN1024@get_cpu_in
; Line 206
	mov	rax, QWORD PTR [rax]
	call	QWORD PTR [rax+24]
	mov	QWORD PTR pData$1$[rsp], rax
; Line 59
	lea	rcx, QWORD PTR [rax+24]
	mov	QWORD PTR temp$[rbp-256], rcx
; File c:\program files (x86)\microsoft visual studio\2017\community\vc\tools\msvc\14.15.26726\include\vector
; Line 389
	mov	QWORD PTR data_$[rbp-256], r12
	xorps	xmm0, xmm0
; Line 390
	movdqu	XMMWORD PTR data_$[rbp-248], xmm0
; File c:\program files (x86)\microsoft visual studio\2017\community\vc\tools\msvc\14.15.26726\include\xstring
; Line 3976
	movdqa	xmm0, XMMWORD PTR __xmm@000000000000000f0000000000000000
	movdqu	XMMWORD PTR brand_$[rbp-240], xmm0
; File c:\program files (x86)\microsoft visual studio\2017\community\vc\tools\msvc\14.15.26726\include\iosfwd
; Line 506
	mov	BYTE PTR brand_$[rbp-256], r12b
	xorps	xmm0, xmm0
; File c:\program files (x86)\microsoft visual studio\2017\community\vc\tools\msvc\14.15.26726\include\vector
; Line 389
	movdqu	XMMWORD PTR extdata_$[rbp-256], xmm0
; Line 391
	mov	r8d, r12d
	mov	QWORD PTR extdata_$[rbp-240], r12
; File d:\visual studio\cpu_benchmark\cpu_benchmark\cpu_benchmark.cpp
; Line 233
	mov	esi, -2147483648			; ffffffff80000000H
	mov	eax, esi
	xor	ecx, ecx
	cpuid
	mov	r14d, eax
	mov	DWORD PTR cpu_info$[rbp-252], ebx
	mov	DWORD PTR cpu_info$[rbp-248], ecx
	mov	DWORD PTR cpu_info$[rbp-244], edx
; Line 237
	xor	eax, eax
	mov	QWORD PTR brand$[rbp-256], rax
	mov	QWORD PTR brand$[rbp-248], rax
	mov	QWORD PTR brand$[rbp-240], rax
	mov	QWORD PTR brand$[rbp-232], rax
	mov	QWORD PTR brand$[rbp-224], rax
	mov	QWORD PTR brand$[rbp-216], rax
	mov	QWORD PTR brand$[rbp-208], rax
	mov	QWORD PTR brand$[rbp-200], rax
; File c:\program files (x86)\microsoft visual studio\2017\community\vc\tools\msvc\14.15.26726\atlmfc\include\atlsimpstr.h
; Line 206
	mov	r9, QWORD PTR extdata_$[rbp-248]
	npad	4
$LL4@get_cpu_in:
; File d:\visual studio\cpu_benchmark\cpu_benchmark\cpu_benchmark.cpp
; Line 241
	mov	eax, esi
	xor	ecx, ecx
	cpuid
	mov	DWORD PTR cpu_info$[rbp-256], eax
	mov	DWORD PTR cpu_info$[rbp-252], ebx
	mov	DWORD PTR cpu_info$[rbp-248], ecx
	mov	DWORD PTR cpu_info$[rbp-244], edx
; File c:\program files (x86)\microsoft visual studio\2017\community\vc\tools\msvc\14.15.26726\include\vector
; Line 917
	cmp	r8, r9
	je	SHORT $LN136@get_cpu_in
; File c:\program files (x86)\microsoft visual studio\2017\community\vc\tools\msvc\14.15.26726\include\xmemory0
; Line 879
	movups	xmm0, XMMWORD PTR cpu_info$[rbp-256]
	movups	XMMWORD PTR [r9], xmm0
; File c:\program files (x86)\microsoft visual studio\2017\community\vc\tools\msvc\14.15.26726\include\vector
; Line 905
	add	r9, 16
	mov	QWORD PTR extdata_$[rbp-248], r9
; Line 919
	jmp	SHORT $LN2@get_cpu_in
$LN136@get_cpu_in:
; Line 922
	lea	r8, QWORD PTR cpu_info$[rbp-256]
	mov	rdx, r9
	lea	rcx, QWORD PTR extdata_$[rbp-256]
	call	??$_Emplace_reallocate@AEBV?$array@H$03@std@@@?$vector@V?$array@H$03@std@@V?$allocator@V?$array@H$03@std@@@2@@std@@QEAAPEAV?$array@H$03@1@QEAV21@AEBV21@@Z ; std::vector<std::array<int,4>,std::allocator<std::array<int,4> > >::_Emplace_reallocate<std::array<int,4> const &>
	mov	r8, QWORD PTR extdata_$[rbp-240]
	mov	r9, QWORD PTR extdata_$[rbp-248]
$LN2@get_cpu_in:
; File d:\visual studio\cpu_benchmark\cpu_benchmark\cpu_benchmark.cpp
; Line 239
	inc	esi
	cmp	esi, r14d
	jle	SHORT $LL4@get_cpu_in
; Line 249
	mov	r15, -1
	cmp	r14d, -2147483644			; 80000004H
	jb	SHORT $LN6@get_cpu_in
; File c:\program files (x86)\microsoft visual studio\2017\community\vc\tools\msvc\14.15.26726\include\array
; Line 212
	mov	rax, QWORD PTR extdata_$[rbp-256]
; File d:\visual studio\cpu_benchmark\cpu_benchmark\cpu_benchmark.cpp
; Line 251
	movups	xmm0, XMMWORD PTR [rax+32]
	movaps	XMMWORD PTR brand$[rbp-256], xmm0
; Line 252
	movups	xmm0, XMMWORD PTR [rax+48]
	movaps	XMMWORD PTR brand$[rbp-240], xmm0
; Line 253
	movups	xmm0, XMMWORD PTR [rax+64]
	movaps	XMMWORD PTR brand$[rbp-224], xmm0
; File c:\program files (x86)\microsoft visual studio\2017\community\vc\tools\msvc\14.15.26726\include\iosfwd
; Line 464
	lea	rax, QWORD PTR brand$[rbp-256]
	mov	r8, r15
	npad	5
$LL1019@get_cpu_in:
	inc	r8
	cmp	BYTE PTR [rax+r8], 0
	jne	SHORT $LL1019@get_cpu_in
; File c:\program files (x86)\microsoft visual studio\2017\community\vc\tools\msvc\14.15.26726\include\xstring
; Line 2676
	lea	rdx, QWORD PTR brand$[rbp-256]
	lea	rcx, QWORD PTR brand_$[rbp-256]
	call	?assign@?$basic_string@DU?$char_traits@D@std@@V?$allocator@D@2@@std@@QEAAAEAV12@QEBD_K@Z ; std::basic_string<char,std::char_traits<char>,std::allocator<char> >::assign
$LN6@get_cpu_in:
; Line 1814
	lea	r14, QWORD PTR brand_$[rbp-256]
; Line 1825
	mov	r13d, 1
	cmp	QWORD PTR brand_$[rbp-232], 16
; Line 1815
	jb	SHORT $LN1014@get_cpu_in
; File c:\program files (x86)\microsoft visual studio\2017\community\vc\tools\msvc\14.15.26726\include\xstddef
; Line 346
	mov	r14, QWORD PTR brand_$[rbp-256]
	test	r14, r14
; File c:\program files (x86)\microsoft visual studio\2017\community\vc\tools\msvc\14.15.26726\atlmfc\include\cstringt.h
; Line 1324
	je	SHORT $LN290@get_cpu_in
$LN1014@get_cpu_in:
; Line 744
	mov	DWORD PTR [rsp+40], r12d
	mov	QWORD PTR [rsp+32], r12
	mov	r9d, r15d
	mov	r8, r14
	xor	edx, edx
	lea	ecx, QWORD PTR [rdx+3]
	call	QWORD PTR __imp_MultiByteToWideChar
	lea	esi, DWORD PTR [rax-1]
; Line 1325
	test	esi, esi
	jle	SHORT $LN290@get_cpu_in
; File c:\program files (x86)\microsoft visual studio\2017\community\vc\tools\msvc\14.15.26726\atlmfc\include\atlsimpstr.h
; Line 808
	mov	ebx, r13d
	sub	ebx, DWORD PTR [rdi-8]
; Line 809
	mov	edx, DWORD PTR [rdi-12]
	sub	edx, esi
; Line 810
	or	edx, ebx
	jge	SHORT $LN303@get_cpu_in
; Line 812
	mov	edx, esi
	lea	rcx, QWORD PTR str$[rbp-256]
	call	?PrepareWrite2@?$CSimpleStringT@_W$0A@@ATL@@AEAAXH@Z ; ATL::CSimpleStringT<wchar_t,0>::PrepareWrite2
	mov	rdi, QWORD PTR str$[rbp-256]
$LN303@get_cpu_in:
; File c:\program files (x86)\microsoft visual studio\2017\community\vc\tools\msvc\14.15.26726\atlmfc\include\cstringt.h
; Line 777
	mov	DWORD PTR [rsp+40], esi
	mov	QWORD PTR [rsp+32], rdi
	mov	r9d, r15d
	mov	r8, r14
	xor	edx, edx
	lea	ecx, QWORD PTR [rdx+3]
	call	QWORD PTR __imp_MultiByteToWideChar
; File c:\program files (x86)\microsoft visual studio\2017\community\vc\tools\msvc\14.15.26726\atlmfc\include\atlsimpstr.h
; Line 871
	cmp	esi, DWORD PTR [rdi-12]
	jg	$LN317@get_cpu_in
; Line 874
	mov	DWORD PTR [rdi-16], esi
; Line 875
	movsxd	rax, esi
	mov	WORD PTR [rdi+rax*2], r12w
; File c:\program files (x86)\microsoft visual studio\2017\community\vc\tools\msvc\14.15.26726\atlmfc\include\cstringt.h
; Line 1331
	jmp	SHORT $LN327@get_cpu_in
$LN290@get_cpu_in:
; File c:\program files (x86)\microsoft visual studio\2017\community\vc\tools\msvc\14.15.26726\atlmfc\include\atlsimpstr.h
; Line 800
	lea	rdx, QWORD PTR [rdi-24]
; Line 438
	mov	rbx, QWORD PTR [rdx]
; Line 439
	cmp	DWORD PTR [rdx+8], 0
	je	SHORT $LN327@get_cpu_in
; Line 69
	cmp	DWORD PTR [rdx+16], 0
; Line 444
	jge	SHORT $LN326@get_cpu_in
; Line 871
	cmp	DWORD PTR [rdi-12], 0
	jl	$LN1025@get_cpu_in
; Line 874
	mov	DWORD PTR [rdi-16], r12d
; Line 875
	mov	WORD PTR [rdi], r12w
; Line 449
	jmp	SHORT $LN327@get_cpu_in
$LN326@get_cpu_in:
; Line 88
	mov	eax, r15d
	lock xadd DWORD PTR [rdx+16], eax
	sub	eax, r13d
	jg	SHORT $LN343@get_cpu_in
; Line 90
	mov	rcx, QWORD PTR [rdx]
	mov	rax, QWORD PTR [rcx]
	call	QWORD PTR [rax+8]
$LN343@get_cpu_in:
; Line 452
	mov	rax, QWORD PTR [rbx]
	mov	rcx, rbx
	call	QWORD PTR [rax+24]
; Line 59
	lea	rdi, QWORD PTR [rax+24]
	mov	QWORD PTR str$[rbp-256], rdi
$LN327@get_cpu_in:
	mov	QWORD PTR $T67[rsp], r12
; Line 523
	lea	r12, QWORD PTR [rdi-24]
	mov	rcx, QWORD PTR [r12]
; Line 524
	test	rcx, rcx
	je	SHORT $LN1015@get_cpu_in
	mov	rax, QWORD PTR [rcx]
	call	QWORD PTR [rax+32]
	mov	rcx, rax
; File c:\program files (x86)\microsoft visual studio\2017\community\vc\tools\msvc\14.15.26726\atlmfc\include\cstringt.h
; Line 1434
	test	rax, rax
	jne	SHORT $LN371@get_cpu_in
$LN1015@get_cpu_in:
; File c:\program files (x86)\microsoft visual studio\2017\community\vc\tools\msvc\14.15.26726\atlmfc\include\atlstr.h
; Line 1259
	call	?GetInstance@CAtlStringMgr@ATL@@SAPEAUIAtlStringMgr@2@XZ ; ATL::CAtlStringMgr::GetInstance
; File c:\program files (x86)\microsoft visual studio\2017\community\vc\tools\msvc\14.15.26726\atlmfc\include\cstringt.h
; Line 1437
	mov	rdx, QWORD PTR [rax]
	mov	rcx, rax
	call	QWORD PTR [rdx+32]
	mov	rcx, rax
$LN371@get_cpu_in:
; File c:\program files (x86)\microsoft visual studio\2017\community\vc\tools\msvc\14.15.26726\atlmfc\include\atlsimpstr.h
; Line 205
	test	rcx, rcx
	je	$LN1026@get_cpu_in
; Line 206
	mov	rax, QWORD PTR [rcx]
	call	QWORD PTR [rax+24]
; Line 59
	lea	rbx, QWORD PTR [rax+24]
; Line 780
	mov	QWORD PTR $T67[rsp], rbx
; File c:\program files (x86)\microsoft visual studio\2017\community\vc\tools\msvc\14.15.26726\atlmfc\include\cstringt.h
; Line 2399
	mov	DWORD PTR $T1[rsp], r13d
; File c:\program files (x86)\microsoft visual studio\2017\community\vc\tools\msvc\14.15.26726\atlmfc\include\atlsimpstr.h
; Line 734
	lea	rax, OFFSET FLAT:??_C@_13LBAGMAIH@?$AA?6@
	mov	r14, r15
	npad	9
$LL1018@get_cpu_in:
	inc	r14
	cmp	WORD PTR [rax+r14*2], 0
	jne	SHORT $LL1018@get_cpu_in
; Line 519
	mov	edx, DWORD PTR [rdi-16]
	mov	DWORD PTR $T185[rsp], edx
; Line 765
	lea	r13d, DWORD PTR [rdx+r14]
; Line 804
	test	r13d, r13d
	js	$LN1027@get_cpu_in
; Line 808
	mov	ecx, 1
	sub	ecx, DWORD PTR [rbx-8]
; Line 809
	mov	eax, DWORD PTR [rbx-12]
	sub	eax, r13d
; Line 810
	or	eax, ecx
	jge	SHORT $LN398@get_cpu_in
; Line 812
	mov	edx, r13d
	lea	rcx, QWORD PTR $T67[rsp]
	call	?PrepareWrite2@?$CSimpleStringT@_W$0A@@ATL@@AEAAXH@Z ; ATL::CSimpleStringT<wchar_t,0>::PrepareWrite2
	mov	rbx, QWORD PTR $T67[rsp]
	mov	edx, DWORD PTR $T185[rsp]
$LN398@get_cpu_in:
; Line 767
	movsxd	rsi, edx
	mov	r9d, edx
	mov	r8, rdi
	mov	rdx, rsi
	mov	rcx, rbx
	call	?CopyChars@?$CSimpleStringT@_W$0A@@ATL@@SAXPEA_W_KPEB_WH@Z ; ATL::CSimpleStringT<wchar_t,0>::CopyChars
; Line 768
	movsxd	rdx, r14d
	lea	rcx, QWORD PTR [rbx+rsi*2]
	mov	r9d, r14d
	lea	r8, OFFSET FLAT:??_C@_13LBAGMAIH@?$AA?6@
	call	?CopyChars@?$CSimpleStringT@_W$0A@@ATL@@SAXPEA_W_KPEB_WH@Z ; ATL::CSimpleStringT<wchar_t,0>::CopyChars
; Line 871
	cmp	r13d, DWORD PTR [rbx-12]
	jg	$LN408@get_cpu_in
; Line 874
	mov	DWORD PTR [rbx-16], r13d
; Line 875
	movsxd	rax, r13d
	xor	r14d, r14d
	mov	WORD PTR [rbx+rax*2], r14w
; Line 800
	lea	rdi, QWORD PTR [rbx-24]
; Line 274
	cmp	rdi, r12
	je	SHORT $LN420@get_cpu_in
; Line 69
	cmp	DWORD PTR [r12+16], r14d
; Line 276
	jl	SHORT $LN421@get_cpu_in
	mov	rax, QWORD PTR [r12]
	cmp	QWORD PTR [rdi], rax
	jne	SHORT $LN421@get_cpu_in
; Line 282
	mov	rcx, rdi
	call	?CloneData@?$CSimpleStringT@_W$0A@@ATL@@CAPEAUCStringData@2@PEAU32@@Z ; ATL::CSimpleStringT<wchar_t,0>::CloneData
	mov	rsi, rax
; Line 88
	mov	ecx, r15d
	lock xadd DWORD PTR [r12+16], ecx
	sub	ecx, 1
	jg	SHORT $LN436@get_cpu_in
; Line 90
	mov	rcx, QWORD PTR [r12]
	mov	rbx, QWORD PTR [rcx]
	mov	rdx, r12
	call	QWORD PTR [rbx+8]
$LN436@get_cpu_in:
; Line 59
	lea	rax, QWORD PTR [rsi+24]
	mov	QWORD PTR str$[rbp-256], rax
; Line 780
	jmp	SHORT $LN420@get_cpu_in
$LN421@get_cpu_in:
; Line 278
	mov	r8d, DWORD PTR [rbx-16]
	mov	rdx, rbx
	lea	rcx, QWORD PTR str$[rbp-256]
	call	?SetString@?$CSimpleStringT@_W$0A@@ATL@@QEAAXPEB_WH@Z ; ATL::CSimpleStringT<wchar_t,0>::SetString
$LN420@get_cpu_in:
; File d:\visual studio\cpu_benchmark\cpu_benchmark\cpu_benchmark.cpp
; Line 257
	mov	DWORD PTR $T1[rsp], r14d
; File c:\program files (x86)\microsoft visual studio\2017\community\vc\tools\msvc\14.15.26726\atlmfc\include\atlsimpstr.h
; Line 88
	mov	eax, r15d
	lock xadd DWORD PTR [rdi+16], eax
	sub	eax, 1
	jg	SHORT $LN449@get_cpu_in
; Line 90
	mov	rcx, QWORD PTR [rdi]
	mov	rax, QWORD PTR [rcx]
	mov	rdx, rdi
	call	QWORD PTR [rax+8]
$LN449@get_cpu_in:
; File d:\visual studio\cpu_benchmark\cpu_benchmark\cpu_benchmark.cpp
; Line 258
	lea	rax, QWORD PTR hKey$[rsp]
	mov	QWORD PTR [rsp+32], rax
	mov	r9d, 131097				; 00020019H
	xor	r8d, r8d
	lea	rdx, OFFSET FLAT:??_C@_1FO@JMGGDBHO@?$AAH?$AAA?$AAR?$AAD?$AAW?$AAA?$AAR?$AAE?$AA?2?$AAD?$AAE?$AAS?$AAC?$AAR?$AAI@
	mov	rcx, -2147483646			; ffffffff80000002H
	call	QWORD PTR __imp_RegOpenKeyExW
; Line 263
	lea	rax, QWORD PTR BufSize$[rbp-256]
	mov	QWORD PTR [rsp+40], rax
	lea	rax, QWORD PTR dwMHz$[rbp-256]
	mov	QWORD PTR [rsp+32], rax
	xor	r9d, r9d
	xor	r8d, r8d
	lea	rdx, OFFSET FLAT:??_C@_19KBOEDNGH@?$AA?$HO?$AAM?$AAH?$AAz@
	mov	rcx, QWORD PTR hKey$[rsp]
	call	QWORD PTR __imp_RegQueryValueExW
; Line 264
	mov	r8d, DWORD PTR dwMHz$[rbp-256]
	lea	rdx, OFFSET FLAT:??_C@_15KNBIKKIN@?$AA?$CF?$AAd@
	lea	rcx, QWORD PTR sMHz$[rbp-256]
	call	?Format@?$CStringT@_WV?$StrTraitATL@_WV?$ChTraitsCRT@_W@ATL@@@ATL@@@ATL@@QEAAXPEB_WZZ ; ATL::CStringT<wchar_t,ATL::StrTraitATL<wchar_t,ATL::ChTraitsCRT<wchar_t> > >::Format
	npad	1
	mov	QWORD PTR $T77[rsp], r14
; File c:\program files (x86)\microsoft visual studio\2017\community\vc\tools\msvc\14.15.26726\atlmfc\include\atlsimpstr.h
; Line 523
	mov	rdi, QWORD PTR str$[rbp-256]
	lea	r12, QWORD PTR [rdi-24]
	mov	rcx, QWORD PTR [r12]
; Line 524
	test	rcx, rcx
	je	SHORT $LN458@get_cpu_in
	mov	rax, QWORD PTR [rcx]
	call	QWORD PTR [rax+32]
	mov	rcx, rax
; File c:\program files (x86)\microsoft visual studio\2017\community\vc\tools\msvc\14.15.26726\atlmfc\include\cstringt.h
; Line 1434
	test	rax, rax
	jne	SHORT $LN473@get_cpu_in
$LN458@get_cpu_in:
; File c:\program files (x86)\microsoft visual studio\2017\community\vc\tools\msvc\14.15.26726\atlmfc\include\atlstr.h
; Line 1259
	call	?GetInstance@CAtlStringMgr@ATL@@SAPEAUIAtlStringMgr@2@XZ ; ATL::CAtlStringMgr::GetInstance
; File c:\program files (x86)\microsoft visual studio\2017\community\vc\tools\msvc\14.15.26726\atlmfc\include\cstringt.h
; Line 1437
	mov	rdx, QWORD PTR [rax]
	mov	rcx, rax
	call	QWORD PTR [rdx+32]
	mov	rcx, rax
$LN473@get_cpu_in:
; File c:\program files (x86)\microsoft visual studio\2017\community\vc\tools\msvc\14.15.26726\atlmfc\include\atlsimpstr.h
; Line 205
	test	rcx, rcx
	je	$LN1028@get_cpu_in
; Line 206
	mov	rax, QWORD PTR [rcx]
	call	QWORD PTR [rax+24]
; Line 59
	lea	rbx, QWORD PTR [rax+24]
; Line 780
	mov	QWORD PTR $T77[rsp], rbx
; File c:\program files (x86)\microsoft visual studio\2017\community\vc\tools\msvc\14.15.26726\atlmfc\include\cstringt.h
; Line 2399
	mov	DWORD PTR $T1[rsp], 2
; File c:\program files (x86)\microsoft visual studio\2017\community\vc\tools\msvc\14.15.26726\atlmfc\include\atlsimpstr.h
; Line 734
	lea	rax, OFFSET FLAT:??_C@_1DO@JEEELCIN@?$AAC?$AAl?$AAo?$AAc?$AAk?$AA?5?$AAS?$AAp?$AAe?$AAe?$AAd?$AA?3?$AA?5?$AA?5?$AA?5@
	mov	r14, r15
	npad	9
$LL1017@get_cpu_in:
	inc	r14
	cmp	WORD PTR [rax+r14*2], 0
	jne	SHORT $LL1017@get_cpu_in
; Line 519
	mov	edx, DWORD PTR [rdi-16]
	mov	DWORD PTR $T184[rsp], edx
; Line 765
	lea	r13d, DWORD PTR [rdx+r14]
; Line 804
	test	r13d, r13d
	js	$LN1029@get_cpu_in
; Line 808
	mov	ecx, 1
	sub	ecx, DWORD PTR [rbx-8]
; Line 809
	mov	eax, DWORD PTR [rbx-12]
	sub	eax, r13d
; Line 810
	or	eax, ecx
	jge	SHORT $LN500@get_cpu_in
; Line 812
	mov	edx, r13d
	lea	rcx, QWORD PTR $T77[rsp]
	call	?PrepareWrite2@?$CSimpleStringT@_W$0A@@ATL@@AEAAXH@Z ; ATL::CSimpleStringT<wchar_t,0>::PrepareWrite2
	mov	rbx, QWORD PTR $T77[rsp]
	mov	edx, DWORD PTR $T184[rsp]
$LN500@get_cpu_in:
; Line 767
	movsxd	rsi, edx
	mov	r9d, edx
	mov	r8, rdi
	mov	rdx, rsi
	mov	rcx, rbx
	call	?CopyChars@?$CSimpleStringT@_W$0A@@ATL@@SAXPEA_W_KPEB_WH@Z ; ATL::CSimpleStringT<wchar_t,0>::CopyChars
; Line 768
	movsxd	rdx, r14d
	lea	rcx, QWORD PTR [rbx+rsi*2]
	mov	r9d, r14d
	lea	r8, OFFSET FLAT:??_C@_1DO@JEEELCIN@?$AAC?$AAl?$AAo?$AAc?$AAk?$AA?5?$AAS?$AAp?$AAe?$AAe?$AAd?$AA?3?$AA?5?$AA?5?$AA?5@
	call	?CopyChars@?$CSimpleStringT@_W$0A@@ATL@@SAXPEA_W_KPEB_WH@Z ; ATL::CSimpleStringT<wchar_t,0>::CopyChars
; Line 871
	cmp	r13d, DWORD PTR [rbx-12]
	jg	$LN510@get_cpu_in
; Line 874
	mov	DWORD PTR [rbx-16], r13d
; Line 875
	movsxd	rax, r13d
	xor	ecx, ecx
	mov	WORD PTR [rbx+rax*2], cx
	mov	QWORD PTR $T85[rsp], rcx
; Line 523
	lea	r13, QWORD PTR [rbx-24]
	mov	rcx, QWORD PTR [r13]
; Line 524
	test	rcx, rcx
	je	SHORT $LN524@get_cpu_in
	mov	rax, QWORD PTR [rcx]
	call	QWORD PTR [rax+32]
	mov	rcx, rax
; File c:\program files (x86)\microsoft visual studio\2017\community\vc\tools\msvc\14.15.26726\atlmfc\include\cstringt.h
; Line 1434
	test	rax, rax
	jne	SHORT $LN539@get_cpu_in
$LN524@get_cpu_in:
; File c:\program files (x86)\microsoft visual studio\2017\community\vc\tools\msvc\14.15.26726\atlmfc\include\atlstr.h
; Line 1259
	call	?GetInstance@CAtlStringMgr@ATL@@SAPEAUIAtlStringMgr@2@XZ ; ATL::CAtlStringMgr::GetInstance
; File c:\program files (x86)\microsoft visual studio\2017\community\vc\tools\msvc\14.15.26726\atlmfc\include\cstringt.h
; Line 1437
	mov	rdx, QWORD PTR [rax]
	mov	rcx, rax
	call	QWORD PTR [rdx+32]
	mov	rcx, rax
$LN539@get_cpu_in:
; File c:\program files (x86)\microsoft visual studio\2017\community\vc\tools\msvc\14.15.26726\atlmfc\include\atlsimpstr.h
; Line 205
	test	rcx, rcx
	je	$LN1030@get_cpu_in
; Line 206
	mov	rax, QWORD PTR [rcx]
	call	QWORD PTR [rax+24]
; Line 59
	lea	rdi, QWORD PTR [rax+24]
; Line 780
	mov	QWORD PTR $T85[rsp], rdi
; File c:\program files (x86)\microsoft visual studio\2017\community\vc\tools\msvc\14.15.26726\atlmfc\include\cstringt.h
; Line 2388
	mov	DWORD PTR $T1[rsp], 6
; File c:\program files (x86)\microsoft visual studio\2017\community\vc\tools\msvc\14.15.26726\atlmfc\include\atlsimpstr.h
; Line 519
	mov	rsi, QWORD PTR sMHz$[rbp-256]
	mov	eax, DWORD PTR [rsi-16]
	mov	DWORD PTR $T186[rsp], eax
	mov	r8d, DWORD PTR [rbx-16]
	mov	DWORD PTR $T183[rsp], r8d
; Line 765
	lea	edx, DWORD PTR [r8+rax]
; Line 804
	test	edx, edx
	js	$LN1031@get_cpu_in
; Line 808
	mov	ecx, 1
	sub	ecx, DWORD PTR [rdi-8]
; Line 809
	mov	eax, DWORD PTR [rdi-12]
	sub	eax, edx
; Line 810
	or	eax, ecx
	jge	SHORT $LN569@get_cpu_in
; Line 812
	lea	rcx, QWORD PTR $T85[rsp]
	call	?PrepareWrite2@?$CSimpleStringT@_W$0A@@ATL@@AEAAXH@Z ; ATL::CSimpleStringT<wchar_t,0>::PrepareWrite2
	mov	rdi, QWORD PTR $T85[rsp]
	mov	r8d, DWORD PTR $T183[rsp]
$LN569@get_cpu_in:
; Line 767
	movsxd	r14, r8d
	mov	r9d, r8d
	mov	r8, rbx
	mov	rdx, r14
	mov	rcx, rdi
	call	?CopyChars@?$CSimpleStringT@_W$0A@@ATL@@SAXPEA_W_KPEB_WH@Z ; ATL::CSimpleStringT<wchar_t,0>::CopyChars
; Line 768
	movsxd	rbx, DWORD PTR $T186[rsp]
	mov	rdx, rbx
	lea	rcx, QWORD PTR [rdi+r14*2]
	mov	r9d, ebx
	mov	r8, rsi
	call	?CopyChars@?$CSimpleStringT@_W$0A@@ATL@@SAXPEA_W_KPEB_WH@Z ; ATL::CSimpleStringT<wchar_t,0>::CopyChars
; Line 871
	mov	eax, DWORD PTR $T183[rsp]
	add	eax, ebx
	cmp	eax, DWORD PTR [rdi-12]
	jg	$LN579@get_cpu_in
; Line 874
	mov	DWORD PTR [rdi-16], eax
; Line 875
	cdqe
	xor	ebx, ebx
	mov	WORD PTR [rdi+rax*2], bx
; File d:\visual studio\cpu_benchmark\cpu_benchmark\cpu_benchmark.cpp
; Line 265
	lea	r8, OFFSET FLAT:??_C@_1M@MICDHJOD@?$AA?5?$AAM?$AAH?$AAz?$AA?6@
	lea	rdx, QWORD PTR $T85[rsp]
	lea	rcx, QWORD PTR $T93[rsp]
	call	??HATL@@YA?AV?$CStringT@_WV?$StrTraitATL@_WV?$ChTraitsCRT@_W@ATL@@@ATL@@@0@AEBV10@PEB_W@Z ; ATL::operator+
	npad	1
; File c:\program files (x86)\microsoft visual studio\2017\community\vc\tools\msvc\14.15.26726\atlmfc\include\atlsimpstr.h
; Line 800
	mov	rdx, QWORD PTR [rax]
	lea	rcx, QWORD PTR [rdx-24]
; Line 274
	cmp	rcx, r12
	je	SHORT $LN591@get_cpu_in
; Line 69
	cmp	DWORD PTR [r12+16], ebx
; Line 276
	jl	SHORT $LN592@get_cpu_in
	mov	rax, QWORD PTR [r12]
	cmp	QWORD PTR [rcx], rax
	jne	SHORT $LN592@get_cpu_in
; Line 282
	call	?CloneData@?$CSimpleStringT@_W$0A@@ATL@@CAPEAUCStringData@2@PEAU32@@Z ; ATL::CSimpleStringT<wchar_t,0>::CloneData
	mov	rdi, rax
; Line 88
	mov	ecx, r15d
	lock xadd DWORD PTR [r12+16], ecx
	sub	ecx, 1
	jg	SHORT $LN607@get_cpu_in
; Line 90
	mov	rcx, QWORD PTR [r12]
	mov	rbx, QWORD PTR [rcx]
	mov	rdx, r12
	call	QWORD PTR [rbx+8]
	xor	ebx, ebx
$LN607@get_cpu_in:
; Line 59
	lea	rax, QWORD PTR [rdi+24]
	mov	QWORD PTR str$[rbp-256], rax
; Line 780
	jmp	SHORT $LN591@get_cpu_in
$LN592@get_cpu_in:
; Line 278
	mov	r8d, DWORD PTR [rdx-16]
	lea	rcx, QWORD PTR str$[rbp-256]
	call	?SetString@?$CSimpleStringT@_W$0A@@ATL@@QEAAXPEB_WH@Z ; ATL::CSimpleStringT<wchar_t,0>::SetString
	npad	1
$LN591@get_cpu_in:
; Line 800
	mov	rdx, QWORD PTR $T93[rsp]
	add	rdx, -24
; Line 88
	mov	eax, r15d
	lock xadd DWORD PTR [rdx+16], eax
	sub	eax, 1
	jg	SHORT $LN620@get_cpu_in
; Line 90
	mov	rcx, QWORD PTR [rdx]
	mov	rax, QWORD PTR [rcx]
	call	QWORD PTR [rax+8]
$LN620@get_cpu_in:
; File d:\visual studio\cpu_benchmark\cpu_benchmark\cpu_benchmark.cpp
; Line 265
	mov	DWORD PTR $T1[rsp], 2
; File c:\program files (x86)\microsoft visual studio\2017\community\vc\tools\msvc\14.15.26726\atlmfc\include\atlsimpstr.h
; Line 800
	mov	rdx, QWORD PTR $T85[rsp]
	add	rdx, -24
; Line 88
	mov	eax, r15d
	lock xadd DWORD PTR [rdx+16], eax
	sub	eax, 1
	jg	SHORT $LN629@get_cpu_in
; Line 90
	mov	rcx, QWORD PTR [rdx]
	mov	rax, QWORD PTR [rcx]
	call	QWORD PTR [rax+8]
$LN629@get_cpu_in:
; File d:\visual studio\cpu_benchmark\cpu_benchmark\cpu_benchmark.cpp
; Line 265
	mov	DWORD PTR $T1[rsp], ebx
; File c:\program files (x86)\microsoft visual studio\2017\community\vc\tools\msvc\14.15.26726\atlmfc\include\atlsimpstr.h
; Line 88
	mov	eax, r15d
	lock xadd DWORD PTR [r13+16], eax
	sub	eax, 1
	jg	SHORT $LN638@get_cpu_in
; Line 90
	mov	rcx, QWORD PTR [r13]
	mov	rax, QWORD PTR [rcx]
	mov	rdx, r13
	call	QWORD PTR [rax+8]
$LN638@get_cpu_in:
; File d:\visual studio\cpu_benchmark\cpu_benchmark\cpu_benchmark.cpp
; Line 266
	lea	rcx, OFFSET FLAT:?sys_info@@3U_SYSTEM_INFO@@A ; sys_info
	call	QWORD PTR __imp_GetSystemInfo
	npad	1
	mov	QWORD PTR $T97[rsp], rbx
; File c:\program files (x86)\microsoft visual studio\2017\community\vc\tools\msvc\14.15.26726\atlmfc\include\atlsimpstr.h
; Line 523
	mov	rdi, QWORD PTR str$[rbp-256]
	mov	rcx, QWORD PTR [rdi-24]
; Line 524
	test	rcx, rcx
	je	SHORT $LN647@get_cpu_in
	mov	rax, QWORD PTR [rcx]
	call	QWORD PTR [rax+32]
	mov	rcx, rax
; File c:\program files (x86)\microsoft visual studio\2017\community\vc\tools\msvc\14.15.26726\atlmfc\include\cstringt.h
; Line 1434
	test	rax, rax
	jne	SHORT $LN662@get_cpu_in
$LN647@get_cpu_in:
; File c:\program files (x86)\microsoft visual studio\2017\community\vc\tools\msvc\14.15.26726\atlmfc\include\atlstr.h
; Line 1259
	call	?GetInstance@CAtlStringMgr@ATL@@SAPEAUIAtlStringMgr@2@XZ ; ATL::CAtlStringMgr::GetInstance
; File c:\program files (x86)\microsoft visual studio\2017\community\vc\tools\msvc\14.15.26726\atlmfc\include\cstringt.h
; Line 1437
	mov	rdx, QWORD PTR [rax]
	mov	rcx, rax
	call	QWORD PTR [rdx+32]
	mov	rcx, rax
$LN662@get_cpu_in:
; File c:\program files (x86)\microsoft visual studio\2017\community\vc\tools\msvc\14.15.26726\atlmfc\include\atlsimpstr.h
; Line 205
	test	rcx, rcx
	je	$LN1032@get_cpu_in
; Line 206
	mov	rax, QWORD PTR [rcx]
	call	QWORD PTR [rax+24]
; Line 59
	lea	rbx, QWORD PTR [rax+24]
; Line 780
	mov	QWORD PTR $T97[rsp], rbx
; File c:\program files (x86)\microsoft visual studio\2017\community\vc\tools\msvc\14.15.26726\atlmfc\include\cstringt.h
; Line 2399
	mov	DWORD PTR $T1[rsp], 8
; File c:\program files (x86)\microsoft visual studio\2017\community\vc\tools\msvc\14.15.26726\atlmfc\include\atlsimpstr.h
; Line 734
	lea	rax, OFFSET FLAT:??_C@_1DK@CPNKBFAM@?$AAL?$AAo?$AAg?$AAi?$AAc?$AAa?$AAl?$AA?5?$AAP?$AAr?$AAo?$AAc?$AAe?$AAs?$AAs@
	mov	r14, r15
$LL1016@get_cpu_in:
	inc	r14
	cmp	WORD PTR [rax+r14*2], 0
	jne	SHORT $LL1016@get_cpu_in
; Line 519
	movsxd	r13, DWORD PTR [rdi-16]
; Line 765
	lea	r12d, DWORD PTR [r14+r13]
; Line 804
	test	r12d, r12d
	js	$LN1033@get_cpu_in
; Line 808
	mov	ecx, 1
	sub	ecx, DWORD PTR [rbx-8]
; Line 809
	mov	eax, DWORD PTR [rbx-12]
	sub	eax, r12d
; Line 810
	or	eax, ecx
	jge	SHORT $LN689@get_cpu_in
; Line 812
	mov	edx, r12d
	lea	rcx, QWORD PTR $T97[rsp]
	call	?PrepareWrite2@?$CSimpleStringT@_W$0A@@ATL@@AEAAXH@Z ; ATL::CSimpleStringT<wchar_t,0>::PrepareWrite2
	mov	rbx, QWORD PTR $T97[rsp]
$LN689@get_cpu_in:
; Line 767
	mov	r9d, r13d
	mov	r8, rdi
	mov	rdx, r13
	mov	rcx, rbx
	call	?CopyChars@?$CSimpleStringT@_W$0A@@ATL@@SAXPEA_W_KPEB_WH@Z ; ATL::CSimpleStringT<wchar_t,0>::CopyChars
; Line 768
	movsxd	rdx, r14d
	lea	rcx, QWORD PTR [rbx+r13*2]
	mov	r9d, r14d
	lea	r8, OFFSET FLAT:??_C@_1DK@CPNKBFAM@?$AAL?$AAo?$AAg?$AAi?$AAc?$AAa?$AAl?$AA?5?$AAP?$AAr?$AAo?$AAc?$AAe?$AAs?$AAs@
	call	?CopyChars@?$CSimpleStringT@_W$0A@@ATL@@SAXPEA_W_KPEB_WH@Z ; ATL::CSimpleStringT<wchar_t,0>::CopyChars
; Line 871
	cmp	r12d, DWORD PTR [rbx-12]
	jg	$LN699@get_cpu_in
; Line 874
	mov	DWORD PTR [rbx-16], r12d
; Line 875
	movsxd	rax, r12d
	xor	ecx, ecx
	mov	WORD PTR [rbx+rax*2], cx
; File d:\visual studio\cpu_benchmark\cpu_benchmark\cpu_benchmark.cpp
; Line 267
	mov	r8d, DWORD PTR ?sys_info@@3U_SYSTEM_INFO@@A+32
	mov	rdx, rbx
	lea	rcx, QWORD PTR str$[rbp-256]
	call	?Format@?$CStringT@_WV?$StrTraitATL@_WV?$ChTraitsCRT@_W@ATL@@@ATL@@@ATL@@QEAAXPEB_WZZ ; ATL::CStringT<wchar_t,ATL::StrTraitATL<wchar_t,ATL::ChTraitsCRT<wchar_t> > >::Format
	npad	1
; File c:\program files (x86)\microsoft visual studio\2017\community\vc\tools\msvc\14.15.26726\atlmfc\include\atlsimpstr.h
; Line 800
	lea	rdx, QWORD PTR [rbx-24]
; Line 88
	mov	eax, r15d
	lock xadd DWORD PTR [rdx+16], eax
	sub	eax, 1
	jg	SHORT $LN715@get_cpu_in
; Line 90
	mov	rcx, QWORD PTR [rdx]
	mov	rax, QWORD PTR [rcx]
	call	QWORD PTR [rax+8]
$LN715@get_cpu_in:
; File d:\visual studio\cpu_benchmark\cpu_benchmark\cpu_benchmark.cpp
; Line 269
	mov	rdx, QWORD PTR str$[rbp-256]
	mov	rcx, QWORD PTR ?processor_info@@3PEAUHWND__@@EA ; processor_info
	call	QWORD PTR __imp_SetWindowTextW
	npad	1
; File c:\program files (x86)\microsoft visual studio\2017\community\vc\tools\msvc\14.15.26726\include\vector
; Line 1913
	mov	rcx, QWORD PTR extdata_$[rbp-256]
	test	rcx, rcx
	je	SHORT $LN722@get_cpu_in
; Line 1715
	mov	rdx, QWORD PTR extdata_$[rbp-240]
	sub	rdx, rcx
; File c:\program files (x86)\microsoft visual studio\2017\community\vc\tools\msvc\14.15.26726\include\xmemory0
; Line 992
	and	rdx, -16
	mov	rax, rcx
; Line 201
	cmp	rdx, 4096				; 00001000H
	jb	SHORT $LN798@get_cpu_in
; Line 115
	add	rdx, 39					; 00000027H
; Line 118
	mov	rcx, QWORD PTR [rcx-8]
	sub	rax, rcx
; Line 132
	add	rax, -8
	cmp	rax, 31
	jbe	SHORT $LN798@get_cpu_in
	call	QWORD PTR __imp__invalid_parameter_noinfo_noreturn
	int	3
$LN798@get_cpu_in:
; Line 207
	call	??3@YAXPEAX_K@Z				; operator delete
	npad	1
$LN722@get_cpu_in:
; File c:\program files (x86)\microsoft visual studio\2017\community\vc\tools\msvc\14.15.26726\include\xstring
; Line 1825
	mov	rdx, QWORD PTR brand_$[rbp-232]
	cmp	rdx, 16
; Line 3987
	jb	SHORT $LN864@get_cpu_in
; Line 3992
	inc	rdx
; File c:\program files (x86)\microsoft visual studio\2017\community\vc\tools\msvc\14.15.26726\include\xmemory0
; Line 992
	mov	rcx, QWORD PTR brand_$[rbp-256]
	mov	rax, rcx
; Line 201
	cmp	rdx, 4096				; 00001000H
	jb	SHORT $LN863@get_cpu_in
; Line 115
	add	rdx, 39					; 00000027H
; Line 118
	mov	rcx, QWORD PTR [rcx-8]
	sub	rax, rcx
; Line 132
	add	rax, -8
	cmp	rax, 31
	jbe	SHORT $LN863@get_cpu_in
	call	QWORD PTR __imp__invalid_parameter_noinfo_noreturn
	int	3
$LN863@get_cpu_in:
; Line 207
	call	??3@YAXPEAX_K@Z				; operator delete
$LN864@get_cpu_in:
; File c:\program files (x86)\microsoft visual studio\2017\community\vc\tools\msvc\14.15.26726\include\xstring
; Line 3995
	movdqa	xmm0, XMMWORD PTR __xmm@000000000000000f0000000000000000
	movdqu	XMMWORD PTR brand_$[rbp-240], xmm0
; File c:\program files (x86)\microsoft visual studio\2017\community\vc\tools\msvc\14.15.26726\include\iosfwd
; Line 506
	mov	BYTE PTR brand_$[rbp-256], 0
; File c:\program files (x86)\microsoft visual studio\2017\community\vc\tools\msvc\14.15.26726\atlmfc\include\atlsimpstr.h
; Line 88
	mov	eax, r15d
	mov	rdx, QWORD PTR pData$1$[rsp]
	lock xadd DWORD PTR [rdx+16], eax
	sub	eax, 1
	jg	SHORT $LN990@get_cpu_in
; Line 90
	mov	rcx, QWORD PTR [rdx]
	mov	rax, QWORD PTR [rcx]
	call	QWORD PTR [rax+8]
	npad	1
$LN990@get_cpu_in:
; Line 800
	mov	rdx, QWORD PTR str$[rbp-256]
	add	rdx, -24
; Line 88
	mov	eax, r15d
	lock xadd DWORD PTR [rdx+16], eax
	sub	eax, 1
	jg	SHORT $LN999@get_cpu_in
; Line 90
	mov	rcx, QWORD PTR [rdx]
	mov	rax, QWORD PTR [rcx]
	call	QWORD PTR [rax+8]
	npad	1
$LN999@get_cpu_in:
; Line 800
	mov	rdx, QWORD PTR sMHz$[rbp-256]
	add	rdx, -24
; Line 88
	lock xadd DWORD PTR [rdx+16], r15d
	sub	r15d, 1
	jg	SHORT $LN1008@get_cpu_in
; Line 90
	mov	rcx, QWORD PTR [rdx]
	mov	rax, QWORD PTR [rcx]
	call	QWORD PTR [rax+8]
$LN1008@get_cpu_in:
; File d:\visual studio\cpu_benchmark\cpu_benchmark\cpu_benchmark.cpp
; Line 270
	mov	rcx, QWORD PTR __$ArrayPad$[rbp-256]
	xor	rcx, rsp
	call	__security_check_cookie
	lea	r11, QWORD PTR [rsp+352]
	mov	rbx, QWORD PTR [r11+48]
	mov	rsi, QWORD PTR [r11+56]
	mov	rdi, QWORD PTR [r11+64]
	mov	rsp, r11
	pop	r15
	pop	r14
	pop	r13
	pop	r12
	pop	rbp
	ret	0
$LN510@get_cpu_in:
; File c:\program files (x86)\microsoft visual studio\2017\community\vc\tools\msvc\14.15.26726\atlmfc\include\atlsimpstr.h
; Line 872
	mov	ecx, -2147024809			; ffffffff80070057H
	call	?AtlThrowImpl@ATL@@YAXJ@Z		; ATL::AtlThrowImpl
	npad	1
$LN408@get_cpu_in:
	mov	ecx, -2147024809			; ffffffff80070057H
	call	?AtlThrowImpl@ATL@@YAXJ@Z		; ATL::AtlThrowImpl
	npad	1
$LN1022@get_cpu_in:
; Line 205
	mov	ecx, -2147467259			; ffffffff80004005H
	call	?AtlThrowImpl@ATL@@YAXJ@Z		; ATL::AtlThrowImpl
	npad	1
$LN1023@get_cpu_in:
	mov	ecx, -2147467259			; ffffffff80004005H
	call	?AtlThrowImpl@ATL@@YAXJ@Z		; ATL::AtlThrowImpl
	npad	1
$LN1024@get_cpu_in:
	mov	ecx, -2147467259			; ffffffff80004005H
	call	?AtlThrowImpl@ATL@@YAXJ@Z		; ATL::AtlThrowImpl
	npad	1
$LN317@get_cpu_in:
; Line 872
	mov	ecx, -2147024809			; ffffffff80070057H
	call	?AtlThrowImpl@ATL@@YAXJ@Z		; ATL::AtlThrowImpl
	int	3
$LN1025@get_cpu_in:
	mov	ecx, -2147024809			; ffffffff80070057H
	call	?AtlThrowImpl@ATL@@YAXJ@Z		; ATL::AtlThrowImpl
	npad	1
$LN1026@get_cpu_in:
; Line 205
	mov	ecx, -2147467259			; ffffffff80004005H
	call	?AtlThrowImpl@ATL@@YAXJ@Z		; ATL::AtlThrowImpl
	int	3
$LN1027@get_cpu_in:
; Line 805
	mov	ecx, -2147024809			; ffffffff80070057H
	call	?AtlThrowImpl@ATL@@YAXJ@Z		; ATL::AtlThrowImpl
	npad	1
$LN1028@get_cpu_in:
; Line 205
	mov	ecx, -2147467259			; ffffffff80004005H
	call	?AtlThrowImpl@ATL@@YAXJ@Z		; ATL::AtlThrowImpl
	int	3
$LN1029@get_cpu_in:
; Line 805
	mov	ecx, -2147024809			; ffffffff80070057H
	call	?AtlThrowImpl@ATL@@YAXJ@Z		; ATL::AtlThrowImpl
	npad	1
$LN1030@get_cpu_in:
; Line 205
	mov	ecx, -2147467259			; ffffffff80004005H
	call	?AtlThrowImpl@ATL@@YAXJ@Z		; ATL::AtlThrowImpl
	int	3
$LN1031@get_cpu_in:
; Line 805
	mov	ecx, -2147024809			; ffffffff80070057H
	call	?AtlThrowImpl@ATL@@YAXJ@Z		; ATL::AtlThrowImpl
	npad	1
$LN1032@get_cpu_in:
; Line 205
	mov	ecx, -2147467259			; ffffffff80004005H
	call	?AtlThrowImpl@ATL@@YAXJ@Z		; ATL::AtlThrowImpl
	int	3
$LN1033@get_cpu_in:
; Line 805
	mov	ecx, -2147024809			; ffffffff80070057H
	call	?AtlThrowImpl@ATL@@YAXJ@Z		; ATL::AtlThrowImpl
	int	3
$LN699@get_cpu_in:
; Line 872
	mov	ecx, -2147024809			; ffffffff80070057H
	call	?AtlThrowImpl@ATL@@YAXJ@Z		; ATL::AtlThrowImpl
	npad	1
$LN579@get_cpu_in:
	mov	ecx, -2147024809			; ffffffff80070057H
	call	?AtlThrowImpl@ATL@@YAXJ@Z		; ATL::AtlThrowImpl
	int	3
$LN1020@get_cpu_in:
?get_cpu_info@@YAXXZ ENDP				; get_cpu_info
_TEXT	ENDS
;	COMDAT text$x
text$x	SEGMENT
$T1 = 48
$T183 = 52
$T184 = 52
$T185 = 52
$T85 = 56
$T186 = 64
$T67 = 72
$T77 = 80
$T97 = 88
$T93 = 96
pData$1$ = 104
$T187 = 112
hKey$ = 120
str$ = 128
dwMHz$ = 136
cpu_info$ = 144
extdata_$ = 160
BufSize$ = 184
sMHz$ = 192
brand_$ = 200
data_$ = 232
temp$ = 256
brand$ = 272
__$ArrayPad$ = 336
?dtor$0@?0??get_cpu_info@@YAXXZ@4HA PROC		; `get_cpu_info'::`1'::dtor$0
	lea	rcx, QWORD PTR sMHz$[rdx]
	jmp	??1?$CStringT@_WV?$StrTraitATL@_WV?$ChTraitsCRT@_W@ATL@@@ATL@@@ATL@@QEAA@XZ ; ATL::CStringT<wchar_t,ATL::StrTraitATL<wchar_t,ATL::ChTraitsCRT<wchar_t> > >::~CStringT<wchar_t,ATL::StrTraitATL<wchar_t,ATL::ChTraitsCRT<wchar_t> > >
?dtor$0@?0??get_cpu_info@@YAXXZ@4HA ENDP		; `get_cpu_info'::`1'::dtor$0
$T1 = 48
$T183 = 52
$T184 = 52
$T185 = 52
$T85 = 56
$T186 = 64
$T67 = 72
$T77 = 80
$T97 = 88
$T93 = 96
pData$1$ = 104
$T187 = 112
hKey$ = 120
str$ = 128
dwMHz$ = 136
cpu_info$ = 144
extdata_$ = 160
BufSize$ = 184
sMHz$ = 192
brand_$ = 200
data_$ = 232
temp$ = 256
brand$ = 272
__$ArrayPad$ = 336
?dtor$1@?0??get_cpu_info@@YAXXZ@4HA PROC		; `get_cpu_info'::`1'::dtor$1
	lea	rcx, QWORD PTR str$[rdx]
	jmp	??1?$CStringT@_WV?$StrTraitATL@_WV?$ChTraitsCRT@_W@ATL@@@ATL@@@ATL@@QEAA@XZ ; ATL::CStringT<wchar_t,ATL::StrTraitATL<wchar_t,ATL::ChTraitsCRT<wchar_t> > >::~CStringT<wchar_t,ATL::StrTraitATL<wchar_t,ATL::ChTraitsCRT<wchar_t> > >
?dtor$1@?0??get_cpu_info@@YAXXZ@4HA ENDP		; `get_cpu_info'::`1'::dtor$1
$T1 = 48
$T183 = 52
$T184 = 52
$T185 = 52
$T85 = 56
$T186 = 64
$T67 = 72
$T77 = 80
$T97 = 88
$T93 = 96
pData$1$ = 104
$T187 = 112
hKey$ = 120
str$ = 128
dwMHz$ = 136
cpu_info$ = 144
extdata_$ = 160
BufSize$ = 184
sMHz$ = 192
brand_$ = 200
data_$ = 232
temp$ = 256
brand$ = 272
__$ArrayPad$ = 336
?dtor$2@?0??get_cpu_info@@YAXXZ@4HA PROC		; `get_cpu_info'::`1'::dtor$2
	lea	rcx, QWORD PTR temp$[rdx]
	jmp	??1?$CStringT@_WV?$StrTraitATL@_WV?$ChTraitsCRT@_W@ATL@@@ATL@@@ATL@@QEAA@XZ ; ATL::CStringT<wchar_t,ATL::StrTraitATL<wchar_t,ATL::ChTraitsCRT<wchar_t> > >::~CStringT<wchar_t,ATL::StrTraitATL<wchar_t,ATL::ChTraitsCRT<wchar_t> > >
?dtor$2@?0??get_cpu_info@@YAXXZ@4HA ENDP		; `get_cpu_info'::`1'::dtor$2
$T1 = 48
$T183 = 52
$T184 = 52
$T185 = 52
$T85 = 56
$T186 = 64
$T67 = 72
$T77 = 80
$T97 = 88
$T93 = 96
pData$1$ = 104
$T187 = 112
hKey$ = 120
str$ = 128
dwMHz$ = 136
cpu_info$ = 144
extdata_$ = 160
BufSize$ = 184
sMHz$ = 192
brand_$ = 200
data_$ = 232
temp$ = 256
brand$ = 272
__$ArrayPad$ = 336
?dtor$3@?0??get_cpu_info@@YAXXZ@4HA PROC		; `get_cpu_info'::`1'::dtor$3
	lea	rcx, QWORD PTR data_$[rdx]
	jmp	??1?$vector@V?$array@H$03@std@@V?$allocator@V?$array@H$03@std@@@2@@std@@QEAA@XZ ; std::vector<std::array<int,4>,std::allocator<std::array<int,4> > >::~vector<std::array<int,4>,std::allocator<std::array<int,4> > >
?dtor$3@?0??get_cpu_info@@YAXXZ@4HA ENDP		; `get_cpu_info'::`1'::dtor$3
$T1 = 48
$T183 = 52
$T184 = 52
$T185 = 52
$T85 = 56
$T186 = 64
$T67 = 72
$T77 = 80
$T97 = 88
$T93 = 96
pData$1$ = 104
$T187 = 112
hKey$ = 120
str$ = 128
dwMHz$ = 136
cpu_info$ = 144
extdata_$ = 160
BufSize$ = 184
sMHz$ = 192
brand_$ = 200
data_$ = 232
temp$ = 256
brand$ = 272
__$ArrayPad$ = 336
?dtor$4@?0??get_cpu_info@@YAXXZ@4HA PROC		; `get_cpu_info'::`1'::dtor$4
	lea	rcx, QWORD PTR brand_$[rdx]
	jmp	??1?$basic_string@DU?$char_traits@D@std@@V?$allocator@D@2@@std@@QEAA@XZ ; std::basic_string<char,std::char_traits<char>,std::allocator<char> >::~basic_string<char,std::char_traits<char>,std::allocator<char> >
?dtor$4@?0??get_cpu_info@@YAXXZ@4HA ENDP		; `get_cpu_info'::`1'::dtor$4
$T1 = 48
$T183 = 52
$T184 = 52
$T185 = 52
$T85 = 56
$T186 = 64
$T67 = 72
$T77 = 80
$T97 = 88
$T93 = 96
pData$1$ = 104
$T187 = 112
hKey$ = 120
str$ = 128
dwMHz$ = 136
cpu_info$ = 144
extdata_$ = 160
BufSize$ = 184
sMHz$ = 192
brand_$ = 200
data_$ = 232
temp$ = 256
brand$ = 272
__$ArrayPad$ = 336
?dtor$5@?0??get_cpu_info@@YAXXZ@4HA PROC		; `get_cpu_info'::`1'::dtor$5
	lea	rcx, QWORD PTR extdata_$[rdx]
	jmp	??1?$vector@V?$array@H$03@std@@V?$allocator@V?$array@H$03@std@@@2@@std@@QEAA@XZ ; std::vector<std::array<int,4>,std::allocator<std::array<int,4> > >::~vector<std::array<int,4>,std::allocator<std::array<int,4> > >
?dtor$5@?0??get_cpu_info@@YAXXZ@4HA ENDP		; `get_cpu_info'::`1'::dtor$5
$T1 = 48
$T183 = 52
$T184 = 52
$T185 = 52
$T85 = 56
$T186 = 64
$T67 = 72
$T77 = 80
$T97 = 88
$T93 = 96
pData$1$ = 104
$T187 = 112
hKey$ = 120
str$ = 128
dwMHz$ = 136
cpu_info$ = 144
extdata_$ = 160
BufSize$ = 184
sMHz$ = 192
brand_$ = 200
data_$ = 232
temp$ = 256
brand$ = 272
__$ArrayPad$ = 336
?dtor$12@?0??get_cpu_info@@YAXXZ@4HA PROC		; `get_cpu_info'::`1'::dtor$12
	push	rbp
	sub	rsp, 32					; 00000020H
	mov	rbp, rdx
	mov	eax, DWORD PTR $T1[rbp]
	and	eax, 1
	test	eax, eax
	je	SHORT $LN352@dtor$12
	and	DWORD PTR $T1[rbp], -2
	lea	rcx, QWORD PTR $T67[rbp]
	call	??1?$CStringT@_WV?$StrTraitATL@_WV?$ChTraitsCRT@_W@ATL@@@ATL@@@ATL@@QEAA@XZ ; ATL::CStringT<wchar_t,ATL::StrTraitATL<wchar_t,ATL::ChTraitsCRT<wchar_t> > >::~CStringT<wchar_t,ATL::StrTraitATL<wchar_t,ATL::ChTraitsCRT<wchar_t> > >
$LN352@dtor$12:
	add	rsp, 32					; 00000020H
	pop	rbp
	ret	0
?dtor$12@?0??get_cpu_info@@YAXXZ@4HA ENDP		; `get_cpu_info'::`1'::dtor$12
$T1 = 48
$T183 = 52
$T184 = 52
$T185 = 52
$T85 = 56
$T186 = 64
$T67 = 72
$T77 = 80
$T97 = 88
$T93 = 96
pData$1$ = 104
$T187 = 112
hKey$ = 120
str$ = 128
dwMHz$ = 136
cpu_info$ = 144
extdata_$ = 160
BufSize$ = 184
sMHz$ = 192
brand_$ = 200
data_$ = 232
temp$ = 256
brand$ = 272
__$ArrayPad$ = 336
?dtor$13@?0??get_cpu_info@@YAXXZ@4HA PROC		; `get_cpu_info'::`1'::dtor$13
	push	rbp
	sub	rsp, 32					; 00000020H
	mov	rbp, rdx
	mov	eax, DWORD PTR $T1[rbp]
	and	eax, 2
	test	eax, eax
	je	SHORT $LN454@dtor$13
	and	DWORD PTR $T1[rbp], -3
	lea	rcx, QWORD PTR $T77[rbp]
	call	??1?$CStringT@_WV?$StrTraitATL@_WV?$ChTraitsCRT@_W@ATL@@@ATL@@@ATL@@QEAA@XZ ; ATL::CStringT<wchar_t,ATL::StrTraitATL<wchar_t,ATL::ChTraitsCRT<wchar_t> > >::~CStringT<wchar_t,ATL::StrTraitATL<wchar_t,ATL::ChTraitsCRT<wchar_t> > >
$LN454@dtor$13:
	add	rsp, 32					; 00000020H
	pop	rbp
	ret	0
?dtor$13@?0??get_cpu_info@@YAXXZ@4HA ENDP		; `get_cpu_info'::`1'::dtor$13
$T1 = 48
$T183 = 52
$T184 = 52
$T185 = 52
$T85 = 56
$T186 = 64
$T67 = 72
$T77 = 80
$T97 = 88
$T93 = 96
pData$1$ = 104
$T187 = 112
hKey$ = 120
str$ = 128
dwMHz$ = 136
cpu_info$ = 144
extdata_$ = 160
BufSize$ = 184
sMHz$ = 192
brand_$ = 200
data_$ = 232
temp$ = 256
brand$ = 272
__$ArrayPad$ = 336
?dtor$14@?0??get_cpu_info@@YAXXZ@4HA PROC		; `get_cpu_info'::`1'::dtor$14
	push	rbp
	sub	rsp, 32					; 00000020H
	mov	rbp, rdx
	mov	eax, DWORD PTR $T1[rbp]
	and	eax, 4
	test	eax, eax
	je	SHORT $LN520@dtor$14
	and	DWORD PTR $T1[rbp], -5
	lea	rcx, QWORD PTR $T85[rbp]
	call	??1?$CStringT@_WV?$StrTraitATL@_WV?$ChTraitsCRT@_W@ATL@@@ATL@@@ATL@@QEAA@XZ ; ATL::CStringT<wchar_t,ATL::StrTraitATL<wchar_t,ATL::ChTraitsCRT<wchar_t> > >::~CStringT<wchar_t,ATL::StrTraitATL<wchar_t,ATL::ChTraitsCRT<wchar_t> > >
$LN520@dtor$14:
	add	rsp, 32					; 00000020H
	pop	rbp
	ret	0
?dtor$14@?0??get_cpu_info@@YAXXZ@4HA ENDP		; `get_cpu_info'::`1'::dtor$14
$T1 = 48
$T183 = 52
$T184 = 52
$T185 = 52
$T85 = 56
$T186 = 64
$T67 = 72
$T77 = 80
$T97 = 88
$T93 = 96
pData$1$ = 104
$T187 = 112
hKey$ = 120
str$ = 128
dwMHz$ = 136
cpu_info$ = 144
extdata_$ = 160
BufSize$ = 184
sMHz$ = 192
brand_$ = 200
data_$ = 232
temp$ = 256
brand$ = 272
__$ArrayPad$ = 336
?dtor$9@?0??get_cpu_info@@YAXXZ@4HA PROC		; `get_cpu_info'::`1'::dtor$9
	lea	rcx, QWORD PTR $T93[rdx]
	jmp	??1?$CStringT@_WV?$StrTraitATL@_WV?$ChTraitsCRT@_W@ATL@@@ATL@@@ATL@@QEAA@XZ ; ATL::CStringT<wchar_t,ATL::StrTraitATL<wchar_t,ATL::ChTraitsCRT<wchar_t> > >::~CStringT<wchar_t,ATL::StrTraitATL<wchar_t,ATL::ChTraitsCRT<wchar_t> > >
?dtor$9@?0??get_cpu_info@@YAXXZ@4HA ENDP		; `get_cpu_info'::`1'::dtor$9
$T1 = 48
$T183 = 52
$T184 = 52
$T185 = 52
$T85 = 56
$T186 = 64
$T67 = 72
$T77 = 80
$T97 = 88
$T93 = 96
pData$1$ = 104
$T187 = 112
hKey$ = 120
str$ = 128
dwMHz$ = 136
cpu_info$ = 144
extdata_$ = 160
BufSize$ = 184
sMHz$ = 192
brand_$ = 200
data_$ = 232
temp$ = 256
brand$ = 272
__$ArrayPad$ = 336
?dtor$15@?0??get_cpu_info@@YAXXZ@4HA PROC		; `get_cpu_info'::`1'::dtor$15
	push	rbp
	sub	rsp, 32					; 00000020H
	mov	rbp, rdx
	mov	eax, DWORD PTR $T1[rbp]
	and	eax, 8
	test	eax, eax
	je	SHORT $LN643@dtor$15
	and	DWORD PTR $T1[rbp], -9
	lea	rcx, QWORD PTR $T97[rbp]
	call	??1?$CStringT@_WV?$StrTraitATL@_WV?$ChTraitsCRT@_W@ATL@@@ATL@@@ATL@@QEAA@XZ ; ATL::CStringT<wchar_t,ATL::StrTraitATL<wchar_t,ATL::ChTraitsCRT<wchar_t> > >::~CStringT<wchar_t,ATL::StrTraitATL<wchar_t,ATL::ChTraitsCRT<wchar_t> > >
$LN643@dtor$15:
	add	rsp, 32					; 00000020H
	pop	rbp
	ret	0
?dtor$15@?0??get_cpu_info@@YAXXZ@4HA ENDP		; `get_cpu_info'::`1'::dtor$15
text$x	ENDS
; Function compile flags: /Ogtpy
;	COMDAT text$x
text$x	SEGMENT
$T1 = 48
$T183 = 52
$T184 = 52
$T185 = 52
$T85 = 56
$T186 = 64
$T67 = 72
$T77 = 80
$T97 = 88
$T93 = 96
pData$1$ = 104
$T187 = 112
hKey$ = 120
str$ = 128
dwMHz$ = 136
cpu_info$ = 144
extdata_$ = 160
BufSize$ = 184
sMHz$ = 192
brand_$ = 200
data_$ = 232
temp$ = 256
brand$ = 272
__$ArrayPad$ = 336
?dtor$0@?0??get_cpu_info@@YAXXZ@4HA PROC		; `get_cpu_info'::`1'::dtor$0
	lea	rcx, QWORD PTR sMHz$[rdx]
	jmp	??1?$CStringT@_WV?$StrTraitATL@_WV?$ChTraitsCRT@_W@ATL@@@ATL@@@ATL@@QEAA@XZ ; ATL::CStringT<wchar_t,ATL::StrTraitATL<wchar_t,ATL::ChTraitsCRT<wchar_t> > >::~CStringT<wchar_t,ATL::StrTraitATL<wchar_t,ATL::ChTraitsCRT<wchar_t> > >
?dtor$0@?0??get_cpu_info@@YAXXZ@4HA ENDP		; `get_cpu_info'::`1'::dtor$0
text$x	ENDS
; Function compile flags: /Ogtpy
;	COMDAT text$x
text$x	SEGMENT
$T1 = 48
$T183 = 52
$T184 = 52
$T185 = 52
$T85 = 56
$T186 = 64
$T67 = 72
$T77 = 80
$T97 = 88
$T93 = 96
pData$1$ = 104
$T187 = 112
hKey$ = 120
str$ = 128
dwMHz$ = 136
cpu_info$ = 144
extdata_$ = 160
BufSize$ = 184
sMHz$ = 192
brand_$ = 200
data_$ = 232
temp$ = 256
brand$ = 272
__$ArrayPad$ = 336
?dtor$1@?0??get_cpu_info@@YAXXZ@4HA PROC		; `get_cpu_info'::`1'::dtor$1
	lea	rcx, QWORD PTR str$[rdx]
	jmp	??1?$CStringT@_WV?$StrTraitATL@_WV?$ChTraitsCRT@_W@ATL@@@ATL@@@ATL@@QEAA@XZ ; ATL::CStringT<wchar_t,ATL::StrTraitATL<wchar_t,ATL::ChTraitsCRT<wchar_t> > >::~CStringT<wchar_t,ATL::StrTraitATL<wchar_t,ATL::ChTraitsCRT<wchar_t> > >
?dtor$1@?0??get_cpu_info@@YAXXZ@4HA ENDP		; `get_cpu_info'::`1'::dtor$1
text$x	ENDS
; Function compile flags: /Ogtpy
;	COMDAT text$x
text$x	SEGMENT
$T1 = 48
$T183 = 52
$T184 = 52
$T185 = 52
$T85 = 56
$T186 = 64
$T67 = 72
$T77 = 80
$T97 = 88
$T93 = 96
pData$1$ = 104
$T187 = 112
hKey$ = 120
str$ = 128
dwMHz$ = 136
cpu_info$ = 144
extdata_$ = 160
BufSize$ = 184
sMHz$ = 192
brand_$ = 200
data_$ = 232
temp$ = 256
brand$ = 272
__$ArrayPad$ = 336
?dtor$2@?0??get_cpu_info@@YAXXZ@4HA PROC		; `get_cpu_info'::`1'::dtor$2
	lea	rcx, QWORD PTR temp$[rdx]
	jmp	??1?$CStringT@_WV?$StrTraitATL@_WV?$ChTraitsCRT@_W@ATL@@@ATL@@@ATL@@QEAA@XZ ; ATL::CStringT<wchar_t,ATL::StrTraitATL<wchar_t,ATL::ChTraitsCRT<wchar_t> > >::~CStringT<wchar_t,ATL::StrTraitATL<wchar_t,ATL::ChTraitsCRT<wchar_t> > >
?dtor$2@?0??get_cpu_info@@YAXXZ@4HA ENDP		; `get_cpu_info'::`1'::dtor$2
text$x	ENDS
; Function compile flags: /Ogtpy
;	COMDAT text$x
text$x	SEGMENT
$T1 = 48
$T183 = 52
$T184 = 52
$T185 = 52
$T85 = 56
$T186 = 64
$T67 = 72
$T77 = 80
$T97 = 88
$T93 = 96
pData$1$ = 104
$T187 = 112
hKey$ = 120
str$ = 128
dwMHz$ = 136
cpu_info$ = 144
extdata_$ = 160
BufSize$ = 184
sMHz$ = 192
brand_$ = 200
data_$ = 232
temp$ = 256
brand$ = 272
__$ArrayPad$ = 336
?dtor$3@?0??get_cpu_info@@YAXXZ@4HA PROC		; `get_cpu_info'::`1'::dtor$3
	lea	rcx, QWORD PTR data_$[rdx]
	jmp	??1?$vector@V?$array@H$03@std@@V?$allocator@V?$array@H$03@std@@@2@@std@@QEAA@XZ ; std::vector<std::array<int,4>,std::allocator<std::array<int,4> > >::~vector<std::array<int,4>,std::allocator<std::array<int,4> > >
?dtor$3@?0??get_cpu_info@@YAXXZ@4HA ENDP		; `get_cpu_info'::`1'::dtor$3
text$x	ENDS
; Function compile flags: /Ogtpy
;	COMDAT text$x
text$x	SEGMENT
$T1 = 48
$T183 = 52
$T184 = 52
$T185 = 52
$T85 = 56
$T186 = 64
$T67 = 72
$T77 = 80
$T97 = 88
$T93 = 96
pData$1$ = 104
$T187 = 112
hKey$ = 120
str$ = 128
dwMHz$ = 136
cpu_info$ = 144
extdata_$ = 160
BufSize$ = 184
sMHz$ = 192
brand_$ = 200
data_$ = 232
temp$ = 256
brand$ = 272
__$ArrayPad$ = 336
?dtor$4@?0??get_cpu_info@@YAXXZ@4HA PROC		; `get_cpu_info'::`1'::dtor$4
	lea	rcx, QWORD PTR brand_$[rdx]
	jmp	??1?$basic_string@DU?$char_traits@D@std@@V?$allocator@D@2@@std@@QEAA@XZ ; std::basic_string<char,std::char_traits<char>,std::allocator<char> >::~basic_string<char,std::char_traits<char>,std::allocator<char> >
?dtor$4@?0??get_cpu_info@@YAXXZ@4HA ENDP		; `get_cpu_info'::`1'::dtor$4
text$x	ENDS
; Function compile flags: /Ogtpy
;	COMDAT text$x
text$x	SEGMENT
$T1 = 48
$T183 = 52
$T184 = 52
$T185 = 52
$T85 = 56
$T186 = 64
$T67 = 72
$T77 = 80
$T97 = 88
$T93 = 96
pData$1$ = 104
$T187 = 112
hKey$ = 120
str$ = 128
dwMHz$ = 136
cpu_info$ = 144
extdata_$ = 160
BufSize$ = 184
sMHz$ = 192
brand_$ = 200
data_$ = 232
temp$ = 256
brand$ = 272
__$ArrayPad$ = 336
?dtor$5@?0??get_cpu_info@@YAXXZ@4HA PROC		; `get_cpu_info'::`1'::dtor$5
	lea	rcx, QWORD PTR extdata_$[rdx]
	jmp	??1?$vector@V?$array@H$03@std@@V?$allocator@V?$array@H$03@std@@@2@@std@@QEAA@XZ ; std::vector<std::array<int,4>,std::allocator<std::array<int,4> > >::~vector<std::array<int,4>,std::allocator<std::array<int,4> > >
?dtor$5@?0??get_cpu_info@@YAXXZ@4HA ENDP		; `get_cpu_info'::`1'::dtor$5
text$x	ENDS
; Function compile flags: /Ogtpy
;	COMDAT text$x
text$x	SEGMENT
$T1 = 48
$T183 = 52
$T184 = 52
$T185 = 52
$T85 = 56
$T186 = 64
$T67 = 72
$T77 = 80
$T97 = 88
$T93 = 96
pData$1$ = 104
$T187 = 112
hKey$ = 120
str$ = 128
dwMHz$ = 136
cpu_info$ = 144
extdata_$ = 160
BufSize$ = 184
sMHz$ = 192
brand_$ = 200
data_$ = 232
temp$ = 256
brand$ = 272
__$ArrayPad$ = 336
?dtor$12@?0??get_cpu_info@@YAXXZ@4HA PROC		; `get_cpu_info'::`1'::dtor$12
	push	rbp
	sub	rsp, 32					; 00000020H
	mov	rbp, rdx
	mov	eax, DWORD PTR $T1[rbp]
	and	eax, 1
	test	eax, eax
	je	SHORT $LN352@dtor$12
	and	DWORD PTR $T1[rbp], -2
	lea	rcx, QWORD PTR $T67[rbp]
	call	??1?$CStringT@_WV?$StrTraitATL@_WV?$ChTraitsCRT@_W@ATL@@@ATL@@@ATL@@QEAA@XZ ; ATL::CStringT<wchar_t,ATL::StrTraitATL<wchar_t,ATL::ChTraitsCRT<wchar_t> > >::~CStringT<wchar_t,ATL::StrTraitATL<wchar_t,ATL::ChTraitsCRT<wchar_t> > >
$LN352@dtor$12:
	add	rsp, 32					; 00000020H
	pop	rbp
	ret	0
?dtor$12@?0??get_cpu_info@@YAXXZ@4HA ENDP		; `get_cpu_info'::`1'::dtor$12
text$x	ENDS
; Function compile flags: /Ogtpy
;	COMDAT text$x
text$x	SEGMENT
$T1 = 48
$T183 = 52
$T184 = 52
$T185 = 52
$T85 = 56
$T186 = 64
$T67 = 72
$T77 = 80
$T97 = 88
$T93 = 96
pData$1$ = 104
$T187 = 112
hKey$ = 120
str$ = 128
dwMHz$ = 136
cpu_info$ = 144
extdata_$ = 160
BufSize$ = 184
sMHz$ = 192
brand_$ = 200
data_$ = 232
temp$ = 256
brand$ = 272
__$ArrayPad$ = 336
?dtor$13@?0??get_cpu_info@@YAXXZ@4HA PROC		; `get_cpu_info'::`1'::dtor$13
	push	rbp
	sub	rsp, 32					; 00000020H
	mov	rbp, rdx
	mov	eax, DWORD PTR $T1[rbp]
	and	eax, 2
	test	eax, eax
	je	SHORT $LN454@dtor$13
	and	DWORD PTR $T1[rbp], -3
	lea	rcx, QWORD PTR $T77[rbp]
	call	??1?$CStringT@_WV?$StrTraitATL@_WV?$ChTraitsCRT@_W@ATL@@@ATL@@@ATL@@QEAA@XZ ; ATL::CStringT<wchar_t,ATL::StrTraitATL<wchar_t,ATL::ChTraitsCRT<wchar_t> > >::~CStringT<wchar_t,ATL::StrTraitATL<wchar_t,ATL::ChTraitsCRT<wchar_t> > >
$LN454@dtor$13:
	add	rsp, 32					; 00000020H
	pop	rbp
	ret	0
?dtor$13@?0??get_cpu_info@@YAXXZ@4HA ENDP		; `get_cpu_info'::`1'::dtor$13
text$x	ENDS
; Function compile flags: /Ogtpy
;	COMDAT text$x
text$x	SEGMENT
$T1 = 48
$T183 = 52
$T184 = 52
$T185 = 52
$T85 = 56
$T186 = 64
$T67 = 72
$T77 = 80
$T97 = 88
$T93 = 96
pData$1$ = 104
$T187 = 112
hKey$ = 120
str$ = 128
dwMHz$ = 136
cpu_info$ = 144
extdata_$ = 160
BufSize$ = 184
sMHz$ = 192
brand_$ = 200
data_$ = 232
temp$ = 256
brand$ = 272
__$ArrayPad$ = 336
?dtor$14@?0??get_cpu_info@@YAXXZ@4HA PROC		; `get_cpu_info'::`1'::dtor$14
	push	rbp
	sub	rsp, 32					; 00000020H
	mov	rbp, rdx
	mov	eax, DWORD PTR $T1[rbp]
	and	eax, 4
	test	eax, eax
	je	SHORT $LN520@dtor$14
	and	DWORD PTR $T1[rbp], -5
	lea	rcx, QWORD PTR $T85[rbp]
	call	??1?$CStringT@_WV?$StrTraitATL@_WV?$ChTraitsCRT@_W@ATL@@@ATL@@@ATL@@QEAA@XZ ; ATL::CStringT<wchar_t,ATL::StrTraitATL<wchar_t,ATL::ChTraitsCRT<wchar_t> > >::~CStringT<wchar_t,ATL::StrTraitATL<wchar_t,ATL::ChTraitsCRT<wchar_t> > >
$LN520@dtor$14:
	add	rsp, 32					; 00000020H
	pop	rbp
	ret	0
?dtor$14@?0??get_cpu_info@@YAXXZ@4HA ENDP		; `get_cpu_info'::`1'::dtor$14
text$x	ENDS
; Function compile flags: /Ogtpy
;	COMDAT text$x
text$x	SEGMENT
$T1 = 48
$T183 = 52
$T184 = 52
$T185 = 52
$T85 = 56
$T186 = 64
$T67 = 72
$T77 = 80
$T97 = 88
$T93 = 96
pData$1$ = 104
$T187 = 112
hKey$ = 120
str$ = 128
dwMHz$ = 136
cpu_info$ = 144
extdata_$ = 160
BufSize$ = 184
sMHz$ = 192
brand_$ = 200
data_$ = 232
temp$ = 256
brand$ = 272
__$ArrayPad$ = 336
?dtor$9@?0??get_cpu_info@@YAXXZ@4HA PROC		; `get_cpu_info'::`1'::dtor$9
	lea	rcx, QWORD PTR $T93[rdx]
	jmp	??1?$CStringT@_WV?$StrTraitATL@_WV?$ChTraitsCRT@_W@ATL@@@ATL@@@ATL@@QEAA@XZ ; ATL::CStringT<wchar_t,ATL::StrTraitATL<wchar_t,ATL::ChTraitsCRT<wchar_t> > >::~CStringT<wchar_t,ATL::StrTraitATL<wchar_t,ATL::ChTraitsCRT<wchar_t> > >
?dtor$9@?0??get_cpu_info@@YAXXZ@4HA ENDP		; `get_cpu_info'::`1'::dtor$9
text$x	ENDS
; Function compile flags: /Ogtpy
;	COMDAT text$x
text$x	SEGMENT
$T1 = 48
$T183 = 52
$T184 = 52
$T185 = 52
$T85 = 56
$T186 = 64
$T67 = 72
$T77 = 80
$T97 = 88
$T93 = 96
pData$1$ = 104
$T187 = 112
hKey$ = 120
str$ = 128
dwMHz$ = 136
cpu_info$ = 144
extdata_$ = 160
BufSize$ = 184
sMHz$ = 192
brand_$ = 200
data_$ = 232
temp$ = 256
brand$ = 272
__$ArrayPad$ = 336
?dtor$15@?0??get_cpu_info@@YAXXZ@4HA PROC		; `get_cpu_info'::`1'::dtor$15
	push	rbp
	sub	rsp, 32					; 00000020H
	mov	rbp, rdx
	mov	eax, DWORD PTR $T1[rbp]
	and	eax, 8
	test	eax, eax
	je	SHORT $LN643@dtor$15
	and	DWORD PTR $T1[rbp], -9
	lea	rcx, QWORD PTR $T97[rbp]
	call	??1?$CStringT@_WV?$StrTraitATL@_WV?$ChTraitsCRT@_W@ATL@@@ATL@@@ATL@@QEAA@XZ ; ATL::CStringT<wchar_t,ATL::StrTraitATL<wchar_t,ATL::ChTraitsCRT<wchar_t> > >::~CStringT<wchar_t,ATL::StrTraitATL<wchar_t,ATL::ChTraitsCRT<wchar_t> > >
$LN643@dtor$15:
	add	rsp, 32					; 00000020H
	pop	rbp
	ret	0
?dtor$15@?0??get_cpu_info@@YAXXZ@4HA ENDP		; `get_cpu_info'::`1'::dtor$15
text$x	ENDS
; Function compile flags: /Ogtpy
;	COMDAT ?__autoclassinit2@?$vector@V?$array@H$03@std@@V?$allocator@V?$array@H$03@std@@@2@@std@@QEAAX_K@Z
_TEXT	SEGMENT
this$ = 8
classSize$dead$ = 16
?__autoclassinit2@?$vector@V?$array@H$03@std@@V?$allocator@V?$array@H$03@std@@@2@@std@@QEAAX_K@Z PROC ; std::vector<std::array<int,4>,std::allocator<std::array<int,4> > >::__autoclassinit2, COMDAT
	xor	eax, eax
	mov	QWORD PTR [rcx], rax
	mov	QWORD PTR [rcx+8], rax
	mov	QWORD PTR [rcx+16], rax
	ret	0
?__autoclassinit2@?$vector@V?$array@H$03@std@@V?$allocator@V?$array@H$03@std@@@2@@std@@QEAAX_K@Z ENDP ; std::vector<std::array<int,4>,std::allocator<std::array<int,4> > >::__autoclassinit2
_TEXT	ENDS
; Function compile flags: /Ogtpy
;	COMDAT ?get_cpu_status@@YAXXZ
_TEXT	SEGMENT
$T14 = 32
$T99 = 48
idleTime$100 = 56
userTime$101 = 64
kernelTime$102 = 72
str$ = 80
_Tgt$103 = 96
__$ArrayPad$ = 112
?get_cpu_status@@YAXXZ PROC				; get_cpu_status, COMDAT
; File d:\visual studio\cpu_benchmark\cpu_benchmark\cpu_benchmark.cpp
; Line 272
$LN208:
	mov	rax, rsp
	push	rbx
	sub	rsp, 208				; 000000d0H
	mov	QWORD PTR $T99[rsp], -2
	movaps	XMMWORD PTR [rax-24], xmm6
	movaps	XMMWORD PTR [rax-40], xmm7
	movaps	XMMWORD PTR [rax-56], xmm8
	movaps	XMMWORD PTR [rax-72], xmm9
	movaps	XMMWORD PTR [rax-88], xmm10
	mov	rax, QWORD PTR __security_cookie
	xor	rax, rsp
	mov	QWORD PTR __$ArrayPad$[rsp], rax
; Line 273
	movsxd	rbx, DWORD PTR ?affinity@@3HA		; affinity
	call	QWORD PTR __imp_GetCurrentThread
	mov	rcx, rax
	mov	rdx, rbx
	call	QWORD PTR __imp_SetThreadAffinityMask
; Line 274
	mov	eax, DWORD PTR ?affinity@@3HA		; affinity
	add	eax, eax
	mov	DWORD PTR ?affinity@@3HA, eax		; affinity
; File c:\program files (x86)\microsoft visual studio\2017\community\vc\tools\msvc\14.15.26726\atlmfc\include\atlstr.h
; Line 1259
	call	?GetInstance@CAtlStringMgr@ATL@@SAPEAUIAtlStringMgr@2@XZ ; ATL::CAtlStringMgr::GetInstance
	mov	rcx, rax
; File c:\program files (x86)\microsoft visual studio\2017\community\vc\tools\msvc\14.15.26726\atlmfc\include\atlsimpstr.h
; Line 205
	test	rax, rax
	jne	SHORT $LN14@get_cpu_st
	mov	ecx, -2147467259			; ffffffff80004005H
	call	?AtlThrowImpl@ATL@@YAXJ@Z		; ATL::AtlThrowImpl
	int	3
$LN14@get_cpu_st:
; Line 206
	mov	rax, QWORD PTR [rax]
	call	QWORD PTR [rax+24]
; Line 59
	add	rax, 24
	mov	QWORD PTR str$[rsp], rax
; File d:\visual studio\cpu_benchmark\cpu_benchmark\cpu_benchmark.cpp
; Line 275
	mov	rbx, 1237940039285380275		; 112e0be826d694b3H
	movss	xmm7, DWORD PTR __real@5f800000
	movss	xmm9, DWORD PTR __real@3f800000
	movss	xmm8, DWORD PTR __real@bf800000
	movss	xmm10, DWORD PTR __real@42c80000
	npad	11
$LL2@get_cpu_st:
; Line 310
	lea	r8, QWORD PTR userTime$101[rsp]
	lea	rdx, QWORD PTR kernelTime$102[rsp]
	lea	rcx, QWORD PTR idleTime$100[rsp]
	call	QWORD PTR __imp_GetSystemTimes
	test	eax, eax
	je	$LN30@get_cpu_st
; Line 305
	mov	r8d, DWORD PTR idleTime$100[rsp+4]
	shl	r8, 32					; 00000020H
	mov	eax, DWORD PTR idleTime$100[rsp]
	or	r8, rax
	mov	edx, DWORD PTR userTime$101[rsp+4]
	shl	rdx, 32					; 00000020H
	mov	eax, DWORD PTR userTime$101[rsp]
	or	rdx, rax
	mov	ecx, DWORD PTR kernelTime$102[rsp+4]
	shl	rcx, 32					; 00000020H
	mov	eax, DWORD PTR kernelTime$102[rsp]
	or	rcx, rax
; Line 310
	add	rdx, rcx
; Line 295
	mov	rcx, rdx
	sub	rcx, QWORD PTR ?_previousTotalTicks@?1??CalculateCPULoad@@YAM_K0@Z@4_KA
; Line 298
	xorps	xmm0, xmm0
	je	SHORT $LN41@get_cpu_st
; Line 296
	mov	rax, r8
	sub	rax, QWORD PTR ?_previousIdleTicks@?1??CalculateCPULoad@@YAM_K0@Z@4_KA
; Line 298
	cvtsi2ss xmm0, rax
	jns	SHORT $LN205@get_cpu_st
	addss	xmm0, xmm7
$LN205@get_cpu_st:
	xorps	xmm1, xmm1
	cvtsi2ss xmm1, rcx
	test	rcx, rcx
	jns	SHORT $LN204@get_cpu_st
	addss	xmm1, xmm7
$LN204@get_cpu_st:
	divss	xmm0, xmm1
$LN41@get_cpu_st:
; Line 300
	mov	QWORD PTR ?_previousTotalTicks@?1??CalculateCPULoad@@YAM_K0@Z@4_KA, rdx
; Line 301
	mov	QWORD PTR ?_previousIdleTicks@?1??CalculateCPULoad@@YAM_K0@Z@4_KA, r8
; Line 298
	movaps	xmm6, xmm9
	subss	xmm6, xmm0
; Line 310
	jmp	SHORT $LN31@get_cpu_st
$LN30@get_cpu_st:
	movaps	xmm6, xmm8
$LN31@get_cpu_st:
; Line 280
	movaps	xmm0, xmm6
	mulss	xmm0, xmm10
	xorps	xmm2, xmm2
	cvtss2sd xmm2, xmm0
	movq	r8, xmm2
	lea	rdx, OFFSET FLAT:??_C@_1EM@FKIHAIBA@?$AAC?$AAP?$AAU?$AA?5?$AAU?$AAs?$AAa?$AAg?$AAe?$AA?3?$AA?5?$AA?5?$AA?5?$AA?5?$AA?5@
	lea	rcx, QWORD PTR str$[rsp]
	call	?Format@?$CStringT@_WV?$StrTraitATL@_WV?$ChTraitsCRT@_W@ATL@@@ATL@@@ATL@@QEAAXPEB_WZZ ; ATL::CStringT<wchar_t,ATL::StrTraitATL<wchar_t,ATL::ChTraitsCRT<wchar_t> > >::Format
; Line 281
	mov	rdx, QWORD PTR str$[rsp]
	mov	rcx, QWORD PTR ?processor_status@@3PEAUHWND__@@EA ; processor_status
	call	QWORD PTR __imp_SetWindowTextW
; Line 282
	xor	edx, edx
	mov	rcx, QWORD PTR ?processor_status@@3PEAUHWND__@@EA ; processor_status
	call	QWORD PTR __imp_ShowWindow
; Line 283
	mov	edx, 5
	mov	rcx, QWORD PTR ?processor_status@@3PEAUHWND__@@EA ; processor_status
	call	QWORD PTR __imp_ShowWindow
; Line 284
	movss	DWORD PTR ?cpu_percent@@3PAMA, xmm6
; File c:\program files (x86)\microsoft visual studio\2017\community\vc\tools\msvc\14.15.26726\include\chrono
; Line 775
	call	QWORD PTR __imp__Xtime_get_ticks
; Line 507
	add	rax, 10000000				; 00989680H
	imul	rcx, rax, 100				; 00000064H
; Line 141
	mov	rax, rbx
	imul	rcx
	sar	rdx, 26
	mov	rax, rdx
	shr	rax, 63					; 0000003fH
	add	rdx, rax
; Line 828
	mov	QWORD PTR $T14[rsp], rdx
	imul	eax, edx, 1000000000			; 3b9aca00H
; Line 507
	sub	ecx, eax
; Line 830
	mov	DWORD PTR $T14[rsp+8], ecx
; File c:\program files (x86)\microsoft visual studio\2017\community\vc\tools\msvc\14.15.26726\include\thread
; Line 135
	movaps	xmm0, XMMWORD PTR $T14[rsp]
	movdqa	XMMWORD PTR _Tgt$103[rsp], xmm0
; Line 128
	lea	rcx, QWORD PTR _Tgt$103[rsp]
	call	QWORD PTR __imp__Thrd_sleep
; File d:\visual studio\cpu_benchmark\cpu_benchmark\cpu_benchmark.cpp
; Line 288
	jmp	$LL2@get_cpu_st
	int	3
$LN207@get_cpu_st:
?get_cpu_status@@YAXXZ ENDP				; get_cpu_status
_TEXT	ENDS
;	COMDAT text$x
text$x	SEGMENT
$T14 = 32
$T99 = 48
idleTime$100 = 56
userTime$101 = 64
kernelTime$102 = 72
str$ = 80
_Tgt$103 = 96
__$ArrayPad$ = 112
?dtor$0@?0??get_cpu_status@@YAXXZ@4HA PROC		; `get_cpu_status'::`1'::dtor$0
	lea	rcx, QWORD PTR str$[rdx]
	jmp	??1?$CStringT@_WV?$StrTraitATL@_WV?$ChTraitsCRT@_W@ATL@@@ATL@@@ATL@@QEAA@XZ ; ATL::CStringT<wchar_t,ATL::StrTraitATL<wchar_t,ATL::ChTraitsCRT<wchar_t> > >::~CStringT<wchar_t,ATL::StrTraitATL<wchar_t,ATL::ChTraitsCRT<wchar_t> > >
?dtor$0@?0??get_cpu_status@@YAXXZ@4HA ENDP		; `get_cpu_status'::`1'::dtor$0
text$x	ENDS
; Function compile flags: /Ogtpy
;	COMDAT text$x
text$x	SEGMENT
$T14 = 32
$T99 = 48
idleTime$100 = 56
userTime$101 = 64
kernelTime$102 = 72
str$ = 80
_Tgt$103 = 96
__$ArrayPad$ = 112
?dtor$0@?0??get_cpu_status@@YAXXZ@4HA PROC		; `get_cpu_status'::`1'::dtor$0
	lea	rcx, QWORD PTR str$[rdx]
	jmp	??1?$CStringT@_WV?$StrTraitATL@_WV?$ChTraitsCRT@_W@ATL@@@ATL@@@ATL@@QEAA@XZ ; ATL::CStringT<wchar_t,ATL::StrTraitATL<wchar_t,ATL::ChTraitsCRT<wchar_t> > >::~CStringT<wchar_t,ATL::StrTraitATL<wchar_t,ATL::ChTraitsCRT<wchar_t> > >
?dtor$0@?0??get_cpu_status@@YAXXZ@4HA ENDP		; `get_cpu_status'::`1'::dtor$0
text$x	ENDS
; Function compile flags: /Ogtpy
;	COMDAT ?CalculateCPULoad@@YAM_K0@Z
_TEXT	SEGMENT
idleTicks$ = 8
totalTicks$ = 16
?CalculateCPULoad@@YAM_K0@Z PROC			; CalculateCPULoad, COMDAT
; File d:\visual studio\cpu_benchmark\cpu_benchmark\cpu_benchmark.cpp
; Line 295
	mov	r8, rdx
; Line 298
	xorps	xmm1, xmm1
	sub	r8, QWORD PTR ?_previousTotalTicks@?1??CalculateCPULoad@@YAM_K0@Z@4_KA
	je	SHORT $LN4@CalculateC
	movss	xmm2, DWORD PTR __real@5f800000
	mov	rax, rcx
	sub	rax, QWORD PTR ?_previousIdleTicks@?1??CalculateCPULoad@@YAM_K0@Z@4_KA
	cvtsi2ss xmm1, rax
	jns	SHORT $LN6@CalculateC
	addss	xmm1, xmm2
$LN6@CalculateC:
	xorps	xmm0, xmm0
	cvtsi2ss xmm0, r8
	test	r8, r8
	jns	SHORT $LN5@CalculateC
	addss	xmm0, xmm2
$LN5@CalculateC:
	divss	xmm1, xmm0
$LN4@CalculateC:
	movss	xmm0, DWORD PTR __real@3f800000
	subss	xmm0, xmm1
; Line 300
	mov	QWORD PTR ?_previousTotalTicks@?1??CalculateCPULoad@@YAM_K0@Z@4_KA, rdx
; Line 301
	mov	QWORD PTR ?_previousIdleTicks@?1??CalculateCPULoad@@YAM_K0@Z@4_KA, rcx
; Line 303
	ret	0
?CalculateCPULoad@@YAM_K0@Z ENDP			; CalculateCPULoad
_TEXT	ENDS
; Function compile flags: /Ogtpy
;	COMDAT ?FileTimeToInt64@@YA_KAEBU_FILETIME@@@Z
_TEXT	SEGMENT
ft$ = 8
?FileTimeToInt64@@YA_KAEBU_FILETIME@@@Z PROC		; FileTimeToInt64, COMDAT
; File d:\visual studio\cpu_benchmark\cpu_benchmark\cpu_benchmark.cpp
; Line 305
	mov	eax, DWORD PTR [rcx+4]
	mov	ecx, DWORD PTR [rcx]
	shl	rax, 32					; 00000020H
	or	rax, rcx
	ret	0
?FileTimeToInt64@@YA_KAEBU_FILETIME@@@Z ENDP		; FileTimeToInt64
_TEXT	ENDS
; Function compile flags: /Ogtpy
;	COMDAT ?GetCPULoad@@YAMXZ
_TEXT	SEGMENT
idleTime$ = 32
userTime$ = 40
kernelTime$ = 48
__$ArrayPad$ = 56
?GetCPULoad@@YAMXZ PROC					; GetCPULoad, COMDAT
; File d:\visual studio\cpu_benchmark\cpu_benchmark\cpu_benchmark.cpp
; Line 308
$LN18:
	sub	rsp, 72					; 00000048H
	mov	rax, QWORD PTR __security_cookie
	xor	rax, rsp
	mov	QWORD PTR __$ArrayPad$[rsp], rax
; Line 310
	lea	r8, QWORD PTR userTime$[rsp]
	lea	rdx, QWORD PTR kernelTime$[rsp]
	lea	rcx, QWORD PTR idleTime$[rsp]
	call	QWORD PTR __imp_GetSystemTimes
	test	eax, eax
	je	$LN3@GetCPULoad
; Line 305
	mov	eax, DWORD PTR idleTime$[rsp]
; Line 298
	xorps	xmm1, xmm1
; Line 305
	mov	r8d, DWORD PTR idleTime$[rsp+4]
	mov	edx, DWORD PTR userTime$[rsp+4]
	mov	ecx, DWORD PTR kernelTime$[rsp+4]
	shl	rdx, 32					; 00000020H
	shl	rcx, 32					; 00000020H
	shl	r8, 32					; 00000020H
	or	r8, rax
	mov	eax, DWORD PTR userTime$[rsp]
	or	rdx, rax
	mov	eax, DWORD PTR kernelTime$[rsp]
	or	rcx, rax
; Line 310
	add	rdx, rcx
; Line 295
	mov	rcx, rdx
	sub	rcx, QWORD PTR ?_previousTotalTicks@?1??CalculateCPULoad@@YAM_K0@Z@4_KA
; Line 298
	je	SHORT $LN14@GetCPULoad
	movss	xmm2, DWORD PTR __real@5f800000
	mov	rax, r8
	sub	rax, QWORD PTR ?_previousIdleTicks@?1??CalculateCPULoad@@YAM_K0@Z@4_KA
	cvtsi2ss xmm1, rax
	jns	SHORT $LN16@GetCPULoad
	addss	xmm1, xmm2
$LN16@GetCPULoad:
	xorps	xmm0, xmm0
	cvtsi2ss xmm0, rcx
	test	rcx, rcx
	jns	SHORT $LN15@GetCPULoad
	addss	xmm0, xmm2
$LN15@GetCPULoad:
	divss	xmm1, xmm0
$LN14@GetCPULoad:
	movss	xmm0, DWORD PTR __real@3f800000
	subss	xmm0, xmm1
; Line 300
	mov	QWORD PTR ?_previousTotalTicks@?1??CalculateCPULoad@@YAM_K0@Z@4_KA, rdx
; Line 301
	mov	QWORD PTR ?_previousIdleTicks@?1??CalculateCPULoad@@YAM_K0@Z@4_KA, r8
; Line 311
	mov	rcx, QWORD PTR __$ArrayPad$[rsp]
	xor	rcx, rsp
	call	__security_check_cookie
	add	rsp, 72					; 00000048H
	ret	0
$LN3@GetCPULoad:
; Line 310
	movss	xmm0, DWORD PTR __real@bf800000
; Line 311
	mov	rcx, QWORD PTR __$ArrayPad$[rsp]
	xor	rcx, rsp
	call	__security_check_cookie
	add	rsp, 72					; 00000048H
	ret	0
?GetCPULoad@@YAMXZ ENDP					; GetCPULoad
_TEXT	ENDS
; Function compile flags: /Ogtpy
;	COMDAT ??0?$bitset@$0CA@@std@@QEAA@_K@Z
_TEXT	SEGMENT
this$ = 8
_Val$ = 16
??0?$bitset@$0CA@@std@@QEAA@_K@Z PROC			; std::bitset<32>::bitset<32>, COMDAT
; File c:\program files (x86)\microsoft visual studio\2017\community\vc\tools\msvc\14.15.26726\include\bitset
; Line 126
	mov	DWORD PTR [rcx], edx
; Line 128
	mov	rax, rcx
	ret	0
??0?$bitset@$0CA@@std@@QEAA@_K@Z ENDP			; std::bitset<32>::bitset<32>
_TEXT	ENDS
; Function compile flags: /Ogtpy
;	COMDAT ??0?$bitset@$0CA@@std@@QEAA@XZ
_TEXT	SEGMENT
this$ = 8
??0?$bitset@$0CA@@std@@QEAA@XZ PROC			; std::bitset<32>::bitset<32>, COMDAT
; File c:\program files (x86)\microsoft visual studio\2017\community\vc\tools\msvc\14.15.26726\include\bitset
; Line 115
	xor	eax, eax
	mov	DWORD PTR [rcx], eax
; Line 117
	mov	rax, rcx
	ret	0
??0?$bitset@$0CA@@std@@QEAA@XZ ENDP			; std::bitset<32>::bitset<32>
_TEXT	ENDS
; Function compile flags: /Ogtpy
;	COMDAT ??A?$vector@V?$array@H$03@std@@V?$allocator@V?$array@H$03@std@@@2@@std@@QEAAAEAV?$array@H$03@1@_K@Z
_TEXT	SEGMENT
this$ = 8
_Pos$ = 16
??A?$vector@V?$array@H$03@std@@V?$allocator@V?$array@H$03@std@@@2@@std@@QEAAAEAV?$array@H$03@1@_K@Z PROC ; std::vector<std::array<int,4>,std::allocator<std::array<int,4> > >::operator[], COMDAT
; File c:\program files (x86)\microsoft visual studio\2017\community\vc\tools\msvc\14.15.26726\include\vector
; Line 1736
	shl	rdx, 4
	add	rdx, QWORD PTR [rcx]
	mov	rax, rdx
; Line 1737
	ret	0
??A?$vector@V?$array@H$03@std@@V?$allocator@V?$array@H$03@std@@@2@@std@@QEAAAEAV?$array@H$03@1@_K@Z ENDP ; std::vector<std::array<int,4>,std::allocator<std::array<int,4> > >::operator[]
_TEXT	ENDS
; Function compile flags: /Ogtpy
;	COMDAT ?push_back@?$vector@V?$array@H$03@std@@V?$allocator@V?$array@H$03@std@@@2@@std@@QEAAXAEBV?$array@H$03@2@@Z
_TEXT	SEGMENT
this$ = 8
_Val$ = 16
?push_back@?$vector@V?$array@H$03@std@@V?$allocator@V?$array@H$03@std@@@2@@std@@QEAAXAEBV?$array@H$03@2@@Z PROC ; std::vector<std::array<int,4>,std::allocator<std::array<int,4> > >::push_back, COMDAT
; File c:\program files (x86)\microsoft visual studio\2017\community\vc\tools\msvc\14.15.26726\include\vector
; Line 931
	mov	r8, rdx
; Line 1726
	mov	rdx, QWORD PTR [rcx+8]
	cmp	QWORD PTR [rcx+16], rdx
; Line 917
	je	SHORT $LN4@push_back
; File c:\program files (x86)\microsoft visual studio\2017\community\vc\tools\msvc\14.15.26726\include\xmemory0
; Line 879
	movups	xmm0, XMMWORD PTR [r8]
	movups	XMMWORD PTR [rdx], xmm0
; File c:\program files (x86)\microsoft visual studio\2017\community\vc\tools\msvc\14.15.26726\include\vector
; Line 905
	add	QWORD PTR [rcx+8], 16
; Line 933
	ret	0
$LN4@push_back:
; Line 922
	jmp	??$_Emplace_reallocate@AEBV?$array@H$03@std@@@?$vector@V?$array@H$03@std@@V?$allocator@V?$array@H$03@std@@@2@@std@@QEAAPEAV?$array@H$03@1@QEAV21@AEBV21@@Z ; std::vector<std::array<int,4>,std::allocator<std::array<int,4> > >::_Emplace_reallocate<std::array<int,4> const &>
?push_back@?$vector@V?$array@H$03@std@@V?$allocator@V?$array@H$03@std@@@2@@std@@QEAAXAEBV?$array@H$03@2@@Z ENDP ; std::vector<std::array<int,4>,std::allocator<std::array<int,4> > >::push_back
_TEXT	ENDS
; Function compile flags: /Ogtpy
;	COMDAT ??$emplace_back@AEBV?$array@H$03@std@@@?$vector@V?$array@H$03@std@@V?$allocator@V?$array@H$03@std@@@2@@std@@QEAAXAEBV?$array@H$03@1@@Z
_TEXT	SEGMENT
this$ = 8
<_Val_0>$ = 16
??$emplace_back@AEBV?$array@H$03@std@@@?$vector@V?$array@H$03@std@@V?$allocator@V?$array@H$03@std@@@2@@std@@QEAAXAEBV?$array@H$03@1@@Z PROC ; std::vector<std::array<int,4>,std::allocator<std::array<int,4> > >::emplace_back<std::array<int,4> const &>, COMDAT
; File c:\program files (x86)\microsoft visual studio\2017\community\vc\tools\msvc\14.15.26726\include\vector
; Line 916
	mov	r8, rdx
; Line 1726
	mov	rdx, QWORD PTR [rcx+8]
	cmp	QWORD PTR [rcx+16], rdx
; Line 917
	je	SHORT $LN2@emplace_ba
; File c:\program files (x86)\microsoft visual studio\2017\community\vc\tools\msvc\14.15.26726\include\xmemory0
; Line 879
	movups	xmm0, XMMWORD PTR [r8]
	movups	XMMWORD PTR [rdx], xmm0
; File c:\program files (x86)\microsoft visual studio\2017\community\vc\tools\msvc\14.15.26726\include\vector
; Line 905
	add	QWORD PTR [rcx+8], 16
; Line 928
	ret	0
$LN2@emplace_ba:
; Line 922
	jmp	??$_Emplace_reallocate@AEBV?$array@H$03@std@@@?$vector@V?$array@H$03@std@@V?$allocator@V?$array@H$03@std@@@2@@std@@QEAAPEAV?$array@H$03@1@QEAV21@AEBV21@@Z ; std::vector<std::array<int,4>,std::allocator<std::array<int,4> > >::_Emplace_reallocate<std::array<int,4> const &>
??$emplace_back@AEBV?$array@H$03@std@@@?$vector@V?$array@H$03@std@@V?$allocator@V?$array@H$03@std@@@2@@std@@QEAAXAEBV?$array@H$03@1@@Z ENDP ; std::vector<std::array<int,4>,std::allocator<std::array<int,4> > >::emplace_back<std::array<int,4> const &>
_TEXT	ENDS
; Function compile flags: /Ogtpy
;	COMDAT ??$_Emplace_back_with_unused_capacity@AEBV?$array@H$03@std@@@?$vector@V?$array@H$03@std@@V?$allocator@V?$array@H$03@std@@@2@@std@@AEAAXAEBV?$array@H$03@1@@Z
_TEXT	SEGMENT
this$ = 8
<_Val_0>$ = 16
??$_Emplace_back_with_unused_capacity@AEBV?$array@H$03@std@@@?$vector@V?$array@H$03@std@@V?$allocator@V?$array@H$03@std@@@2@@std@@AEAAXAEBV?$array@H$03@1@@Z PROC ; std::vector<std::array<int,4>,std::allocator<std::array<int,4> > >::_Emplace_back_with_unused_capacity<std::array<int,4> const &>, COMDAT
; File c:\program files (x86)\microsoft visual studio\2017\community\vc\tools\msvc\14.15.26726\include\vector
; File c:\program files (x86)\microsoft visual studio\2017\community\vc\tools\msvc\14.15.26726\include\xstddef
; Line 346
	mov	rax, QWORD PTR [rcx+8]
; File c:\program files (x86)\microsoft visual studio\2017\community\vc\tools\msvc\14.15.26726\include\xmemory0
; Line 879
	movups	xmm0, XMMWORD PTR [rdx]
	movups	XMMWORD PTR [rax], xmm0
; File c:\program files (x86)\microsoft visual studio\2017\community\vc\tools\msvc\14.15.26726\include\vector
; Line 905
	add	QWORD PTR [rcx+8], 16
; Line 911
	ret	0
??$_Emplace_back_with_unused_capacity@AEBV?$array@H$03@std@@@?$vector@V?$array@H$03@std@@V?$allocator@V?$array@H$03@std@@@2@@std@@AEAAXAEBV?$array@H$03@1@@Z ENDP ; std::vector<std::array<int,4>,std::allocator<std::array<int,4> > >::_Emplace_back_with_unused_capacity<std::array<int,4> const &>
_TEXT	ENDS
; Function compile flags: /Ogtpy
;	COMDAT ??1?$vector@V?$array@H$03@std@@V?$allocator@V?$array@H$03@std@@@2@@std@@QEAA@XZ
_TEXT	SEGMENT
this$ = 48
??1?$vector@V?$array@H$03@std@@V?$allocator@V?$array@H$03@std@@@2@@std@@QEAA@XZ PROC ; std::vector<std::array<int,4>,std::allocator<std::array<int,4> > >::~vector<std::array<int,4>,std::allocator<std::array<int,4> > >, COMDAT
; File c:\program files (x86)\microsoft visual studio\2017\community\vc\tools\msvc\14.15.26726\include\vector
; Line 893
$LN106:
	push	rbx
	sub	rsp, 32					; 00000020H
	mov	rbx, rcx
; Line 1913
	mov	rcx, QWORD PTR [rcx]
	test	rcx, rcx
	je	SHORT $LN4@vector
; Line 1715
	mov	rdx, QWORD PTR [rbx+16]
	sub	rdx, rcx
; File c:\program files (x86)\microsoft visual studio\2017\community\vc\tools\msvc\14.15.26726\include\xmemory0
; Line 992
	and	rdx, -16
; Line 201
	cmp	rdx, 4096				; 00001000H
	jb	SHORT $LN80@vector
; Line 118
	mov	r8, QWORD PTR [rcx-8]
	add	rdx, 39					; 00000027H
; Line 131
	sub	rcx, r8
; Line 132
	lea	rax, QWORD PTR [rcx-8]
	cmp	rax, 31
	ja	SHORT $LN77@vector
; Line 133
	mov	rcx, r8
$LN80@vector:
; Line 207
	call	??3@YAXPEAX_K@Z				; operator delete
; File c:\program files (x86)\microsoft visual studio\2017\community\vc\tools\msvc\14.15.26726\include\vector
; Line 1918
	xor	eax, eax
	mov	QWORD PTR [rbx], rax
; Line 1919
	mov	QWORD PTR [rbx+8], rax
; Line 1920
	mov	QWORD PTR [rbx+16], rax
$LN4@vector:
; Line 895
	add	rsp, 32					; 00000020H
	pop	rbx
	ret	0
$LN77@vector:
; File c:\program files (x86)\microsoft visual studio\2017\community\vc\tools\msvc\14.15.26726\include\xmemory0
; Line 132
	call	QWORD PTR __imp__invalid_parameter_noinfo_noreturn
	int	3
$LN103@vector:
??1?$vector@V?$array@H$03@std@@V?$allocator@V?$array@H$03@std@@@2@@std@@QEAA@XZ ENDP ; std::vector<std::array<int,4>,std::allocator<std::array<int,4> > >::~vector<std::array<int,4>,std::allocator<std::array<int,4> > >
_TEXT	ENDS
; Function compile flags: /Ogtpy
;	COMDAT ??0?$vector@V?$array@H$03@std@@V?$allocator@V?$array@H$03@std@@@2@@std@@QEAA@XZ
_TEXT	SEGMENT
this$ = 8
??0?$vector@V?$array@H$03@std@@V?$allocator@V?$array@H$03@std@@@2@@std@@QEAA@XZ PROC ; std::vector<std::array<int,4>,std::allocator<std::array<int,4> > >::vector<std::array<int,4>,std::allocator<std::array<int,4> > >, COMDAT
; File c:\program files (x86)\microsoft visual studio\2017\community\vc\tools\msvc\14.15.26726\include\vector
; Line 389
	xor	eax, eax
	mov	QWORD PTR [rcx], rax
; Line 390
	mov	QWORD PTR [rcx+8], rax
; Line 391
	mov	QWORD PTR [rcx+16], rax
; Line 652
	mov	rax, rcx
	ret	0
??0?$vector@V?$array@H$03@std@@V?$allocator@V?$array@H$03@std@@@2@@std@@QEAA@XZ ENDP ; std::vector<std::array<int,4>,std::allocator<std::array<int,4> > >::vector<std::array<int,4>,std::allocator<std::array<int,4> > >
_TEXT	ENDS
; Function compile flags: /Ogtpy
;	COMDAT ?data@?$array@H$03@std@@QEAAPEAHXZ
_TEXT	SEGMENT
this$ = 8
?data@?$array@H$03@std@@QEAAPEAHXZ PROC			; std::array<int,4>::data, COMDAT
; File c:\program files (x86)\microsoft visual studio\2017\community\vc\tools\msvc\14.15.26726\include\array
; Line 212
	mov	rax, rcx
; Line 213
	ret	0
?data@?$array@H$03@std@@QEAAPEAHXZ ENDP			; std::array<int,4>::data
_TEXT	ENDS
; Function compile flags: /Ogtpy
;	COMDAT ??A?$array@H$03@std@@QEAAAEAH_K@Z
_TEXT	SEGMENT
this$ = 8
_Pos$ = 16
??A?$array@H$03@std@@QEAAAEAH_K@Z PROC			; std::array<int,4>::operator[], COMDAT
; File c:\program files (x86)\microsoft visual studio\2017\community\vc\tools\msvc\14.15.26726\include\array
; Line 177
	lea	rax, QWORD PTR [rcx+rdx*4]
; Line 178
	ret	0
??A?$array@H$03@std@@QEAAAEAH_K@Z ENDP			; std::array<int,4>::operator[]
_TEXT	ENDS
; Function compile flags: /Ogtpy
;	COMDAT ?time_since_epoch@?$time_point@Usystem_clock@chrono@std@@V?$duration@_JU?$ratio@$00$0JIJGIA@@std@@@23@@chrono@std@@QEBA?AV?$duration@_JU?$ratio@$00$0JIJGIA@@std@@@23@XZ
_TEXT	SEGMENT
this$ = 8
__$ReturnUdt$ = 16
?time_since_epoch@?$time_point@Usystem_clock@chrono@std@@V?$duration@_JU?$ratio@$00$0JIJGIA@@std@@@23@@chrono@std@@QEBA?AV?$duration@_JU?$ratio@$00$0JIJGIA@@std@@@23@XZ PROC ; std::chrono::time_point<std::chrono::system_clock,std::chrono::duration<__int64,std::ratio<1,10000000> > >::time_since_epoch, COMDAT
; File c:\program files (x86)\microsoft visual studio\2017\community\vc\tools\msvc\14.15.26726\include\chrono
; Line 223
	mov	rax, QWORD PTR [rcx]
	mov	QWORD PTR [rdx], rax
	mov	rax, rdx
; Line 224
	ret	0
?time_since_epoch@?$time_point@Usystem_clock@chrono@std@@V?$duration@_JU?$ratio@$00$0JIJGIA@@std@@@23@@chrono@std@@QEBA?AV?$duration@_JU?$ratio@$00$0JIJGIA@@std@@@23@XZ ENDP ; std::chrono::time_point<std::chrono::system_clock,std::chrono::duration<__int64,std::ratio<1,10000000> > >::time_since_epoch
_TEXT	ENDS
; Function compile flags: /Ogtpy
;	COMDAT ??0?$time_point@Usystem_clock@chrono@std@@V?$duration@_JU?$ratio@$00$0JIJGIA@@std@@@23@@chrono@std@@QEAA@AEBV?$duration@_JU?$ratio@$00$0JIJGIA@@std@@@12@@Z
_TEXT	SEGMENT
this$ = 8
_Other$ = 16
??0?$time_point@Usystem_clock@chrono@std@@V?$duration@_JU?$ratio@$00$0JIJGIA@@std@@@23@@chrono@std@@QEAA@AEBV?$duration@_JU?$ratio@$00$0JIJGIA@@std@@@12@@Z PROC ; std::chrono::time_point<std::chrono::system_clock,std::chrono::duration<__int64,std::ratio<1,10000000> > >::time_point<std::chrono::system_clock,std::chrono::duration<__int64,std::ratio<1,10000000> > >, COMDAT
; File c:\program files (x86)\microsoft visual studio\2017\community\vc\tools\msvc\14.15.26726\include\chrono
; Line 210
	mov	rax, QWORD PTR [rdx]
	mov	QWORD PTR [rcx], rax
; Line 212
	mov	rax, rcx
	ret	0
??0?$time_point@Usystem_clock@chrono@std@@V?$duration@_JU?$ratio@$00$0JIJGIA@@std@@@23@@chrono@std@@QEAA@AEBV?$duration@_JU?$ratio@$00$0JIJGIA@@std@@@12@@Z ENDP ; std::chrono::time_point<std::chrono::system_clock,std::chrono::duration<__int64,std::ratio<1,10000000> > >::time_point<std::chrono::system_clock,std::chrono::duration<__int64,std::ratio<1,10000000> > >
_TEXT	ENDS
; Function compile flags: /Ogtpy
;	COMDAT ?count@?$duration@_JU?$ratio@$00$0JIJGIA@@std@@@chrono@std@@QEBA_JXZ
_TEXT	SEGMENT
this$ = 8
?count@?$duration@_JU?$ratio@$00$0JIJGIA@@std@@@chrono@std@@QEBA_JXZ PROC ; std::chrono::duration<__int64,std::ratio<1,10000000> >::count, COMDAT
; File c:\program files (x86)\microsoft visual studio\2017\community\vc\tools\msvc\14.15.26726\include\chrono
; Line 104
	mov	rax, QWORD PTR [rcx]
; Line 105
	ret	0
?count@?$duration@_JU?$ratio@$00$0JIJGIA@@std@@@chrono@std@@QEBA_JXZ ENDP ; std::chrono::duration<__int64,std::ratio<1,10000000> >::count
_TEXT	ENDS
; Function compile flags: /Ogtpy
;	COMDAT ??HATL@@YA?AV?$CStringT@_WV?$StrTraitATL@_WV?$ChTraitsCRT@_W@ATL@@@ATL@@@0@AEBV10@PEB_W@Z
_TEXT	SEGMENT
$T1 = 32
$T7 = 40
__$ReturnUdt$ = 96
str1$ = 104
psz2$ = 112
??HATL@@YA?AV?$CStringT@_WV?$StrTraitATL@_WV?$ChTraitsCRT@_W@ATL@@@ATL@@@0@AEBV10@PEB_W@Z PROC ; ATL::operator+, COMDAT
; File c:\program files (x86)\microsoft visual studio\2017\community\vc\tools\msvc\14.15.26726\atlmfc\include\cstringt.h
; Line 2394
$LN74:
	mov	QWORD PTR [rsp+8], rcx
	push	rdi
	push	r12
	push	r13
	push	r14
	push	r15
	sub	rsp, 48					; 00000030H
	mov	QWORD PTR $T7[rsp], -2
	mov	QWORD PTR [rsp+104], rbx
	mov	QWORD PTR [rsp+112], rbp
	mov	QWORD PTR [rsp+120], rsi
	mov	r15, r8
	mov	r13, rdx
	mov	r14, rcx
	xor	ebx, ebx
	mov	DWORD PTR $T1[rsp], ebx
	xor	eax, eax
	mov	QWORD PTR [rcx], rax
; File c:\program files (x86)\microsoft visual studio\2017\community\vc\tools\msvc\14.15.26726\atlmfc\include\atlsimpstr.h
; Line 523
	mov	rax, QWORD PTR [rdx]
	mov	rcx, QWORD PTR [rax-24]
; Line 524
	test	rcx, rcx
	je	SHORT $LN67@operator
	mov	rax, QWORD PTR [rcx]
	call	QWORD PTR [rax+32]
	mov	rcx, rax
; File c:\program files (x86)\microsoft visual studio\2017\community\vc\tools\msvc\14.15.26726\atlmfc\include\cstringt.h
; Line 1434
	test	rax, rax
	jne	SHORT $LN23@operator
$LN67@operator:
; File c:\program files (x86)\microsoft visual studio\2017\community\vc\tools\msvc\14.15.26726\atlmfc\include\atlstr.h
; Line 1259
	call	?GetInstance@CAtlStringMgr@ATL@@SAPEAUIAtlStringMgr@2@XZ ; ATL::CAtlStringMgr::GetInstance
; File c:\program files (x86)\microsoft visual studio\2017\community\vc\tools\msvc\14.15.26726\atlmfc\include\cstringt.h
; Line 1437
	mov	rdx, QWORD PTR [rax]
	mov	rcx, rax
	call	QWORD PTR [rdx+32]
	mov	rcx, rax
$LN23@operator:
; File c:\program files (x86)\microsoft visual studio\2017\community\vc\tools\msvc\14.15.26726\atlmfc\include\atlsimpstr.h
; Line 205
	test	rcx, rcx
	je	$LN71@operator
; Line 206
	mov	rax, QWORD PTR [rcx]
	call	QWORD PTR [rax+24]
; Line 59
	add	rax, 24
; Line 780
	mov	QWORD PTR [r14], rax
; File c:\program files (x86)\microsoft visual studio\2017\community\vc\tools\msvc\14.15.26726\atlmfc\include\cstringt.h
; Line 2399
	mov	ecx, 1
	mov	DWORD PTR $T1[rsp], ecx
; File c:\program files (x86)\microsoft visual studio\2017\community\vc\tools\msvc\14.15.26726\atlmfc\include\atlsimpstr.h
; Line 730
	test	r15, r15
	jne	SHORT $LN36@operator
; Line 732
	mov	esi, ebx
	jmp	SHORT $LN35@operator
$LN36@operator:
; Line 734
	mov	rsi, -1
	npad	8
$LL68@operator:
	inc	rsi
	cmp	WORD PTR [r15+rsi*2], 0
	jne	SHORT $LL68@operator
$LN35@operator:
; Line 519
	mov	r13, QWORD PTR [r13]
	movsxd	r12, DWORD PTR [r13-16]
; Line 765
	lea	ebp, DWORD PTR [rsi+r12]
; Line 804
	test	ebp, ebp
	js	SHORT $LN72@operator
; Line 808
	sub	ecx, DWORD PTR [rax-8]
; Line 809
	mov	eax, DWORD PTR [rax-12]
	sub	eax, ebp
; Line 810
	or	ecx, eax
	jge	SHORT $LN50@operator
; Line 812
	mov	edx, ebp
	mov	rcx, r14
	call	?PrepareWrite2@?$CSimpleStringT@_W$0A@@ATL@@AEAAXH@Z ; ATL::CSimpleStringT<wchar_t,0>::PrepareWrite2
$LN50@operator:
; Line 508
	mov	rdi, QWORD PTR [r14]
; Line 767
	mov	r9d, r12d
	mov	r8, r13
	mov	rdx, r12
	mov	rcx, rdi
	call	?CopyChars@?$CSimpleStringT@_W$0A@@ATL@@SAXPEA_W_KPEB_WH@Z ; ATL::CSimpleStringT<wchar_t,0>::CopyChars
; Line 768
	movsxd	rdx, esi
	lea	rcx, QWORD PTR [rdi+r12*2]
	mov	r9d, esi
	mov	r8, r15
	call	?CopyChars@?$CSimpleStringT@_W$0A@@ATL@@SAXPEA_W_KPEB_WH@Z ; ATL::CSimpleStringT<wchar_t,0>::CopyChars
; Line 871
	mov	rax, QWORD PTR [r14]
	cmp	ebp, DWORD PTR [rax-12]
	jg	SHORT $LN60@operator
; Line 874
	mov	DWORD PTR [rax-16], ebp
; Line 875
	movsxd	rcx, ebp
	mov	rax, QWORD PTR [r14]
	xor	edx, edx
	mov	WORD PTR [rax+rcx*2], dx
; File c:\program files (x86)\microsoft visual studio\2017\community\vc\tools\msvc\14.15.26726\atlmfc\include\cstringt.h
; Line 2399
	mov	rax, r14
; Line 2400
	mov	rbx, QWORD PTR [rsp+104]
	mov	rbp, QWORD PTR [rsp+112]
	mov	rsi, QWORD PTR [rsp+120]
	add	rsp, 48					; 00000030H
	pop	r15
	pop	r14
	pop	r13
	pop	r12
	pop	rdi
	ret	0
$LN72@operator:
; File c:\program files (x86)\microsoft visual studio\2017\community\vc\tools\msvc\14.15.26726\atlmfc\include\atlsimpstr.h
; Line 805
	mov	ecx, -2147024809			; ffffffff80070057H
	call	?AtlThrowImpl@ATL@@YAXJ@Z		; ATL::AtlThrowImpl
	int	3
$LN60@operator:
; Line 872
	mov	ecx, -2147024809			; ffffffff80070057H
	call	?AtlThrowImpl@ATL@@YAXJ@Z		; ATL::AtlThrowImpl
	int	3
$LN71@operator:
; Line 205
	mov	ecx, -2147467259			; ffffffff80004005H
	call	?AtlThrowImpl@ATL@@YAXJ@Z		; ATL::AtlThrowImpl
	int	3
$LN69@operator:
??HATL@@YA?AV?$CStringT@_WV?$StrTraitATL@_WV?$ChTraitsCRT@_W@ATL@@@ATL@@@0@AEBV10@PEB_W@Z ENDP ; ATL::operator+
_TEXT	ENDS
;	COMDAT text$x
text$x	SEGMENT
$T1 = 32
$T7 = 40
__$ReturnUdt$ = 96
str1$ = 104
psz2$ = 112
?dtor$0@?0???HATL@@YA?AV?$CStringT@_WV?$StrTraitATL@_WV?$ChTraitsCRT@_W@ATL@@@ATL@@@0@AEBV10@PEB_W@Z@4HA PROC ; `ATL::operator+'::`1'::dtor$0
	push	rbp
	sub	rsp, 32					; 00000020H
	mov	rbp, rdx
	mov	eax, DWORD PTR $T1[rbp]
	and	eax, 1
	test	eax, eax
	je	SHORT $LN4@dtor$0
	and	DWORD PTR $T1[rbp], -2
	mov	rcx, QWORD PTR __$ReturnUdt$[rbp]
	call	??1?$CStringT@_WV?$StrTraitATL@_WV?$ChTraitsCRT@_W@ATL@@@ATL@@@ATL@@QEAA@XZ ; ATL::CStringT<wchar_t,ATL::StrTraitATL<wchar_t,ATL::ChTraitsCRT<wchar_t> > >::~CStringT<wchar_t,ATL::StrTraitATL<wchar_t,ATL::ChTraitsCRT<wchar_t> > >
$LN4@dtor$0:
	add	rsp, 32					; 00000020H
	pop	rbp
	ret	0
?dtor$0@?0???HATL@@YA?AV?$CStringT@_WV?$StrTraitATL@_WV?$ChTraitsCRT@_W@ATL@@@ATL@@@0@AEBV10@PEB_W@Z@4HA ENDP ; `ATL::operator+'::`1'::dtor$0
text$x	ENDS
; Function compile flags: /Ogtpy
;	COMDAT text$x
text$x	SEGMENT
$T1 = 32
$T7 = 40
__$ReturnUdt$ = 96
str1$ = 104
psz2$ = 112
?dtor$0@?0???HATL@@YA?AV?$CStringT@_WV?$StrTraitATL@_WV?$ChTraitsCRT@_W@ATL@@@ATL@@@0@AEBV10@PEB_W@Z@4HA PROC ; `ATL::operator+'::`1'::dtor$0
	push	rbp
	sub	rsp, 32					; 00000020H
	mov	rbp, rdx
	mov	eax, DWORD PTR $T1[rbp]
	and	eax, 1
	test	eax, eax
	je	SHORT $LN4@dtor$0
	and	DWORD PTR $T1[rbp], -2
	mov	rcx, QWORD PTR __$ReturnUdt$[rbp]
	call	??1?$CStringT@_WV?$StrTraitATL@_WV?$ChTraitsCRT@_W@ATL@@@ATL@@@ATL@@QEAA@XZ ; ATL::CStringT<wchar_t,ATL::StrTraitATL<wchar_t,ATL::ChTraitsCRT<wchar_t> > >::~CStringT<wchar_t,ATL::StrTraitATL<wchar_t,ATL::ChTraitsCRT<wchar_t> > >
$LN4@dtor$0:
	add	rsp, 32					; 00000020H
	pop	rbp
	ret	0
?dtor$0@?0???HATL@@YA?AV?$CStringT@_WV?$StrTraitATL@_WV?$ChTraitsCRT@_W@ATL@@@ATL@@@0@AEBV10@PEB_W@Z@4HA ENDP ; `ATL::operator+'::`1'::dtor$0
text$x	ENDS
; Function compile flags: /Ogtpy
;	COMDAT ??HATL@@YA?AV?$CStringT@_WV?$StrTraitATL@_WV?$ChTraitsCRT@_W@ATL@@@ATL@@@0@AEBV10@0@Z
_TEXT	SEGMENT
$T1 = 32
$T8 = 40
__$ReturnUdt$ = 96
str1$ = 104
str2$ = 112
??HATL@@YA?AV?$CStringT@_WV?$StrTraitATL@_WV?$ChTraitsCRT@_W@ATL@@@ATL@@@0@AEBV10@0@Z PROC ; ATL::operator+, COMDAT
; File c:\program files (x86)\microsoft visual studio\2017\community\vc\tools\msvc\14.15.26726\atlmfc\include\cstringt.h
; Line 2383
$LN76:
	mov	QWORD PTR [rsp+8], rcx
	push	rdi
	push	r12
	push	r13
	push	r14
	push	r15
	sub	rsp, 48					; 00000030H
	mov	QWORD PTR $T8[rsp], -2
	mov	QWORD PTR [rsp+104], rbx
	mov	QWORD PTR [rsp+112], rbp
	mov	QWORD PTR [rsp+120], rsi
	mov	rdi, r8
	mov	rbx, rdx
	mov	rsi, rcx
	xor	eax, eax
	mov	DWORD PTR $T1[rsp], eax
	mov	QWORD PTR [rcx], rax
; File c:\program files (x86)\microsoft visual studio\2017\community\vc\tools\msvc\14.15.26726\atlmfc\include\atlsimpstr.h
; Line 523
	mov	rax, QWORD PTR [rdx]
	mov	rcx, QWORD PTR [rax-24]
; Line 524
	test	rcx, rcx
	je	SHORT $LN70@operator
	mov	rax, QWORD PTR [rcx]
	call	QWORD PTR [rax+32]
	mov	rcx, rax
; File c:\program files (x86)\microsoft visual studio\2017\community\vc\tools\msvc\14.15.26726\atlmfc\include\cstringt.h
; Line 1434
	test	rax, rax
	jne	SHORT $LN23@operator
$LN70@operator:
; File c:\program files (x86)\microsoft visual studio\2017\community\vc\tools\msvc\14.15.26726\atlmfc\include\atlstr.h
; Line 1259
	call	?GetInstance@CAtlStringMgr@ATL@@SAPEAUIAtlStringMgr@2@XZ ; ATL::CAtlStringMgr::GetInstance
; File c:\program files (x86)\microsoft visual studio\2017\community\vc\tools\msvc\14.15.26726\atlmfc\include\cstringt.h
; Line 1437
	mov	rdx, QWORD PTR [rax]
	mov	rcx, rax
	call	QWORD PTR [rdx+32]
	mov	rcx, rax
$LN23@operator:
; File c:\program files (x86)\microsoft visual studio\2017\community\vc\tools\msvc\14.15.26726\atlmfc\include\atlsimpstr.h
; Line 205
	test	rcx, rcx
	je	$LN73@operator
; Line 206
	mov	rax, QWORD PTR [rcx]
	call	QWORD PTR [rax+24]
; Line 59
	add	rax, 24
; Line 780
	mov	QWORD PTR [rsi], rax
; File c:\program files (x86)\microsoft visual studio\2017\community\vc\tools\msvc\14.15.26726\atlmfc\include\cstringt.h
; Line 2388
	mov	ecx, 1
	mov	DWORD PTR $T1[rsp], ecx
; File c:\program files (x86)\microsoft visual studio\2017\community\vc\tools\msvc\14.15.26726\atlmfc\include\atlsimpstr.h
; Line 519
	mov	r13, QWORD PTR [rdi]
	movsxd	r14, DWORD PTR [r13-16]
	mov	r12, QWORD PTR [rbx]
	movsxd	r15, DWORD PTR [r12-16]
; Line 765
	lea	ebp, DWORD PTR [r15+r14]
; Line 804
	test	ebp, ebp
	js	SHORT $LN74@operator
; Line 808
	sub	ecx, DWORD PTR [rax-8]
; Line 809
	mov	eax, DWORD PTR [rax-12]
	sub	eax, ebp
; Line 810
	or	ecx, eax
	jge	SHORT $LN53@operator
; Line 812
	mov	edx, ebp
	mov	rcx, rsi
	call	?PrepareWrite2@?$CSimpleStringT@_W$0A@@ATL@@AEAAXH@Z ; ATL::CSimpleStringT<wchar_t,0>::PrepareWrite2
$LN53@operator:
; Line 508
	mov	rdi, QWORD PTR [rsi]
; Line 767
	mov	r9d, r15d
	mov	r8, r12
	mov	rdx, r15
	mov	rcx, rdi
	call	?CopyChars@?$CSimpleStringT@_W$0A@@ATL@@SAXPEA_W_KPEB_WH@Z ; ATL::CSimpleStringT<wchar_t,0>::CopyChars
; Line 768
	mov	rdx, r14
	lea	rcx, QWORD PTR [rdi+r15*2]
	mov	r9d, r14d
	mov	r8, r13
	call	?CopyChars@?$CSimpleStringT@_W$0A@@ATL@@SAXPEA_W_KPEB_WH@Z ; ATL::CSimpleStringT<wchar_t,0>::CopyChars
; Line 871
	mov	rax, QWORD PTR [rsi]
	cmp	ebp, DWORD PTR [rax-12]
	jg	SHORT $LN63@operator
; Line 874
	mov	DWORD PTR [rax-16], ebp
; Line 875
	movsxd	rcx, ebp
	mov	rax, QWORD PTR [rsi]
	xor	edx, edx
	mov	WORD PTR [rax+rcx*2], dx
; File c:\program files (x86)\microsoft visual studio\2017\community\vc\tools\msvc\14.15.26726\atlmfc\include\cstringt.h
; Line 2388
	mov	rax, rsi
; Line 2389
	mov	rbx, QWORD PTR [rsp+104]
	mov	rbp, QWORD PTR [rsp+112]
	mov	rsi, QWORD PTR [rsp+120]
	add	rsp, 48					; 00000030H
	pop	r15
	pop	r14
	pop	r13
	pop	r12
	pop	rdi
	ret	0
$LN74@operator:
; File c:\program files (x86)\microsoft visual studio\2017\community\vc\tools\msvc\14.15.26726\atlmfc\include\atlsimpstr.h
; Line 805
	mov	ecx, -2147024809			; ffffffff80070057H
	call	?AtlThrowImpl@ATL@@YAXJ@Z		; ATL::AtlThrowImpl
	int	3
$LN63@operator:
; Line 872
	mov	ecx, -2147024809			; ffffffff80070057H
	call	?AtlThrowImpl@ATL@@YAXJ@Z		; ATL::AtlThrowImpl
	int	3
$LN73@operator:
; Line 205
	mov	ecx, -2147467259			; ffffffff80004005H
	call	?AtlThrowImpl@ATL@@YAXJ@Z		; ATL::AtlThrowImpl
	int	3
$LN71@operator:
??HATL@@YA?AV?$CStringT@_WV?$StrTraitATL@_WV?$ChTraitsCRT@_W@ATL@@@ATL@@@0@AEBV10@0@Z ENDP ; ATL::operator+
_TEXT	ENDS
;	COMDAT text$x
text$x	SEGMENT
$T1 = 32
$T8 = 40
__$ReturnUdt$ = 96
str1$ = 104
str2$ = 112
?dtor$0@?0???HATL@@YA?AV?$CStringT@_WV?$StrTraitATL@_WV?$ChTraitsCRT@_W@ATL@@@ATL@@@0@AEBV10@0@Z@4HA PROC ; `ATL::operator+'::`1'::dtor$0
	push	rbp
	sub	rsp, 32					; 00000020H
	mov	rbp, rdx
	mov	eax, DWORD PTR $T1[rbp]
	and	eax, 1
	test	eax, eax
	je	SHORT $LN4@dtor$0
	and	DWORD PTR $T1[rbp], -2
	mov	rcx, QWORD PTR __$ReturnUdt$[rbp]
	call	??1?$CStringT@_WV?$StrTraitATL@_WV?$ChTraitsCRT@_W@ATL@@@ATL@@@ATL@@QEAA@XZ ; ATL::CStringT<wchar_t,ATL::StrTraitATL<wchar_t,ATL::ChTraitsCRT<wchar_t> > >::~CStringT<wchar_t,ATL::StrTraitATL<wchar_t,ATL::ChTraitsCRT<wchar_t> > >
$LN4@dtor$0:
	add	rsp, 32					; 00000020H
	pop	rbp
	ret	0
?dtor$0@?0???HATL@@YA?AV?$CStringT@_WV?$StrTraitATL@_WV?$ChTraitsCRT@_W@ATL@@@ATL@@@0@AEBV10@0@Z@4HA ENDP ; `ATL::operator+'::`1'::dtor$0
text$x	ENDS
; Function compile flags: /Ogtpy
;	COMDAT text$x
text$x	SEGMENT
$T1 = 32
$T8 = 40
__$ReturnUdt$ = 96
str1$ = 104
str2$ = 112
?dtor$0@?0???HATL@@YA?AV?$CStringT@_WV?$StrTraitATL@_WV?$ChTraitsCRT@_W@ATL@@@ATL@@@0@AEBV10@0@Z@4HA PROC ; `ATL::operator+'::`1'::dtor$0
	push	rbp
	sub	rsp, 32					; 00000020H
	mov	rbp, rdx
	mov	eax, DWORD PTR $T1[rbp]
	and	eax, 1
	test	eax, eax
	je	SHORT $LN4@dtor$0
	and	DWORD PTR $T1[rbp], -2
	mov	rcx, QWORD PTR __$ReturnUdt$[rbp]
	call	??1?$CStringT@_WV?$StrTraitATL@_WV?$ChTraitsCRT@_W@ATL@@@ATL@@@ATL@@QEAA@XZ ; ATL::CStringT<wchar_t,ATL::StrTraitATL<wchar_t,ATL::ChTraitsCRT<wchar_t> > >::~CStringT<wchar_t,ATL::StrTraitATL<wchar_t,ATL::ChTraitsCRT<wchar_t> > >
$LN4@dtor$0:
	add	rsp, 32					; 00000020H
	pop	rbp
	ret	0
?dtor$0@?0???HATL@@YA?AV?$CStringT@_WV?$StrTraitATL@_WV?$ChTraitsCRT@_W@ATL@@@ATL@@@0@AEBV10@0@Z@4HA ENDP ; `ATL::operator+'::`1'::dtor$0
text$x	ENDS
; Function compile flags: /Ogtpy
;	COMDAT ??4?$CStringT@_WV?$StrTraitATL@_WV?$ChTraitsCRT@_W@ATL@@@ATL@@@ATL@@QEAAAEAV01@PEBD@Z
_TEXT	SEGMENT
this$ = 64
pszSrc$ = 72
??4?$CStringT@_WV?$StrTraitATL@_WV?$ChTraitsCRT@_W@ATL@@@ATL@@@ATL@@QEAAAEAV01@PEBD@Z PROC ; ATL::CStringT<wchar_t,ATL::StrTraitATL<wchar_t,ATL::ChTraitsCRT<wchar_t> > >::operator=, COMDAT
; File c:\program files (x86)\microsoft visual studio\2017\community\vc\tools\msvc\14.15.26726\atlmfc\include\cstringt.h
; Line 1322
$LN64:
	mov	QWORD PTR [rsp+8], rbx
	mov	QWORD PTR [rsp+16], rbp
	mov	QWORD PTR [rsp+24], rsi
	mov	QWORD PTR [rsp+32], rdi
	push	r14
	sub	rsp, 48					; 00000030H
; Line 1324
	xor	r14d, r14d
	mov	rbp, rdx
	mov	rbx, rcx
	lea	edi, QWORD PTR [r14-1]
	test	rdx, rdx
	je	SHORT $LN2@operator
; Line 744
	mov	r8, rdx
	mov	DWORD PTR [rsp+40], r14d
	xor	edx, edx
	mov	QWORD PTR [rsp+32], r14
	mov	r9d, edi
	lea	ecx, QWORD PTR [rdi+4]
	call	QWORD PTR __imp_MultiByteToWideChar
	lea	esi, DWORD PTR [rax-1]
; Line 1325
	test	esi, esi
	jle	SHORT $LN2@operator
; File c:\program files (x86)\microsoft visual studio\2017\community\vc\tools\msvc\14.15.26726\atlmfc\include\atlsimpstr.h
; Line 800
	mov	rax, QWORD PTR [rbx]
; Line 808
	mov	r8d, 1
; Line 809
	mov	edx, DWORD PTR [rax-12]
	sub	r8d, DWORD PTR [rax-8]
	sub	edx, esi
; Line 810
	or	r8d, edx
	jge	SHORT $LN15@operator
; Line 812
	mov	edx, esi
